
c:/Users/gaton/source/repos/micro-ad-platform-particle/micro-ad-display/target/5.5.0/p2/micro-ad-display.elf:     file format elf32-littlearm

Sections:
Idx Name          Size      VMA       LMA       File off  Algn
  0 .module_info  00000018  085f8000  085f8000  00008000  2**0
                  CONTENTS, ALLOC, LOAD, READONLY, DATA
  1 .text         0000008c  085f8018  085f8018  00008018  2**2
                  CONTENTS, ALLOC, LOAD, READONLY, CODE
  2 .dynalib      00000008  023f8a48  085f80a8  00008a48  2**3
                  CONTENTS, ALLOC, LOAD, READONLY, DATA
  3 .psram_text   000075a4  023f8a50  085f80b0  00008a50  2**2
                  CONTENTS, ALLOC, LOAD, CODE
  4 .data_alt     00000000  023ffff4  023ffff4  00020000  2**0
                  CONTENTS
  5 .bss_alt      00000000  023ffff4  023ffff4  00020000  2**0
                  CONTENTS
  6 .data         00000078  1007ad3c  085ff654  0001ad3c  2**2
                  CONTENTS, ALLOC, LOAD, DATA
  7 .bss          00000234  1007adb4  1007adb4  0002adb4  2**2
                  ALLOC
  8 .secure_ram_text 00000000  1007e000  1007e000  00020000  2**0
                  CONTENTS
  9 .backup       00000004  1007b400  085ff6cc  0001b400  2**2
                  CONTENTS, ALLOC, LOAD, DATA
 10 .module_info_suffix_align 000008e8  085ff6d0  085ff6d0  0001f6d0  2**0
                  ALLOC
 11 .module_info_product 00000006  085fffb8  085fffb8  0001f6d0  2**0
                  ALLOC
 12 .module_info_suffix 0000003e  085fffbe  085fffbe  0001ffbe  2**0
                  CONTENTS, ALLOC, LOAD, READONLY, DATA
 13 .module_info_crc 00000004  085ffffc  085ffffc  0001fffc  2**0
                  CONTENTS, ALLOC, LOAD, READONLY, DATA
 14 .debug_info   001ad2b1  00000000  00000000  00020000  2**0
                  CONTENTS, READONLY, DEBUGGING, OCTETS
 15 .debug_abbrev 0001c27b  00000000  00000000  001cd2b1  2**0
                  CONTENTS, READONLY, DEBUGGING, OCTETS
 16 .debug_loc    0004e60a  00000000  00000000  001e952c  2**0
                  CONTENTS, READONLY, DEBUGGING, OCTETS
 17 .debug_aranges 00003978  00000000  00000000  00237b36  2**0
                  CONTENTS, READONLY, DEBUGGING, OCTETS
 18 .debug_ranges 0000d678  00000000  00000000  0023b4ae  2**0
                  CONTENTS, READONLY, DEBUGGING, OCTETS
 19 .debug_macro  00031a84  00000000  00000000  00248b26  2**0
                  CONTENTS, READONLY, DEBUGGING, OCTETS
 20 .debug_line   00059e64  00000000  00000000  0027a5aa  2**0
                  CONTENTS, READONLY, DEBUGGING, OCTETS
 21 .debug_str    000e54f6  00000000  00000000  002d440e  2**0
                  CONTENTS, READONLY, DEBUGGING, OCTETS
 22 .debug_frame  0000ace4  00000000  00000000  003b9904  2**2
                  CONTENTS, READONLY, DEBUGGING, OCTETS

Disassembly of section .text:

085f8018 <module_user_pre_init>:
 * Initializes this user module. Returns the start of the heap.
 */
__attribute__((section(".xip.text"))) void* module_user_pre_init() {
    // NOTE: Must invoke APIs in ROM
    // Copy .data
    if ( (&link_global_data_start != &link_global_data_initial_values) && (link_global_data_size != 0))
 85f8018:	4813      	ldr	r0, [pc, #76]	; (85f8068 <module_user_pre_init+0x50>)
 85f801a:	4914      	ldr	r1, [pc, #80]	; (85f806c <module_user_pre_init+0x54>)
__attribute__((section(".xip.text"))) void* module_user_pre_init() {
 85f801c:	b508      	push	{r3, lr}
    if ( (&link_global_data_start != &link_global_data_initial_values) && (link_global_data_size != 0))
 85f801e:	4288      	cmp	r0, r1
 85f8020:	d005      	beq.n	85f802e <module_user_pre_init+0x16>
 85f8022:	4a13      	ldr	r2, [pc, #76]	; (85f8070 <module_user_pre_init+0x58>)
 85f8024:	4282      	cmp	r2, r0
 85f8026:	d002      	beq.n	85f802e <module_user_pre_init+0x16>
    {
        _memcpy(&link_global_data_start, &link_global_data_initial_values, link_global_data_size);
 85f8028:	4b12      	ldr	r3, [pc, #72]	; (85f8074 <module_user_pre_init+0x5c>)
 85f802a:	1a12      	subs	r2, r2, r0
 85f802c:	4798      	blx	r3
    }

    // Initialize .bss
    _memset(&link_bss_location, 0, link_bss_size );
 85f802e:	4812      	ldr	r0, [pc, #72]	; (85f8078 <module_user_pre_init+0x60>)
 85f8030:	4a12      	ldr	r2, [pc, #72]	; (85f807c <module_user_pre_init+0x64>)
 85f8032:	2100      	movs	r1, #0
 85f8034:	4b12      	ldr	r3, [pc, #72]	; (85f8080 <module_user_pre_init+0x68>)
 85f8036:	1a12      	subs	r2, r2, r0
 85f8038:	4798      	blx	r3

    // Copy .dynalib
    if ( (&link_dynalib_start != &link_dynalib_flash_start) && (link_dynalib_size != 0))
 85f803a:	4812      	ldr	r0, [pc, #72]	; (85f8084 <module_user_pre_init+0x6c>)
 85f803c:	4912      	ldr	r1, [pc, #72]	; (85f8088 <module_user_pre_init+0x70>)
 85f803e:	4288      	cmp	r0, r1
 85f8040:	d005      	beq.n	85f804e <module_user_pre_init+0x36>
 85f8042:	4a12      	ldr	r2, [pc, #72]	; (85f808c <module_user_pre_init+0x74>)
 85f8044:	4282      	cmp	r2, r0
 85f8046:	d002      	beq.n	85f804e <module_user_pre_init+0x36>
    {
        _memcpy(&link_dynalib_start, &link_dynalib_flash_start, link_dynalib_size);
 85f8048:	4b0a      	ldr	r3, [pc, #40]	; (85f8074 <module_user_pre_init+0x5c>)
 85f804a:	1a12      	subs	r2, r2, r0
 85f804c:	4798      	blx	r3
    }

    // Copy .psram_text
    if ( (&link_psram_code_start != &link_psram_code_flash_start) && (link_psram_code_size != 0))
 85f804e:	4810      	ldr	r0, [pc, #64]	; (85f8090 <module_user_pre_init+0x78>)
 85f8050:	4910      	ldr	r1, [pc, #64]	; (85f8094 <module_user_pre_init+0x7c>)
 85f8052:	4288      	cmp	r0, r1
 85f8054:	d005      	beq.n	85f8062 <module_user_pre_init+0x4a>
 85f8056:	4a10      	ldr	r2, [pc, #64]	; (85f8098 <module_user_pre_init+0x80>)
 85f8058:	4282      	cmp	r2, r0
 85f805a:	d002      	beq.n	85f8062 <module_user_pre_init+0x4a>
    {
        _memcpy(&link_psram_code_start, &link_psram_code_flash_start, link_psram_code_size);
 85f805c:	4b05      	ldr	r3, [pc, #20]	; (85f8074 <module_user_pre_init+0x5c>)
 85f805e:	1a12      	subs	r2, r2, r0
 85f8060:	4798      	blx	r3
    }

    return &link_global_data_start;
}
 85f8062:	4801      	ldr	r0, [pc, #4]	; (85f8068 <module_user_pre_init+0x50>)
 85f8064:	bd08      	pop	{r3, pc}
 85f8066:	bf00      	nop
 85f8068:	1007ad3c 	.word	0x1007ad3c
 85f806c:	085ff654 	.word	0x085ff654
 85f8070:	1007adb4 	.word	0x1007adb4
 85f8074:	10110d2d 	.word	0x10110d2d
 85f8078:	1007adb4 	.word	0x1007adb4
 85f807c:	1007afe8 	.word	0x1007afe8
 85f8080:	10110ea1 	.word	0x10110ea1
 85f8084:	023f8a48 	.word	0x023f8a48
 85f8088:	085f80a8 	.word	0x085f80a8
 85f808c:	023f8a50 	.word	0x023f8a50
 85f8090:	023f8a50 	.word	0x023f8a50
 85f8094:	085f80b0 	.word	0x085f80b0
 85f8098:	023ffff4 	.word	0x023ffff4

085f809c <dynalib_preinit>:
 85f809c:	085f8019 00000000                       .._.....

Disassembly of section .psram_text:

023f8a50 <strcmp>:
 23f8a50:	f810 2b01 	ldrb.w	r2, [r0], #1
 23f8a54:	f811 3b01 	ldrb.w	r3, [r1], #1
 23f8a58:	2a01      	cmp	r2, #1
 23f8a5a:	bf28      	it	cs
 23f8a5c:	429a      	cmpcs	r2, r3
 23f8a5e:	d0f7      	beq.n	23f8a50 <strcmp>
 23f8a60:	1ad0      	subs	r0, r2, r3
 23f8a62:	4770      	bx	lr

023f8a64 <strlen>:
 23f8a64:	4603      	mov	r3, r0
 23f8a66:	f813 2b01 	ldrb.w	r2, [r3], #1
 23f8a6a:	2a00      	cmp	r2, #0
 23f8a6c:	d1fb      	bne.n	23f8a66 <strlen+0x2>
 23f8a6e:	1a18      	subs	r0, r3, r0
 23f8a70:	3801      	subs	r0, #1
 23f8a72:	4770      	bx	lr

023f8a74 <module_user_init>:
extern constructor_ptr_t link_constructors_location[];
extern constructor_ptr_t link_constructors_end;
#define link_constructors_size   ((unsigned long)&link_constructors_end  -  (unsigned long)&link_constructors_location )

void module_user_init()
{
 23f8a74:	b570      	push	{r4, r5, r6, lr}
    module_user_init_hook();
 23f8a76:	f004 fbf3 	bl	23fd260 <module_user_init_hook>

    // invoke constructors
    unsigned ctor_num;
    for (ctor_num=0; ctor_num < link_constructors_size/sizeof(constructor_ptr_t); ctor_num++ )
 23f8a7a:	2500      	movs	r5, #0
 23f8a7c:	4e05      	ldr	r6, [pc, #20]	; (23f8a94 <module_user_init+0x20>)
 23f8a7e:	4c06      	ldr	r4, [pc, #24]	; (23f8a98 <module_user_init+0x24>)
 23f8a80:	1ba4      	subs	r4, r4, r6
 23f8a82:	08a4      	lsrs	r4, r4, #2
 23f8a84:	42ac      	cmp	r4, r5
 23f8a86:	d100      	bne.n	23f8a8a <module_user_init+0x16>
    {
        link_constructors_location[ctor_num]();
    }
}
 23f8a88:	bd70      	pop	{r4, r5, r6, pc}
        link_constructors_location[ctor_num]();
 23f8a8a:	f856 3b04 	ldr.w	r3, [r6], #4
 23f8a8e:	4798      	blx	r3
    for (ctor_num=0; ctor_num < link_constructors_size/sizeof(constructor_ptr_t); ctor_num++ )
 23f8a90:	3501      	adds	r5, #1
 23f8a92:	e7f7      	b.n	23f8a84 <module_user_init+0x10>
 23f8a94:	023fffd0 	.word	0x023fffd0
 23f8a98:	023ffff4 	.word	0x023ffff4

023f8a9c <module_user_setup>:

/**
 * Export these functions with a fuller name so they don't clash with the setup/loop wrappers in the system module.
 */
void module_user_setup() {
    setup();
 23f8a9c:	f000 baf0 	b.w	23f9080 <setup>

023f8aa0 <module_user_loop>:
}

void module_user_loop() {
 23f8aa0:	b508      	push	{r3, lr}
    loop();
 23f8aa2:	f000 f893 	bl	23f8bcc <loop>
    _post_loop();
}
 23f8aa6:	e8bd 4008 	ldmia.w	sp!, {r3, lr}
    _post_loop();
 23f8aaa:	f004 bb91 	b.w	23fd1d0 <_post_loop>

023f8aae <_Znwj>:
 * Implement C++ new/delete operators using the heap
 */

void *operator new(size_t size)
{
	return malloc(size);
 23f8aae:	f002 bd9d 	b.w	23fb5ec <malloc>

023f8ab2 <_Znaj>:
 23f8ab2:	f002 bd9b 	b.w	23fb5ec <malloc>

023f8ab6 <_ZdaPv>:
 23f8ab6:	f002 bda7 	b.w	23fb608 <free>

023f8aba <_ZdlPvj>:
	free(p);
}

void operator delete(void *p, size_t size)
{
	free(p);
 23f8aba:	f002 bda5 	b.w	23fb608 <free>
	...

023f8ac0 <__cxa_pure_virtual>:
    return -1;
}

/* Default implementation for call made to pure virtual function. */
void __cxa_pure_virtual() {
  PANIC(PureVirtualCall,"Call on pure virtual");
 23f8ac0:	200c      	movs	r0, #12
void __cxa_pure_virtual() {
 23f8ac2:	b508      	push	{r3, lr}
  PANIC(PureVirtualCall,"Call on pure virtual");
 23f8ac4:	4a02      	ldr	r2, [pc, #8]	; (23f8ad0 <__cxa_pure_virtual+0x10>)
 23f8ac6:	4903      	ldr	r1, [pc, #12]	; (23f8ad4 <__cxa_pure_virtual+0x14>)
 23f8ac8:	f002 fba6 	bl	23fb218 <panic_>
  while (1);
 23f8acc:	e7fe      	b.n	23f8acc <__cxa_pure_virtual+0xc>
 23f8ace:	bf00      	nop
 23f8ad0:	023fabf9 	.word	0x023fabf9
 23f8ad4:	023febbc 	.word	0x023febbc

023f8ad8 <__cxa_guard_acquire>:

/* Provide default implemenation for __cxa_guard_acquire() and
 * __cxa_guard_release(). Note: these must be revisited if a multitasking
 * OS is ported to this platform. */
__extension__ typedef int __guard __attribute__((mode (__DI__)));
int __cxa_guard_acquire(__guard *g) {return !*(char *)(g);};
 23f8ad8:	7800      	ldrb	r0, [r0, #0]
 23f8ada:	fab0 f080 	clz	r0, r0
 23f8ade:	0940      	lsrs	r0, r0, #5
 23f8ae0:	4770      	bx	lr

023f8ae2 <__cxa_guard_release>:
void __cxa_guard_release (__guard *g) {*(char *)g = 1;};
 23f8ae2:	2301      	movs	r3, #1
 23f8ae4:	7003      	strb	r3, [r0, #0]
 23f8ae6:	4770      	bx	lr

023f8ae8 <_ZN5spark10LogHandler5writeEPKcj>:
    }
}

inline void spark::LogHandler::write(const char *data, size_t size) {
    // Default implementation does nothing
}
 23f8ae8:	4770      	bx	lr
	...

023f8aec <_Z12handleButtonv>:
        Log.info("Closed dir");
    }
}

void handleButton() {
    buttonPress = true;
 23f8aec:	2201      	movs	r2, #1
 23f8aee:	4b01      	ldr	r3, [pc, #4]	; (23f8af4 <_Z12handleButtonv+0x8>)
 23f8af0:	701a      	strb	r2, [r3, #0]
}
 23f8af2:	4770      	bx	lr
 23f8af4:	1007adc8 	.word	0x1007adc8

023f8af8 <_ZN5spark16SerialLogHandlerD1Ev>:
            StreamLogHandler(Serial, level, filters) {
        Serial.begin(baud);
        LogManager::instance()->addHandler(this);
    }

    virtual ~SerialLogHandler() {
 23f8af8:	b510      	push	{r4, lr}
 23f8afa:	4604      	mov	r4, r0
 23f8afc:	4b09      	ldr	r3, [pc, #36]	; (23f8b24 <_ZN5spark16SerialLogHandlerD1Ev+0x2c>)
 23f8afe:	6003      	str	r3, [r0, #0]
        LogManager::instance()->removeHandler(this);
 23f8b00:	f003 fcf0 	bl	23fc4e4 <_ZN5spark10LogManager8instanceEv>
 23f8b04:	4621      	mov	r1, r4
 23f8b06:	f003 ff27 	bl	23fc958 <_ZN5spark10LogManager13removeHandlerEPNS_10LogHandlerE>
        Serial.end();
 23f8b0a:	f004 ff4d 	bl	23fd9a8 <_Z16_fetch_usbserialv>
 23f8b0e:	f004 ff3d 	bl	23fd98c <_ZN9USBSerial3endEv>
    virtual ~LogHandler() = default;
 23f8b12:	4620      	mov	r0, r4
 23f8b14:	4b04      	ldr	r3, [pc, #16]	; (23f8b28 <_ZN5spark16SerialLogHandlerD1Ev+0x30>)
 23f8b16:	f840 3b04 	str.w	r3, [r0], #4
 23f8b1a:	f003 fdb9 	bl	23fc690 <_ZN5spark6detail9LogFilterD1Ev>
    }
 23f8b1e:	4620      	mov	r0, r4
 23f8b20:	bd10      	pop	{r4, pc}
 23f8b22:	bf00      	nop
 23f8b24:	023fecec 	.word	0x023fecec
 23f8b28:	023fecd4 	.word	0x023fecd4

023f8b2c <_ZN5spark16SerialLogHandlerD0Ev>:
    virtual ~SerialLogHandler() {
 23f8b2c:	b510      	push	{r4, lr}
 23f8b2e:	4604      	mov	r4, r0
    }
 23f8b30:	f7ff ffe2 	bl	23f8af8 <_ZN5spark16SerialLogHandlerD1Ev>
 23f8b34:	4620      	mov	r0, r4
 23f8b36:	2124      	movs	r1, #36	; 0x24
 23f8b38:	f7ff ffbf 	bl	23f8aba <_ZdlPvj>
 23f8b3c:	4620      	mov	r0, r4
 23f8b3e:	bd10      	pop	{r4, pc}

023f8b40 <_ZNK5spark6Logger4infoEPKcz>:
    va_start(args, fmt);
    log(LOG_LEVEL_TRACE, fmt, args);
    va_end(args);
}

inline void spark::Logger::info(const char *fmt, ...) const {
 23f8b40:	b40e      	push	{r1, r2, r3}
}

inline void spark::Logger::log(LogLevel level, const char *fmt, va_list args) const {
    LogAttributes attr;
    attr.size = sizeof(LogAttributes);
    attr.flags = 0;
 23f8b42:	f04f 0c20 	mov.w	ip, #32
 23f8b46:	2300      	movs	r3, #0
inline void spark::Logger::info(const char *fmt, ...) const {
 23f8b48:	b500      	push	{lr}
 23f8b4a:	b08c      	sub	sp, #48	; 0x30
 23f8b4c:	aa0d      	add	r2, sp, #52	; 0x34
 23f8b4e:	f852 1b04 	ldr.w	r1, [r2], #4
    attr.flags = 0;
 23f8b52:	e9cd c304 	strd	ip, r3, [sp, #16]
    log_message_v(level, name_, &attr, nullptr, fmt, args);
 23f8b56:	e9cd 1200 	strd	r1, r2, [sp]
    va_start(args, fmt);
 23f8b5a:	9203      	str	r2, [sp, #12]
    log_message_v(level, name_, &attr, nullptr, fmt, args);
 23f8b5c:	6801      	ldr	r1, [r0, #0]
 23f8b5e:	aa04      	add	r2, sp, #16
 23f8b60:	201e      	movs	r0, #30
 23f8b62:	f002 fb67 	bl	23fb234 <log_message_v>
}
 23f8b66:	b00c      	add	sp, #48	; 0x30
 23f8b68:	f85d eb04 	ldr.w	lr, [sp], #4
 23f8b6c:	b003      	add	sp, #12
 23f8b6e:	4770      	bx	lr

023f8b70 <_ZNK5spark6Logger5errorEPKcz>:
inline void spark::Logger::error(const char *fmt, ...) const {
 23f8b70:	b40e      	push	{r1, r2, r3}
    attr.flags = 0;
 23f8b72:	f04f 0c20 	mov.w	ip, #32
 23f8b76:	2300      	movs	r3, #0
inline void spark::Logger::error(const char *fmt, ...) const {
 23f8b78:	b500      	push	{lr}
 23f8b7a:	b08c      	sub	sp, #48	; 0x30
 23f8b7c:	aa0d      	add	r2, sp, #52	; 0x34
 23f8b7e:	f852 1b04 	ldr.w	r1, [r2], #4
    attr.flags = 0;
 23f8b82:	e9cd c304 	strd	ip, r3, [sp, #16]
    log_message_v(level, name_, &attr, nullptr, fmt, args);
 23f8b86:	e9cd 1200 	strd	r1, r2, [sp]
    va_start(args, fmt);
 23f8b8a:	9203      	str	r2, [sp, #12]
    log_message_v(level, name_, &attr, nullptr, fmt, args);
 23f8b8c:	6801      	ldr	r1, [r0, #0]
 23f8b8e:	aa04      	add	r2, sp, #16
 23f8b90:	2032      	movs	r0, #50	; 0x32
 23f8b92:	f002 fb4f 	bl	23fb234 <log_message_v>
}
 23f8b96:	b00c      	add	sp, #48	; 0x30
 23f8b98:	f85d eb04 	ldr.w	lr, [sp], #4
 23f8b9c:	b003      	add	sp, #12
 23f8b9e:	4770      	bx	lr

023f8ba0 <_ZNSt14__shared_countILN9__gnu_cxx12_Lock_policyE0EED1Ev>:
      explicit __shared_count(const __weak_count<_Lp>& __r);

      // Does not throw if __r._M_get_use_count() == 0, caller must check.
      explicit __shared_count(const __weak_count<_Lp>& __r, std::nothrow_t);

      ~__shared_count() noexcept
 23f8ba0:	b538      	push	{r3, r4, r5, lr}
      {
	if (_M_pi != nullptr)
 23f8ba2:	6804      	ldr	r4, [r0, #0]
      ~__shared_count() noexcept
 23f8ba4:	4605      	mov	r5, r0
	if (_M_pi != nullptr)
 23f8ba6:	b17c      	cbz	r4, 23f8bc8 <_ZNSt14__shared_countILN9__gnu_cxx12_Lock_policyE0EED1Ev+0x28>
      if (--_M_use_count == 0)
 23f8ba8:	6863      	ldr	r3, [r4, #4]
 23f8baa:	3b01      	subs	r3, #1
 23f8bac:	6063      	str	r3, [r4, #4]
 23f8bae:	b95b      	cbnz	r3, 23f8bc8 <_ZNSt14__shared_countILN9__gnu_cxx12_Lock_policyE0EED1Ev+0x28>
          _M_dispose();
 23f8bb0:	6823      	ldr	r3, [r4, #0]
 23f8bb2:	4620      	mov	r0, r4
 23f8bb4:	689b      	ldr	r3, [r3, #8]
 23f8bb6:	4798      	blx	r3
          if (--_M_weak_count == 0)
 23f8bb8:	68a3      	ldr	r3, [r4, #8]
 23f8bba:	3b01      	subs	r3, #1
 23f8bbc:	60a3      	str	r3, [r4, #8]
 23f8bbe:	b91b      	cbnz	r3, 23f8bc8 <_ZNSt14__shared_countILN9__gnu_cxx12_Lock_policyE0EED1Ev+0x28>
            _M_destroy();
 23f8bc0:	6823      	ldr	r3, [r4, #0]
 23f8bc2:	4620      	mov	r0, r4
 23f8bc4:	68db      	ldr	r3, [r3, #12]
 23f8bc6:	4798      	blx	r3
	  _M_pi->_M_release();
      }
 23f8bc8:	4628      	mov	r0, r5
 23f8bca:	bd38      	pop	{r3, r4, r5, pc}

023f8bcc <loop>:
void loop() {
 23f8bcc:	b530      	push	{r4, r5, lr}
 23f8bce:	b085      	sub	sp, #20

#ifdef __cplusplus
extern "C" {
#endif

inline system_tick_t millis(void) { return HAL_Timer_Get_Milli_Seconds(); }
 23f8bd0:	f002 f820 	bl	23fac14 <HAL_Timer_Get_Milli_Seconds>
    if (millis() - lastAdDisplayMs >= AdSwitchDelayMs) {
 23f8bd4:	4c3d      	ldr	r4, [pc, #244]	; (23f8ccc <loop+0x100>)
 23f8bd6:	6823      	ldr	r3, [r4, #0]
 23f8bd8:	1ac0      	subs	r0, r0, r3
 23f8bda:	f5b0 6f7a 	cmp.w	r0, #4000	; 0xfa0
 23f8bde:	d31c      	bcc.n	23f8c1a <loop+0x4e>

      // [23.2.4.2] capacity
      /**  Returns the number of elements in the %vector.  */
      size_type
      size() const _GLIBCXX_NOEXCEPT
      { return size_type(this->_M_impl._M_finish - this->_M_impl._M_start); }
 23f8be0:	4d3b      	ldr	r5, [pc, #236]	; (23f8cd0 <loop+0x104>)
        if (adFileNames.size() > 0) {
 23f8be2:	e9d5 2300 	ldrd	r2, r3, [r5]
 23f8be6:	429a      	cmp	r2, r3
 23f8be8:	d014      	beq.n	23f8c14 <loop+0x48>
            Log.info("draw bitmap start");
 23f8bea:	493a      	ldr	r1, [pc, #232]	; (23f8cd4 <loop+0x108>)
 23f8bec:	483a      	ldr	r0, [pc, #232]	; (23f8cd8 <loop+0x10c>)
 23f8bee:	f7ff ffa7 	bl	23f8b40 <_ZNK5spark6Logger4infoEPKcz>
            bitmap.drawBitmap(adFileNames[currentAd++ % adFileNames.size()].c_str());
 23f8bf2:	4a3a      	ldr	r2, [pc, #232]	; (23f8cdc <loop+0x110>)
 23f8bf4:	7813      	ldrb	r3, [r2, #0]
 23f8bf6:	1c59      	adds	r1, r3, #1
 23f8bf8:	7011      	strb	r1, [r2, #0]
 23f8bfa:	e9d5 1200 	ldrd	r1, r2, [r5]
 23f8bfe:	1a52      	subs	r2, r2, r1
 23f8c00:	1112      	asrs	r2, r2, #4
 23f8c02:	fbb3 f0f2 	udiv	r0, r3, r2
 23f8c06:	fb02 3310 	mls	r3, r2, r0, r3
	char operator [] (unsigned int index) const;
	char& operator [] (unsigned int index);
	void getBytes(unsigned char *buf, unsigned int bufsize, unsigned int index=0) const;
	void toCharArray(char *buf, unsigned int bufsize, unsigned int index=0) const
		{getBytes((unsigned char *)buf, bufsize, index);}
	const char * c_str() const { return buffer; }
 23f8c0a:	011b      	lsls	r3, r3, #4
 23f8c0c:	58c9      	ldr	r1, [r1, r3]
 23f8c0e:	4834      	ldr	r0, [pc, #208]	; (23f8ce0 <loop+0x114>)
 23f8c10:	f001 fb4c 	bl	23fa2ac <_ZN6Bitmap10drawBitmapEPKc>
 23f8c14:	f001 fffe 	bl	23fac14 <HAL_Timer_Get_Milli_Seconds>
        lastAdDisplayMs = millis();
 23f8c18:	6020      	str	r0, [r4, #0]
    if (buttonPress) {
 23f8c1a:	4b32      	ldr	r3, [pc, #200]	; (23f8ce4 <loop+0x118>)
 23f8c1c:	781b      	ldrb	r3, [r3, #0]
 23f8c1e:	b1e3      	cbz	r3, 23f8c5a <loop+0x8e>
        digitalWrite(ButtonLedPin, LOW);
 23f8c20:	2100      	movs	r1, #0
 23f8c22:	2005      	movs	r0, #5
 23f8c24:	f005 fb1d 	bl	23fe262 <digitalWrite>
inline particle::Flags<TagT, ValueT>::Flags(Flag<TagT, ValueT> flag) :
        val_(flag.value()) {
}

template<typename TagT, typename ValueT>
inline particle::Flags<TagT, ValueT>::Flags(ValueT val) :
 23f8c28:	4b2f      	ldr	r3, [pc, #188]	; (23f8ce8 <loop+0x11c>)
        return publish(eventName, eventData, DEFAULT_CLOUD_EVENT_TTL, flags1, flags2);
    }

    inline particle::Future<bool> publish(const char *eventName, const char *eventData, int ttl, PublishFlags flags1, PublishFlags flags2 = PublishFlags())
    {
        return publish_event(eventName, eventData, ttl, flags1 | flags2);
 23f8c2a:	2200      	movs	r2, #0
 23f8c2c:	781b      	ldrb	r3, [r3, #0]
 23f8c2e:	492f      	ldr	r1, [pc, #188]	; (23f8cec <loop+0x120>)
 23f8c30:	f88d 3000 	strb.w	r3, [sp]
 23f8c34:	a802      	add	r0, sp, #8
 23f8c36:	233c      	movs	r3, #60	; 0x3c
 23f8c38:	f004 fc70 	bl	23fd51c <_ZN10CloudClass13publish_eventEPKcS1_iN8particle5FlagsI15PublishFlagTypehEE>
	  __r._M_ptr = 0;
	}

      __shared_ptr(const __shared_ptr&) noexcept = default;
      __shared_ptr& operator=(const __shared_ptr&) noexcept = default;
      ~__shared_ptr() = default;
 23f8c3c:	a803      	add	r0, sp, #12
 23f8c3e:	f7ff ffaf 	bl	23f8ba0 <_ZNSt14__shared_countILN9__gnu_cxx12_Lock_policyE0EED1Ev>
        bitmap.drawBitmap("qrcode.bmp");
 23f8c42:	492b      	ldr	r1, [pc, #172]	; (23f8cf0 <loop+0x124>)
 23f8c44:	4826      	ldr	r0, [pc, #152]	; (23f8ce0 <loop+0x114>)
 23f8c46:	f001 fb31 	bl	23fa2ac <_ZN6Bitmap10drawBitmapEPKc>
        delay(6000);
 23f8c4a:	f241 7070 	movw	r0, #6000	; 0x1770
 23f8c4e:	f004 fa87 	bl	23fd160 <delay>
        digitalWrite(ButtonLedPin, HIGH);
 23f8c52:	2101      	movs	r1, #1
 23f8c54:	2005      	movs	r0, #5
 23f8c56:	f005 fb04 	bl	23fe262 <digitalWrite>
    distanceSensor.startRanging();
 23f8c5a:	4826      	ldr	r0, [pc, #152]	; (23f8cf4 <loop+0x128>)
 23f8c5c:	f001 ff2b 	bl	23faab6 <_ZN10SFEVL53L1X12startRangingEv>
    while (!distanceSensor.checkForDataReady()) {
 23f8c60:	4d24      	ldr	r5, [pc, #144]	; (23f8cf4 <loop+0x128>)
 23f8c62:	4628      	mov	r0, r5
 23f8c64:	f001 ff2d 	bl	23faac2 <_ZN10SFEVL53L1X17checkForDataReadyEv>
 23f8c68:	b918      	cbnz	r0, 23f8c72 <loop+0xa6>
        delay (1);
 23f8c6a:	2001      	movs	r0, #1
 23f8c6c:	f004 fa78 	bl	23fd160 <delay>
    while (!distanceSensor.checkForDataReady()) {
 23f8c70:	e7f7      	b.n	23f8c62 <loop+0x96>
    int distance = distanceSensor.getDistance();
 23f8c72:	4820      	ldr	r0, [pc, #128]	; (23f8cf4 <loop+0x128>)
 23f8c74:	f001 ff37 	bl	23faae6 <_ZN10SFEVL53L1X11getDistanceEv>
 23f8c78:	4605      	mov	r5, r0
    distanceSensor.clearInterrupt();
 23f8c7a:	481e      	ldr	r0, [pc, #120]	; (23f8cf4 <loop+0x128>)
 23f8c7c:	f001 ff18 	bl	23faab0 <_ZN10SFEVL53L1X14clearInterruptEv>
    distanceSensor.stopRanging();
 23f8c80:	481c      	ldr	r0, [pc, #112]	; (23f8cf4 <loop+0x128>)
 23f8c82:	f001 ff1b 	bl	23faabc <_ZN10SFEVL53L1X11stopRangingEv>
    Log.info("Distance (mm) = %d", distance);
 23f8c86:	462a      	mov	r2, r5
 23f8c88:	491b      	ldr	r1, [pc, #108]	; (23f8cf8 <loop+0x12c>)
 23f8c8a:	4813      	ldr	r0, [pc, #76]	; (23f8cd8 <loop+0x10c>)
 23f8c8c:	f7ff ff58 	bl	23f8b40 <_ZNK5spark6Logger4infoEPKcz>
    if (distance <= ImpressionDistanceThresholdMM &&
 23f8c90:	f5b5 7ffa 	cmp.w	r5, #500	; 0x1f4
 23f8c94:	dc17      	bgt.n	23f8cc6 <loop+0xfa>
 23f8c96:	f001 ffbd 	bl	23fac14 <HAL_Timer_Get_Milli_Seconds>
        millis() - lastAdDisplayMs >= ImpressionDelayMs) {
 23f8c9a:	6823      	ldr	r3, [r4, #0]
 23f8c9c:	1ac0      	subs	r0, r0, r3
    if (distance <= ImpressionDistanceThresholdMM &&
 23f8c9e:	f241 736f 	movw	r3, #5999	; 0x176f
 23f8ca2:	4298      	cmp	r0, r3
 23f8ca4:	d90f      	bls.n	23f8cc6 <loop+0xfa>
 23f8ca6:	f001 ffb5 	bl	23fac14 <HAL_Timer_Get_Milli_Seconds>
 23f8caa:	4b0f      	ldr	r3, [pc, #60]	; (23f8ce8 <loop+0x11c>)
        lastAdDisplayMs = millis();
 23f8cac:	6020      	str	r0, [r4, #0]
 23f8cae:	781b      	ldrb	r3, [r3, #0]
 23f8cb0:	a802      	add	r0, sp, #8
 23f8cb2:	f88d 3000 	strb.w	r3, [sp]
 23f8cb6:	2200      	movs	r2, #0
 23f8cb8:	233c      	movs	r3, #60	; 0x3c
 23f8cba:	4910      	ldr	r1, [pc, #64]	; (23f8cfc <loop+0x130>)
 23f8cbc:	f004 fc2e 	bl	23fd51c <_ZN10CloudClass13publish_eventEPKcS1_iN8particle5FlagsI15PublishFlagTypehEE>
 23f8cc0:	a803      	add	r0, sp, #12
 23f8cc2:	f7ff ff6d 	bl	23f8ba0 <_ZNSt14__shared_countILN9__gnu_cxx12_Lock_policyE0EED1Ev>
}
 23f8cc6:	b005      	add	sp, #20
 23f8cc8:	bd30      	pop	{r4, r5, pc}
 23f8cca:	bf00      	nop
 23f8ccc:	1007ade0 	.word	0x1007ade0
 23f8cd0:	1007adb4 	.word	0x1007adb4
 23f8cd4:	023febd1 	.word	0x023febd1
 23f8cd8:	1007ae7c 	.word	0x1007ae7c
 23f8cdc:	1007adc9 	.word	0x1007adc9
 23f8ce0:	1007adc4 	.word	0x1007adc4
 23f8ce4:	1007adc8 	.word	0x1007adc8
 23f8ce8:	1007adc0 	.word	0x1007adc0
 23f8cec:	023febe3 	.word	0x023febe3
 23f8cf0:	023febf3 	.word	0x023febf3
 23f8cf4:	1007adcc 	.word	0x1007adcc
 23f8cf8:	023febfe 	.word	0x023febfe
 23f8cfc:	023fec11 	.word	0x023fec11

023f8d00 <_ZN5spark6VectorINS_17LogCategoryFilterENS_16DefaultAllocatorEED1Ev>:
inline spark::Vector<T, AllocatorT>::Vector(Vector<T, AllocatorT>&& vector) : Vector() {
    swap(*this, vector);
}

template<typename T, typename AllocatorT>
inline spark::Vector<T, AllocatorT>::~Vector() {
 23f8d00:	b570      	push	{r4, r5, r6, lr}
    destruct(data_, data_ + size_);
 23f8d02:	2614      	movs	r6, #20
 23f8d04:	e9d0 5300 	ldrd	r5, r3, [r0]
inline spark::Vector<T, AllocatorT>::~Vector() {
 23f8d08:	4604      	mov	r4, r0
    destruct(data_, data_ + size_);
 23f8d0a:	fb06 5603 	mla	r6, r6, r3, r5
        for (; p != end; ++p) {
 23f8d0e:	42ae      	cmp	r6, r5
 23f8d10:	d004      	beq.n	23f8d1c <_ZN5spark6VectorINS_17LogCategoryFilterENS_16DefaultAllocatorEED1Ev+0x1c>
class LogCategoryFilter {
 23f8d12:	4628      	mov	r0, r5
 23f8d14:	f002 ff24 	bl	23fbb60 <_ZN6StringD1Ev>
 23f8d18:	3514      	adds	r5, #20
 23f8d1a:	e7f8      	b.n	23f8d0e <_ZN5spark6VectorINS_17LogCategoryFilterENS_16DefaultAllocatorEED1Ev+0xe>
    ::free(ptr);
 23f8d1c:	6820      	ldr	r0, [r4, #0]
 23f8d1e:	f002 fc73 	bl	23fb608 <free>
    AllocatorT::free(data_);
}
 23f8d22:	4620      	mov	r0, r4
 23f8d24:	bd70      	pop	{r4, r5, r6, pc}

023f8d26 <_ZN5spark6VectorIN8particle16ApplicationAssetENS_16DefaultAllocatorEED1Ev>:
inline spark::Vector<T, AllocatorT>::~Vector() {
 23f8d26:	b570      	push	{r4, r5, r6, lr}
 23f8d28:	4604      	mov	r4, r0
    destruct(data_, data_ + size_);
 23f8d2a:	e9d0 5300 	ldrd	r5, r3, [r0]
 23f8d2e:	eb05 1683 	add.w	r6, r5, r3, lsl #6
        for (; p != end; ++p) {
 23f8d32:	42ae      	cmp	r6, r5
 23f8d34:	d005      	beq.n	23f8d42 <_ZN5spark6VectorIN8particle16ApplicationAssetENS_16DefaultAllocatorEED1Ev+0x1c>
            p->~T();
 23f8d36:	682b      	ldr	r3, [r5, #0]
 23f8d38:	4628      	mov	r0, r5
 23f8d3a:	681b      	ldr	r3, [r3, #0]
 23f8d3c:	4798      	blx	r3
        for (; p != end; ++p) {
 23f8d3e:	3540      	adds	r5, #64	; 0x40
 23f8d40:	e7f7      	b.n	23f8d32 <_ZN5spark6VectorIN8particle16ApplicationAssetENS_16DefaultAllocatorEED1Ev+0xc>
    ::free(ptr);
 23f8d42:	6820      	ldr	r0, [r4, #0]
 23f8d44:	f002 fc60 	bl	23fb608 <free>
}
 23f8d48:	4620      	mov	r0, r4
 23f8d4a:	bd70      	pop	{r4, r5, r6, pc}

023f8d4c <_ZN5spark6VectorINS_17LogCategoryFilterENS_16DefaultAllocatorEE4moveIS1_Li0EEEvPS1_S5_S5_>:
        if (dest > p && dest < end) {
 23f8d4c:	4288      	cmp	r0, r1
    static void move(T* dest, T* p, T* end) {
 23f8d4e:	b5f8      	push	{r3, r4, r5, r6, r7, lr}
 23f8d50:	4604      	mov	r4, r0
 23f8d52:	460d      	mov	r5, r1
 23f8d54:	4616      	mov	r6, r2
        if (dest > p && dest < end) {
 23f8d56:	d916      	bls.n	23f8d86 <_ZN5spark6VectorINS_17LogCategoryFilterENS_16DefaultAllocatorEE4moveIS1_Li0EEEvPS1_S5_S5_+0x3a>
 23f8d58:	4290      	cmp	r0, r2
 23f8d5a:	d215      	bcs.n	23f8d88 <_ZN5spark6VectorINS_17LogCategoryFilterENS_16DefaultAllocatorEE4moveIS1_Li0EEEvPS1_S5_S5_+0x3c>
            --end;
 23f8d5c:	f1a2 0614 	sub.w	r6, r2, #20
            dest += end - p - 1;
 23f8d60:	1a75      	subs	r5, r6, r1
 23f8d62:	f1a1 0714 	sub.w	r7, r1, #20
 23f8d66:	442c      	add	r4, r5
            for (; end != p; --end, --dest) {
 23f8d68:	42b7      	cmp	r7, r6
 23f8d6a:	d01c      	beq.n	23f8da6 <_ZN5spark6VectorINS_17LogCategoryFilterENS_16DefaultAllocatorEE4moveIS1_Li0EEEvPS1_S5_S5_+0x5a>
                new(dest) T(std::move(*end));
 23f8d6c:	b12c      	cbz	r4, 23f8d7a <_ZN5spark6VectorINS_17LogCategoryFilterENS_16DefaultAllocatorEE4moveIS1_Li0EEEvPS1_S5_S5_+0x2e>
 23f8d6e:	4631      	mov	r1, r6
 23f8d70:	4620      	mov	r0, r4
 23f8d72:	f002 ff72 	bl	23fbc5a <_ZN6StringC1EOS_>
 23f8d76:	7c33      	ldrb	r3, [r6, #16]
 23f8d78:	7423      	strb	r3, [r4, #16]
 23f8d7a:	4630      	mov	r0, r6
 23f8d7c:	f002 fef0 	bl	23fbb60 <_ZN6StringD1Ev>
            for (; end != p; --end, --dest) {
 23f8d80:	3e14      	subs	r6, #20
 23f8d82:	3c14      	subs	r4, #20
 23f8d84:	e7f0      	b.n	23f8d68 <_ZN5spark6VectorINS_17LogCategoryFilterENS_16DefaultAllocatorEE4moveIS1_Li0EEEvPS1_S5_S5_+0x1c>
        } else if (dest != p) {
 23f8d86:	d00e      	beq.n	23f8da6 <_ZN5spark6VectorINS_17LogCategoryFilterENS_16DefaultAllocatorEE4moveIS1_Li0EEEvPS1_S5_S5_+0x5a>
            for (; p != end; ++p, ++dest) {
 23f8d88:	42b5      	cmp	r5, r6
 23f8d8a:	d00c      	beq.n	23f8da6 <_ZN5spark6VectorINS_17LogCategoryFilterENS_16DefaultAllocatorEE4moveIS1_Li0EEEvPS1_S5_S5_+0x5a>
                new(dest) T(std::move(*p));
 23f8d8c:	b12c      	cbz	r4, 23f8d9a <_ZN5spark6VectorINS_17LogCategoryFilterENS_16DefaultAllocatorEE4moveIS1_Li0EEEvPS1_S5_S5_+0x4e>
 23f8d8e:	4629      	mov	r1, r5
 23f8d90:	4620      	mov	r0, r4
 23f8d92:	f002 ff62 	bl	23fbc5a <_ZN6StringC1EOS_>
 23f8d96:	7c2b      	ldrb	r3, [r5, #16]
 23f8d98:	7423      	strb	r3, [r4, #16]
 23f8d9a:	4628      	mov	r0, r5
 23f8d9c:	f002 fee0 	bl	23fbb60 <_ZN6StringD1Ev>
            for (; p != end; ++p, ++dest) {
 23f8da0:	3514      	adds	r5, #20
 23f8da2:	3414      	adds	r4, #20
 23f8da4:	e7f0      	b.n	23f8d88 <_ZN5spark6VectorINS_17LogCategoryFilterENS_16DefaultAllocatorEE4moveIS1_Li0EEEvPS1_S5_S5_+0x3c>
    }
 23f8da6:	bdf8      	pop	{r3, r4, r5, r6, r7, pc}

023f8da8 <_ZN5spark6VectorINS_17LogCategoryFilterENS_16DefaultAllocatorEEC1ERKS3_>:
        capacity_(0) {
 23f8da8:	2300      	movs	r3, #0
inline spark::Vector<T, AllocatorT>::Vector(const Vector<T, AllocatorT>& vector) : Vector() {
 23f8daa:	e92d 41f0 	stmdb	sp!, {r4, r5, r6, r7, r8, lr}
        capacity_(0) {
 23f8dae:	e9c0 3300 	strd	r3, r3, [r0]
 23f8db2:	6083      	str	r3, [r0, #8]
    if (vector.size_ > 0 && realloc(vector.size_)) {
 23f8db4:	684f      	ldr	r7, [r1, #4]
inline spark::Vector<T, AllocatorT>::Vector(const Vector<T, AllocatorT>& vector) : Vector() {
 23f8db6:	4604      	mov	r4, r0
    if (vector.size_ > 0 && realloc(vector.size_)) {
 23f8db8:	429f      	cmp	r7, r3
inline spark::Vector<T, AllocatorT>::Vector(const Vector<T, AllocatorT>& vector) : Vector() {
 23f8dba:	460e      	mov	r6, r1
    if (vector.size_ > 0 && realloc(vector.size_)) {
 23f8dbc:	dd24      	ble.n	23f8e08 <_ZN5spark6VectorINS_17LogCategoryFilterENS_16DefaultAllocatorEEC1ERKS3_+0x60>
            d = (T*)AllocatorT::malloc(n * sizeof(T));
 23f8dbe:	f04f 0814 	mov.w	r8, #20
    return ::malloc(size);
 23f8dc2:	fb08 f007 	mul.w	r0, r8, r7
 23f8dc6:	f002 fc11 	bl	23fb5ec <malloc>
            if (!d) {
 23f8dca:	4605      	mov	r5, r0
 23f8dcc:	b1e0      	cbz	r0, 23f8e08 <_ZN5spark6VectorINS_17LogCategoryFilterENS_16DefaultAllocatorEEC1ERKS3_+0x60>
            move(d, data_, data_ + size_);
 23f8dce:	e9d4 1200 	ldrd	r1, r2, [r4]
 23f8dd2:	fb08 1202 	mla	r2, r8, r2, r1
 23f8dd6:	f7ff ffb9 	bl	23f8d4c <_ZN5spark6VectorINS_17LogCategoryFilterENS_16DefaultAllocatorEE4moveIS1_Li0EEEvPS1_S5_S5_>
    ::free(ptr);
 23f8dda:	6820      	ldr	r0, [r4, #0]
 23f8ddc:	f002 fc14 	bl	23fb608 <free>
        data_ = d;
 23f8de0:	6025      	str	r5, [r4, #0]
        capacity_ = n;
 23f8de2:	60a7      	str	r7, [r4, #8]
        copy(data_, vector.data_, vector.data_ + vector.size_);
 23f8de4:	e9d6 7300 	ldrd	r7, r3, [r6]
 23f8de8:	fb08 7803 	mla	r8, r8, r3, r7
        for (; it != end; ++it, ++dest) {
 23f8dec:	45b8      	cmp	r8, r7
 23f8dee:	d009      	beq.n	23f8e04 <_ZN5spark6VectorINS_17LogCategoryFilterENS_16DefaultAllocatorEEC1ERKS3_+0x5c>
 23f8df0:	4639      	mov	r1, r7
 23f8df2:	4628      	mov	r0, r5
 23f8df4:	f002 ff4b 	bl	23fbc8e <_ZN6StringC1ERKS_>
 23f8df8:	7c3b      	ldrb	r3, [r7, #16]
 23f8dfa:	3514      	adds	r5, #20
 23f8dfc:	f805 3c04 	strb.w	r3, [r5, #-4]
 23f8e00:	3714      	adds	r7, #20
 23f8e02:	e7f3      	b.n	23f8dec <_ZN5spark6VectorINS_17LogCategoryFilterENS_16DefaultAllocatorEEC1ERKS3_+0x44>
        size_ = vector.size_;
 23f8e04:	6873      	ldr	r3, [r6, #4]
 23f8e06:	6063      	str	r3, [r4, #4]
}
 23f8e08:	4620      	mov	r0, r4
 23f8e0a:	e8bd 81f0 	ldmia.w	sp!, {r4, r5, r6, r7, r8, pc}
	...

023f8e10 <_ZNSt6vectorI6StringSaIS0_EE17_M_realloc_insertIJS0_EEEvN9__gnu_cxx17__normal_iteratorIPS0_S2_EEDpOT_>:

      // Called by _M_fill_insert, _M_insert_aux etc.
      size_type
      _M_check_len(size_type __n, const char* __s) const
      {
	if (max_size() - size() < __n)
 23f8e10:	f06f 4378 	mvn.w	r3, #4160749568	; 0xf8000000

#if __cplusplus >= 201103L
  template<typename _Tp, typename _Alloc>
    template<typename... _Args>
      void
      vector<_Tp, _Alloc>::
 23f8e14:	e92d 4ff7 	stmdb	sp!, {r0, r1, r2, r4, r5, r6, r7, r8, r9, sl, fp, lr}
 23f8e18:	468b      	mov	fp, r1
      { return size_type(this->_M_impl._M_finish - this->_M_impl._M_start); }
 23f8e1a:	e9d0 9a00 	ldrd	r9, sl, [r0]
 23f8e1e:	4611      	mov	r1, r2
 23f8e20:	ebaa 0209 	sub.w	r2, sl, r9
	if (max_size() - size() < __n)
 23f8e24:	ebb3 1f22 	cmp.w	r3, r2, asr #4
 23f8e28:	4680      	mov	r8, r0
      { return size_type(this->_M_impl._M_finish - this->_M_impl._M_start); }
 23f8e2a:	ea4f 1422 	mov.w	r4, r2, asr #4
	if (max_size() - size() < __n)
 23f8e2e:	d102      	bne.n	23f8e36 <_ZNSt6vectorI6StringSaIS0_EE17_M_realloc_insertIJS0_EEEvN9__gnu_cxx17__normal_iteratorIPS0_S2_EEDpOT_+0x26>
	  __throw_length_error(__N(__s));
 23f8e30:	4826      	ldr	r0, [pc, #152]	; (23f8ecc <_ZNSt6vectorI6StringSaIS0_EE17_M_realloc_insertIJS0_EEEvN9__gnu_cxx17__normal_iteratorIPS0_S2_EEDpOT_+0xbc>)
 23f8e32:	f005 fb33 	bl	23fe49c <_ZSt20__throw_length_errorPKc>
 23f8e36:	2c01      	cmp	r4, #1
 23f8e38:	4622      	mov	r2, r4
 23f8e3a:	bf38      	it	cc
 23f8e3c:	2201      	movcc	r2, #1
 23f8e3e:	18a4      	adds	r4, r4, r2
    _GLIBCXX20_CONSTEXPR
    inline typename __normal_iterator<_Iterator, _Container>::difference_type
    operator-(const __normal_iterator<_Iterator, _Container>& __lhs,
	      const __normal_iterator<_Iterator, _Container>& __rhs)
    _GLIBCXX_NOEXCEPT
    { return __lhs.base() - __rhs.base(); }
 23f8e40:	ebab 0609 	sub.w	r6, fp, r9

	const size_type __len = size() + (std::max)(size(), __n);
	return (__len < size() || __len > max_size()) ? max_size() : __len;
 23f8e44:	d21a      	bcs.n	23f8e7c <_ZNSt6vectorI6StringSaIS0_EE17_M_realloc_insertIJS0_EEEvN9__gnu_cxx17__normal_iteratorIPS0_S2_EEDpOT_+0x6c>
	return __n != 0 ? _Tr::allocate(_M_impl, __n) : pointer();
 23f8e46:	b1dc      	cbz	r4, 23f8e80 <_ZNSt6vectorI6StringSaIS0_EE17_M_realloc_insertIJS0_EEEvN9__gnu_cxx17__normal_iteratorIPS0_S2_EEDpOT_+0x70>
 23f8e48:	429c      	cmp	r4, r3
 23f8e4a:	bf28      	it	cs
 23f8e4c:	461c      	movcs	r4, r3
	  {
	    std::align_val_t __al = std::align_val_t(alignof(_Tp));
	    return static_cast<_Tp*>(::operator new(__n * sizeof(_Tp), __al));
	  }
#endif
	return static_cast<_Tp*>(::operator new(__n * sizeof(_Tp)));
 23f8e4e:	0120      	lsls	r0, r4, #4
 23f8e50:	9101      	str	r1, [sp, #4]
 23f8e52:	f7ff fe2c 	bl	23f8aae <_Znwj>
 23f8e56:	4605      	mov	r5, r0
 23f8e58:	9901      	ldr	r1, [sp, #4]
#if __cplusplus >= 201103L
      template<typename _Up, typename... _Args>
	void
	construct(_Up* __p, _Args&&... __args)
	noexcept(std::is_nothrow_constructible<_Up, _Args...>::value)
	{ ::new((void *)__p) _Up(std::forward<_Args>(__args)...); }
 23f8e5a:	19a8      	adds	r0, r5, r6
 23f8e5c:	d001      	beq.n	23f8e62 <_ZNSt6vectorI6StringSaIS0_EE17_M_realloc_insertIJS0_EEEvN9__gnu_cxx17__normal_iteratorIPS0_S2_EEDpOT_+0x52>
 23f8e5e:	f002 fefc 	bl	23fbc5a <_ZN6StringC1EOS_>
 23f8e62:	4628      	mov	r0, r5
      { return size_type(this->_M_impl._M_finish - this->_M_impl._M_start); }
 23f8e64:	464e      	mov	r6, r9
		      _ForwardIterator __result)
        {
	  _ForwardIterator __cur = __result;
	  __try
	    {
	      for (; __first != __last; ++__first, (void)++__cur)
 23f8e66:	45b3      	cmp	fp, r6
 23f8e68:	f100 0710 	add.w	r7, r0, #16
 23f8e6c:	d00a      	beq.n	23f8e84 <_ZNSt6vectorI6StringSaIS0_EE17_M_realloc_insertIJS0_EEEvN9__gnu_cxx17__normal_iteratorIPS0_S2_EEDpOT_+0x74>
   */
#if __cplusplus >= 201103L
  template<typename _Tp, typename... _Args>
    inline void
    _Construct(_Tp* __p, _Args&&... __args)
    { ::new(static_cast<void*>(__p)) _Tp(std::forward<_Args>(__args)...); }
 23f8e6e:	b110      	cbz	r0, 23f8e76 <_ZNSt6vectorI6StringSaIS0_EE17_M_realloc_insertIJS0_EEEvN9__gnu_cxx17__normal_iteratorIPS0_S2_EEDpOT_+0x66>
 23f8e70:	4631      	mov	r1, r6
 23f8e72:	f002 ff0c 	bl	23fbc8e <_ZN6StringC1ERKS_>
 23f8e76:	4638      	mov	r0, r7
 23f8e78:	3610      	adds	r6, #16
 23f8e7a:	e7f4      	b.n	23f8e66 <_ZNSt6vectorI6StringSaIS0_EE17_M_realloc_insertIJS0_EEEvN9__gnu_cxx17__normal_iteratorIPS0_S2_EEDpOT_+0x56>
	return (__len < size() || __len > max_size()) ? max_size() : __len;
 23f8e7c:	461c      	mov	r4, r3
 23f8e7e:	e7e6      	b.n	23f8e4e <_ZNSt6vectorI6StringSaIS0_EE17_M_realloc_insertIJS0_EEEvN9__gnu_cxx17__normal_iteratorIPS0_S2_EEDpOT_+0x3e>
	return __n != 0 ? _Tr::allocate(_M_impl, __n) : pointer();
 23f8e80:	4625      	mov	r5, r4
 23f8e82:	e7ea      	b.n	23f8e5a <_ZNSt6vectorI6StringSaIS0_EE17_M_realloc_insertIJS0_EEEvN9__gnu_cxx17__normal_iteratorIPS0_S2_EEDpOT_+0x4a>
 23f8e84:	4556      	cmp	r6, sl
 23f8e86:	d006      	beq.n	23f8e96 <_ZNSt6vectorI6StringSaIS0_EE17_M_realloc_insertIJS0_EEEvN9__gnu_cxx17__normal_iteratorIPS0_S2_EEDpOT_+0x86>
 23f8e88:	4631      	mov	r1, r6
 23f8e8a:	4638      	mov	r0, r7
 23f8e8c:	f002 feff 	bl	23fbc8e <_ZN6StringC1ERKS_>
 23f8e90:	3610      	adds	r6, #16
 23f8e92:	3710      	adds	r7, #16
 23f8e94:	e7f6      	b.n	23f8e84 <_ZNSt6vectorI6StringSaIS0_EE17_M_realloc_insertIJS0_EEEvN9__gnu_cxx17__normal_iteratorIPS0_S2_EEDpOT_+0x74>
      { return size_type(this->_M_impl._M_finish - this->_M_impl._M_start); }
 23f8e96:	464e      	mov	r6, r9
    {
      template<typename _ForwardIterator>
	static _GLIBCXX20_CONSTEXPR void
	__destroy(_ForwardIterator __first, _ForwardIterator __last)
	{
	  for (; __first != __last; ++__first)
 23f8e98:	4556      	cmp	r6, sl
 23f8e9a:	d004      	beq.n	23f8ea6 <_ZNSt6vectorI6StringSaIS0_EE17_M_realloc_insertIJS0_EEEvN9__gnu_cxx17__normal_iteratorIPS0_S2_EEDpOT_+0x96>
      __pointer->~_Tp();
 23f8e9c:	4630      	mov	r0, r6
 23f8e9e:	f002 fe5f 	bl	23fbb60 <_ZN6StringD1Ev>
	  for (; __first != __last; ++__first)
 23f8ea2:	3610      	adds	r6, #16
 23f8ea4:	e7f8      	b.n	23f8e98 <_ZNSt6vectorI6StringSaIS0_EE17_M_realloc_insertIJS0_EEEvN9__gnu_cxx17__normal_iteratorIPS0_S2_EEDpOT_+0x88>
	if (__p)
 23f8ea6:	f1b9 0f00 	cmp.w	r9, #0
 23f8eaa:	d006      	beq.n	23f8eba <_ZNSt6vectorI6StringSaIS0_EE17_M_realloc_insertIJS0_EEEvN9__gnu_cxx17__normal_iteratorIPS0_S2_EEDpOT_+0xaa>
      if _GLIBCXX17_CONSTEXPR (!_S_use_relocate())
#endif
	std::_Destroy(__old_start, __old_finish, _M_get_Tp_allocator());
      _GLIBCXX_ASAN_ANNOTATE_REINIT;
      _M_deallocate(__old_start,
		    this->_M_impl._M_end_of_storage - __old_start);
 23f8eac:	f8d8 1008 	ldr.w	r1, [r8, #8]
	::operator delete(__p
 23f8eb0:	4648      	mov	r0, r9
 23f8eb2:	eba1 0109 	sub.w	r1, r1, r9
 23f8eb6:	f7ff fe00 	bl	23f8aba <_ZdlPvj>
      this->_M_impl._M_start = __new_start;
      this->_M_impl._M_finish = __new_finish;
      this->_M_impl._M_end_of_storage = __new_start + __len;
 23f8eba:	eb05 1404 	add.w	r4, r5, r4, lsl #4
      this->_M_impl._M_finish = __new_finish;
 23f8ebe:	e9c8 5700 	strd	r5, r7, [r8]
      this->_M_impl._M_end_of_storage = __new_start + __len;
 23f8ec2:	f8c8 4008 	str.w	r4, [r8, #8]
    }
 23f8ec6:	b003      	add	sp, #12
 23f8ec8:	e8bd 8ff0 	ldmia.w	sp!, {r4, r5, r6, r7, r8, r9, sl, fp, pc}
 23f8ecc:	023fec1f 	.word	0x023fec1f

023f8ed0 <_Z15loadAdFilenamesv>:
void loadAdFilenames() {
 23f8ed0:	b530      	push	{r4, r5, lr}
    DIR* dir = opendir("/");
 23f8ed2:	481d      	ldr	r0, [pc, #116]	; (23f8f48 <_Z15loadAdFilenamesv+0x78>)
void loadAdFilenames() {
 23f8ed4:	b085      	sub	sp, #20
    DIR* dir = opendir("/");
 23f8ed6:	f001 ff0d 	bl	23facf4 <opendir>
 23f8eda:	4604      	mov	r4, r0
    Log.info("Opened dir=%d", errno);
 23f8edc:	f002 fbda 	bl	23fb694 <__errno>
 23f8ee0:	491a      	ldr	r1, [pc, #104]	; (23f8f4c <_Z15loadAdFilenamesv+0x7c>)
 23f8ee2:	6802      	ldr	r2, [r0, #0]
 23f8ee4:	481a      	ldr	r0, [pc, #104]	; (23f8f50 <_Z15loadAdFilenamesv+0x80>)
 23f8ee6:	f7ff fe2b 	bl	23f8b40 <_ZNK5spark6Logger4infoEPKcz>
    if (dir != NULL) {
 23f8eea:	b35c      	cbz	r4, 23f8f44 <_Z15loadAdFilenamesv+0x74>
        dirent *result = readdir(dir);
 23f8eec:	4620      	mov	r0, r4
 23f8eee:	f001 ff0f 	bl	23fad10 <readdir>
	if (this->_M_impl._M_finish != this->_M_impl._M_end_of_storage)
 23f8ef2:	4d18      	ldr	r5, [pc, #96]	; (23f8f54 <_Z15loadAdFilenamesv+0x84>)
        while (result) {
 23f8ef4:	b1f8      	cbz	r0, 23f8f36 <_Z15loadAdFilenamesv+0x66>
            if (result->d_type == DT_REG) {
 23f8ef6:	7a83      	ldrb	r3, [r0, #10]
 23f8ef8:	2b08      	cmp	r3, #8
 23f8efa:	d112      	bne.n	23f8f22 <_Z15loadAdFilenamesv+0x52>
                adFileNames.push_back(result->d_name);
 23f8efc:	f100 010b 	add.w	r1, r0, #11
 23f8f00:	4668      	mov	r0, sp
 23f8f02:	f002 fe78 	bl	23fbbf6 <_ZN6StringC1EPK19__FlashStringHelper>
 23f8f06:	e9d5 0301 	ldrd	r0, r3, [r5, #4]
 23f8f0a:	4298      	cmp	r0, r3
 23f8f0c:	d00d      	beq.n	23f8f2a <_Z15loadAdFilenamesv+0x5a>
	{ ::new((void *)__p) _Up(std::forward<_Args>(__args)...); }
 23f8f0e:	b110      	cbz	r0, 23f8f16 <_Z15loadAdFilenamesv+0x46>
 23f8f10:	4669      	mov	r1, sp
 23f8f12:	f002 fea2 	bl	23fbc5a <_ZN6StringC1EOS_>
	    ++this->_M_impl._M_finish;
 23f8f16:	686b      	ldr	r3, [r5, #4]
 23f8f18:	3310      	adds	r3, #16
 23f8f1a:	606b      	str	r3, [r5, #4]
 23f8f1c:	4668      	mov	r0, sp
 23f8f1e:	f002 fe1f 	bl	23fbb60 <_ZN6StringD1Ev>
            result = readdir(dir);
 23f8f22:	4620      	mov	r0, r4
 23f8f24:	f001 fef4 	bl	23fad10 <readdir>
        while (result) {
 23f8f28:	e7e4      	b.n	23f8ef4 <_Z15loadAdFilenamesv+0x24>
	  _M_realloc_insert(end(), std::forward<_Args>(__args)...);
 23f8f2a:	4601      	mov	r1, r0
 23f8f2c:	466a      	mov	r2, sp
 23f8f2e:	4628      	mov	r0, r5
 23f8f30:	f7ff ff6e 	bl	23f8e10 <_ZNSt6vectorI6StringSaIS0_EE17_M_realloc_insertIJS0_EEEvN9__gnu_cxx17__normal_iteratorIPS0_S2_EEDpOT_>
 23f8f34:	e7f2      	b.n	23f8f1c <_Z15loadAdFilenamesv+0x4c>
        closedir(dir);
 23f8f36:	4620      	mov	r0, r4
 23f8f38:	f001 fef8 	bl	23fad2c <closedir>
        Log.info("Closed dir");
 23f8f3c:	4906      	ldr	r1, [pc, #24]	; (23f8f58 <_Z15loadAdFilenamesv+0x88>)
 23f8f3e:	4804      	ldr	r0, [pc, #16]	; (23f8f50 <_Z15loadAdFilenamesv+0x80>)
 23f8f40:	f7ff fdfe 	bl	23f8b40 <_ZNK5spark6Logger4infoEPKcz>
}
 23f8f44:	b005      	add	sp, #20
 23f8f46:	bd30      	pop	{r4, r5, pc}
 23f8f48:	023fec39 	.word	0x023fec39
 23f8f4c:	023fec3b 	.word	0x023fec3b
 23f8f50:	1007ae7c 	.word	0x1007ae7c
 23f8f54:	1007adb4 	.word	0x1007adb4
 23f8f58:	023fec49 	.word	0x023fec49

023f8f5c <_Z12handleAssetsN5spark6VectorIN8particle16ApplicationAssetENS_16DefaultAllocatorEEE>:

void handleAssets(spark::Vector<ApplicationAsset> assets) {
 23f8f5c:	e92d 4ff0 	stmdb	sp!, {r4, r5, r6, r7, r8, r9, sl, fp, lr}
      { return size_type(this->_M_impl._M_finish - this->_M_impl._M_start); }
 23f8f60:	4c3f      	ldr	r4, [pc, #252]	; (23f9060 <_Z12handleAssetsN5spark6VectorIN8particle16ApplicationAssetENS_16DefaultAllocatorEEE+0x104>)
 23f8f62:	f5ad 7d05 	sub.w	sp, sp, #532	; 0x214
 23f8f66:	4605      	mov	r5, r0
    // Delete all previous ad files
    loadAdFilenames();
 23f8f68:	f7ff ffb2 	bl	23f8ed0 <_Z15loadAdFilenamesv>
 23f8f6c:	e9d4 3200 	ldrd	r3, r2, [r4]
 23f8f70:	1ad2      	subs	r2, r2, r3
    Log.info("ad file names length = %d", adFileNames.size());
 23f8f72:	493c      	ldr	r1, [pc, #240]	; (23f9064 <_Z12handleAssetsN5spark6VectorIN8particle16ApplicationAssetENS_16DefaultAllocatorEEE+0x108>)
 23f8f74:	483c      	ldr	r0, [pc, #240]	; (23f9068 <_Z12handleAssetsN5spark6VectorIN8particle16ApplicationAssetENS_16DefaultAllocatorEEE+0x10c>)
 23f8f76:	1112      	asrs	r2, r2, #4
 23f8f78:	f7ff fde2 	bl	23f8b40 <_ZNK5spark6Logger4infoEPKcz>
      __normal_iterator(const _Iterator& __i) _GLIBCXX_NOEXCEPT
 23f8f7c:	e9d4 4600 	ldrd	r4, r6, [r4]
    for (auto& path : adFileNames) {
 23f8f80:	42a6      	cmp	r6, r4
 23f8f82:	d004      	beq.n	23f8f8e <_Z12handleAssetsN5spark6VectorIN8particle16ApplicationAssetENS_16DefaultAllocatorEEE+0x32>
        int result = unlink(path.c_str());
 23f8f84:	f854 0b10 	ldr.w	r0, [r4], #16
 23f8f88:	f005 fd2e 	bl	23fe9e8 <unlink>
	return *this;
 23f8f8c:	e7f8      	b.n	23f8f80 <_Z12handleAssetsN5spark6VectorIN8particle16ApplicationAssetENS_16DefaultAllocatorEEE+0x24>
    }

    for (auto& asset : assets) {
        int size = (int)asset.size();
        String name = asset.name();
        Log.info("Found asset %s", name.c_str());
 23f8f8e:	f8df 90e8 	ldr.w	r9, [pc, #232]	; 23f9078 <_Z12handleAssetsN5spark6VectorIN8particle16ApplicationAssetENS_16DefaultAllocatorEEE+0x11c>
 23f8f92:	f8df 80d4 	ldr.w	r8, [pc, #212]	; 23f9068 <_Z12handleAssetsN5spark6VectorIN8particle16ApplicationAssetENS_16DefaultAllocatorEEE+0x10c>
        if (name.startsWith("ad") || name == "qrcode.bmp") {
 23f8f96:	f8df a0e4 	ldr.w	sl, [pc, #228]	; 23f907c <_Z12handleAssetsN5spark6VectorIN8particle16ApplicationAssetENS_16DefaultAllocatorEEE+0x120>
    return data_;
}

template<typename T, typename AllocatorT>
T* spark::Vector<T, AllocatorT>::end() {
    return data_ + size_;
 23f8f9a:	e9d5 4700 	ldrd	r4, r7, [r5]
 23f8f9e:	eb04 1787 	add.w	r7, r4, r7, lsl #6
    for (auto& asset : assets) {
 23f8fa2:	42bc      	cmp	r4, r7
 23f8fa4:	d054      	beq.n	23f9050 <_Z12handleAssetsN5spark6VectorIN8particle16ApplicationAssetENS_16DefaultAllocatorEEE+0xf4>
        int size = (int)asset.size();
 23f8fa6:	4620      	mov	r0, r4
 23f8fa8:	f002 ff6f 	bl	23fbe8a <_ZNK8particle16ApplicationAsset4sizeEv>
        String name = asset.name();
 23f8fac:	4621      	mov	r1, r4
        int size = (int)asset.size();
 23f8fae:	4606      	mov	r6, r0
        String name = asset.name();
 23f8fb0:	4668      	mov	r0, sp
 23f8fb2:	f002 ff63 	bl	23fbe7c <_ZNK8particle16ApplicationAsset4nameEv>
        Log.info("Found asset %s", name.c_str());
 23f8fb6:	4649      	mov	r1, r9
 23f8fb8:	4640      	mov	r0, r8
 23f8fba:	9a00      	ldr	r2, [sp, #0]
 23f8fbc:	f7ff fdc0 	bl	23f8b40 <_ZNK5spark6Logger4infoEPKcz>
        if (name.startsWith("ad") || name == "qrcode.bmp") {
 23f8fc0:	4651      	mov	r1, sl
 23f8fc2:	a804      	add	r0, sp, #16
 23f8fc4:	f002 fe17 	bl	23fbbf6 <_ZN6StringC1EPK19__FlashStringHelper>
 23f8fc8:	4668      	mov	r0, sp
 23f8fca:	a904      	add	r1, sp, #16
 23f8fcc:	f002 fe9a 	bl	23fbd04 <_ZNK6String10startsWithERKS_>
 23f8fd0:	bb78      	cbnz	r0, 23f9032 <_Z12handleAssetsN5spark6VectorIN8particle16ApplicationAssetENS_16DefaultAllocatorEEE+0xd6>
	unsigned char operator == (const char *cstr) const {return equals(cstr);}
 23f8fd2:	4668      	mov	r0, sp
 23f8fd4:	4925      	ldr	r1, [pc, #148]	; (23f906c <_Z12handleAssetsN5spark6VectorIN8particle16ApplicationAssetENS_16DefaultAllocatorEEE+0x110>)
 23f8fd6:	f002 fe6d 	bl	23fbcb4 <_ZNK6String6equalsEPKc>
 23f8fda:	1e05      	subs	r5, r0, #0
 23f8fdc:	bf18      	it	ne
 23f8fde:	2501      	movne	r5, #1
 23f8fe0:	a804      	add	r0, sp, #16
 23f8fe2:	f002 fdbd 	bl	23fbb60 <_ZN6StringD1Ev>
 23f8fe6:	b375      	cbz	r5, 23f9046 <_Z12handleAssetsN5spark6VectorIN8particle16ApplicationAssetENS_16DefaultAllocatorEEE+0xea>
            uint8_t buf[BlockSize];
            int32_t bytesRead = 0;
            int fd = open(name, O_WRONLY | O_CREAT | O_TRUNC);
 23f8fe8:	f240 6101 	movw	r1, #1537	; 0x601
 23f8fec:	9800      	ldr	r0, [sp, #0]
 23f8fee:	f005 fcdd 	bl	23fe9ac <open>
 23f8ff2:	4605      	mov	r5, r0
            Log.info("Got fd=%d", fd);
 23f8ff4:	4602      	mov	r2, r0
 23f8ff6:	491e      	ldr	r1, [pc, #120]	; (23f9070 <_Z12handleAssetsN5spark6VectorIN8particle16ApplicationAssetENS_16DefaultAllocatorEEE+0x114>)
 23f8ff8:	4640      	mov	r0, r8
 23f8ffa:	f7ff fda1 	bl	23f8b40 <_ZNK5spark6Logger4infoEPKcz>
            if (fd != -1) {
 23f8ffe:	1c6b      	adds	r3, r5, #1
 23f9000:	d021      	beq.n	23f9046 <_Z12handleAssetsN5spark6VectorIN8particle16ApplicationAssetENS_16DefaultAllocatorEEE+0xea>
            int32_t bytesRead = 0;
 23f9002:	f04f 0b00 	mov.w	fp, #0
                while (bytesRead < size) {
 23f9006:	45b3      	cmp	fp, r6
 23f9008:	da15      	bge.n	23f9036 <_Z12handleAssetsN5spark6VectorIN8particle16ApplicationAssetENS_16DefaultAllocatorEEE+0xda>
                    int toRead = constrain(size - bytesRead, 0, sizeof(buf));
 23f900a:	eba6 020b 	sub.w	r2, r6, fp
                    toRead = asset.read((char*)buf, toRead);
 23f900e:	6823      	ldr	r3, [r4, #0]
 23f9010:	f5b2 7f00 	cmp.w	r2, #512	; 0x200
 23f9014:	bfa8      	it	ge
 23f9016:	f44f 7200 	movge.w	r2, #512	; 0x200
 23f901a:	4620      	mov	r0, r4
 23f901c:	6a1b      	ldr	r3, [r3, #32]
 23f901e:	a904      	add	r1, sp, #16
 23f9020:	4798      	blx	r3

                    if (toRead <= 0) break;
 23f9022:	1e02      	subs	r2, r0, #0
 23f9024:	dd07      	ble.n	23f9036 <_Z12handleAssetsN5spark6VectorIN8particle16ApplicationAssetENS_16DefaultAllocatorEEE+0xda>

                    bytesRead += toRead;

                    write(fd, buf, toRead);
 23f9026:	4628      	mov	r0, r5
 23f9028:	a904      	add	r1, sp, #16
                    bytesRead += toRead;
 23f902a:	4493      	add	fp, r2
                    write(fd, buf, toRead);
 23f902c:	f005 fce4 	bl	23fe9f8 <write>
                while (bytesRead < size) {
 23f9030:	e7e9      	b.n	23f9006 <_Z12handleAssetsN5spark6VectorIN8particle16ApplicationAssetENS_16DefaultAllocatorEEE+0xaa>
        if (name.startsWith("ad") || name == "qrcode.bmp") {
 23f9032:	2501      	movs	r5, #1
 23f9034:	e7d4      	b.n	23f8fe0 <_Z12handleAssetsN5spark6VectorIN8particle16ApplicationAssetENS_16DefaultAllocatorEEE+0x84>
                }

                close(fd);
 23f9036:	4628      	mov	r0, r5
 23f9038:	f005 fca6 	bl	23fe988 <close>
                Log.info("Closed fd=%d", fd);
 23f903c:	462a      	mov	r2, r5
 23f903e:	4640      	mov	r0, r8
 23f9040:	490c      	ldr	r1, [pc, #48]	; (23f9074 <_Z12handleAssetsN5spark6VectorIN8particle16ApplicationAssetENS_16DefaultAllocatorEEE+0x118>)
 23f9042:	f7ff fd7d 	bl	23f8b40 <_ZNK5spark6Logger4infoEPKcz>
        String name = asset.name();
 23f9046:	4668      	mov	r0, sp
 23f9048:	f002 fd8a 	bl	23fbb60 <_ZN6StringD1Ev>
    for (auto& asset : assets) {
 23f904c:	3440      	adds	r4, #64	; 0x40
 23f904e:	e7a8      	b.n	23f8fa2 <_Z12handleAssetsN5spark6VectorIN8particle16ApplicationAssetENS_16DefaultAllocatorEEE+0x46>
            }
        }
    }

    System.assetsHandled(true);
 23f9050:	2001      	movs	r0, #1
 23f9052:	f50d 7d05 	add.w	sp, sp, #532	; 0x214
 23f9056:	e8bd 4ff0 	ldmia.w	sp!, {r4, r5, r6, r7, r8, r9, sl, fp, lr}
    System.assetsHandled(true);
 23f905a:	f002 bc38 	b.w	23fb8ce <_ZN11SystemClass13assetsHandledEb>
 23f905e:	bf00      	nop
 23f9060:	1007adb4 	.word	0x1007adb4
 23f9064:	023fec54 	.word	0x023fec54
 23f9068:	1007ae7c 	.word	0x1007ae7c
 23f906c:	023febf3 	.word	0x023febf3
 23f9070:	023fec80 	.word	0x023fec80
 23f9074:	023fec8a 	.word	0x023fec8a
 23f9078:	023fec6e 	.word	0x023fec6e
 23f907c:	023fec7d 	.word	0x023fec7d

023f9080 <setup>:
void setup() {
 23f9080:	b530      	push	{r4, r5, lr}
 23f9082:	b087      	sub	sp, #28
    Serial.begin(115200);
 23f9084:	f004 fc90 	bl	23fd9a8 <_Z16_fetch_usbserialv>
 23f9088:	f44f 31e1 	mov.w	r1, #115200	; 0x1c200
 23f908c:	f004 fc7a 	bl	23fd984 <_ZN9USBSerial5beginEl>
        HAL_Core_Button_Mirror_Pin_Disable((uint8_t)bootloader, 0, nullptr);
    }

    // This function is similar to the global millis() but returns a 64-bit value
    static uint64_t millis() {
        return hal_timer_millis(nullptr);
 23f9090:	2000      	movs	r0, #0
 23f9092:	f001 fdcd 	bl	23fac30 <hal_timer_millis>
        while (_while() && !_condition()) {
 23f9096:	f242 7510 	movw	r5, #10000	; 0x2710
        return hal_timer_millis(nullptr);
 23f909a:	4604      	mov	r4, r0
 23f909c:	2000      	movs	r0, #0
 23f909e:	f001 fdc7 	bl	23fac30 <hal_timer_millis>
        return waitConditionWhile(_condition, [=]{ return (millis()-start)<timeout; });
 23f90a2:	1b00      	subs	r0, r0, r4
 23f90a4:	f161 0100 	sbc.w	r1, r1, #0
        while (_while() && !_condition()) {
 23f90a8:	42a8      	cmp	r0, r5
 23f90aa:	f171 0300 	sbcs.w	r3, r1, #0
 23f90ae:	d207      	bcs.n	23f90c0 <setup+0x40>
    waitFor(Serial.isConnected, 10000); delay(2000);
 23f90b0:	f004 fc7a 	bl	23fd9a8 <_Z16_fetch_usbserialv>
 23f90b4:	f004 fc6d 	bl	23fd992 <_ZN9USBSerial11isConnectedEv>
 23f90b8:	b910      	cbnz	r0, 23f90c0 <setup+0x40>
            spark_process();
 23f90ba:	f002 f9e1 	bl	23fb480 <spark_process>
        while (_while() && !_condition()) {
 23f90be:	e7ed      	b.n	23f909c <setup+0x1c>
 23f90c0:	f004 fc72 	bl	23fd9a8 <_Z16_fetch_usbserialv>
 23f90c4:	f004 fc65 	bl	23fd992 <_ZN9USBSerial11isConnectedEv>
 23f90c8:	f44f 60fa 	mov.w	r0, #2000	; 0x7d0
 23f90cc:	f004 f848 	bl	23fd160 <delay>
    Log.info("Starting assets available=%d", System.assetsAvailable().size());
 23f90d0:	a803      	add	r0, sp, #12
 23f90d2:	f002 fcf8 	bl	23fbac6 <_ZN11SystemClass15assetsAvailableEv>
 23f90d6:	9a04      	ldr	r2, [sp, #16]
 23f90d8:	492a      	ldr	r1, [pc, #168]	; (23f9184 <setup+0x104>)
 23f90da:	482b      	ldr	r0, [pc, #172]	; (23f9188 <setup+0x108>)
 23f90dc:	f7ff fd30 	bl	23f8b40 <_ZNK5spark6Logger4infoEPKcz>
 23f90e0:	a803      	add	r0, sp, #12
 23f90e2:	f7ff fe20 	bl	23f8d26 <_ZN5spark6VectorIN8particle16ApplicationAssetENS_16DefaultAllocatorEED1Ev>
    handleAssets(System.assetsAvailable());
 23f90e6:	a803      	add	r0, sp, #12
 23f90e8:	f002 fced 	bl	23fbac6 <_ZN11SystemClass15assetsAvailableEv>
 23f90ec:	a803      	add	r0, sp, #12
 23f90ee:	f7ff ff35 	bl	23f8f5c <_Z12handleAssetsN5spark6VectorIN8particle16ApplicationAssetENS_16DefaultAllocatorEEE>
 23f90f2:	a803      	add	r0, sp, #12
 23f90f4:	f7ff fe17 	bl	23f8d26 <_ZN5spark6VectorIN8particle16ApplicationAssetENS_16DefaultAllocatorEED1Ev>
    tft.begin();
 23f90f8:	4824      	ldr	r0, [pc, #144]	; (23f918c <setup+0x10c>)
 23f90fa:	f000 fc92 	bl	23f9a22 <_ZN16Adafruit_SSD13515beginEv>
    tft.fillScreen(0);
 23f90fe:	2100      	movs	r1, #0
 23f9100:	4822      	ldr	r0, [pc, #136]	; (23f918c <setup+0x10c>)
 23f9102:	f000 fb46 	bl	23f9792 <_ZN16Adafruit_SSD135110fillScreenEt>
    tft.fillCircle(60, 60, 20, 0x0ff0);
 23f9106:	223c      	movs	r2, #60	; 0x3c
 23f9108:	f44f 637f 	mov.w	r3, #4080	; 0xff0
 23f910c:	4611      	mov	r1, r2
 23f910e:	4820      	ldr	r0, [pc, #128]	; (23f9190 <setup+0x110>)
 23f9110:	9300      	str	r3, [sp, #0]
 23f9112:	2314      	movs	r3, #20
 23f9114:	f000 ffd1 	bl	23fa0ba <_ZN12Adafruit_GFX10fillCircleEssst>
    delay(1000);
 23f9118:	f44f 707a 	mov.w	r0, #1000	; 0x3e8
 23f911c:	f004 f820 	bl	23fd160 <delay>
    tft.fillScreen(0xff00);
 23f9120:	f44f 417f 	mov.w	r1, #65280	; 0xff00
 23f9124:	4819      	ldr	r0, [pc, #100]	; (23f918c <setup+0x10c>)
 23f9126:	f000 fb34 	bl	23f9792 <_ZN16Adafruit_SSD135110fillScreenEt>
    delay(1000);
 23f912a:	f44f 707a 	mov.w	r0, #1000	; 0x3e8
 23f912e:	f004 f817 	bl	23fd160 <delay>
    Wire.begin();
 23f9132:	f005 f98b 	bl	23fe44c <_Z19__fetch_global_Wirev>
 23f9136:	f004 fd43 	bl	23fdbc0 <_ZN7TwoWire5beginEv>
    if (distanceSensor.begin() != 0) {
 23f913a:	4816      	ldr	r0, [pc, #88]	; (23f9194 <setup+0x114>)
 23f913c:	f001 fcaa 	bl	23faa94 <_ZN10SFEVL53L1X5beginEv>
 23f9140:	b118      	cbz	r0, 23f914a <setup+0xca>
        Log.error("VL53L1X failed to init");
 23f9142:	4915      	ldr	r1, [pc, #84]	; (23f9198 <setup+0x118>)
 23f9144:	4810      	ldr	r0, [pc, #64]	; (23f9188 <setup+0x108>)
 23f9146:	f7ff fd13 	bl	23f8b70 <_ZNK5spark6Logger5errorEPKcz>
    distanceSensor.setDistanceModeLong();
 23f914a:	4812      	ldr	r0, [pc, #72]	; (23f9194 <setup+0x114>)
 23f914c:	f001 fcc7 	bl	23faade <_ZN10SFEVL53L1X19setDistanceModeLongEv>
    pinMode(ButtonPin, INPUT_PULLUP);
 23f9150:	2102      	movs	r1, #2
 23f9152:	2004      	movs	r0, #4
 23f9154:	f005 f874 	bl	23fe240 <pinMode>
    attachInterrupt(ButtonPin, handleButton, FALLING);
 23f9158:	2300      	movs	r3, #0
 23f915a:	2202      	movs	r2, #2
 23f915c:	9300      	str	r3, [sp, #0]
 23f915e:	490f      	ldr	r1, [pc, #60]	; (23f919c <setup+0x11c>)
 23f9160:	f04f 33ff 	mov.w	r3, #4294967295
 23f9164:	2004      	movs	r0, #4
 23f9166:	f004 fc45 	bl	23fd9f4 <_Z15attachInterrupttPFvvE13InterruptModeah>
    pinMode(ButtonLedPin, OUTPUT);
 23f916a:	2101      	movs	r1, #1
 23f916c:	2005      	movs	r0, #5
 23f916e:	f005 f867 	bl	23fe240 <pinMode>
    digitalWrite(ButtonLedPin, HIGH);
 23f9172:	2101      	movs	r1, #1
 23f9174:	2005      	movs	r0, #5
 23f9176:	f005 f874 	bl	23fe262 <digitalWrite>
}
 23f917a:	b007      	add	sp, #28
 23f917c:	e8bd 4030 	ldmia.w	sp!, {r4, r5, lr}
    loadAdFilenames();
 23f9180:	f7ff bea6 	b.w	23f8ed0 <_Z15loadAdFilenamesv>
 23f9184:	023fec97 	.word	0x023fec97
 23f9188:	1007ae7c 	.word	0x1007ae7c
 23f918c:	1007ae08 	.word	0x1007ae08
 23f9190:	1007ae14 	.word	0x1007ae14
 23f9194:	1007adcc 	.word	0x1007adcc
 23f9198:	023fecb4 	.word	0x023fecb4
 23f919c:	023f8aed 	.word	0x023f8aed

023f91a0 <_GLOBAL__sub_I_currentAd>:
 23f91a0:	b570      	push	{r4, r5, r6, lr}
        val_(val) {
 23f91a2:	2400      	movs	r4, #0
 23f91a4:	4b29      	ldr	r3, [pc, #164]	; (23f924c <_GLOBAL__sub_I_currentAd+0xac>)
Adafruit_SSD1351 tft = Adafruit_SSD1351(CsPin, DcPin, RstPin);
 23f91a6:	4d2a      	ldr	r5, [pc, #168]	; (23f9250 <_GLOBAL__sub_I_currentAd+0xb0>)
 23f91a8:	701c      	strb	r4, [r3, #0]
	: _M_start(), _M_finish(), _M_end_of_storage()
 23f91aa:	4b2a      	ldr	r3, [pc, #168]	; (23f9254 <_GLOBAL__sub_I_currentAd+0xb4>)
 23f91ac:	b08c      	sub	sp, #48	; 0x30
Adafruit_SSD1351 tft = Adafruit_SSD1351(CsPin, DcPin, RstPin);
 23f91ae:	2213      	movs	r2, #19
 23f91b0:	2112      	movs	r1, #18
 23f91b2:	e9c3 4400 	strd	r4, r4, [r3]
 23f91b6:	609c      	str	r4, [r3, #8]
 23f91b8:	4628      	mov	r0, r5
 23f91ba:	230e      	movs	r3, #14
 23f91bc:	f000 f8fc 	bl	23f93b8 <_ZN16Adafruit_SSD1351C1Ehhh>
SFEVL53L1X distanceSensor;
 23f91c0:	f005 f944 	bl	23fe44c <_Z19__fetch_global_Wirev>
 23f91c4:	f04f 33ff 	mov.w	r3, #4294967295
 23f91c8:	4601      	mov	r1, r0
 23f91ca:	461a      	mov	r2, r3
 23f91cc:	4822      	ldr	r0, [pc, #136]	; (23f9258 <_GLOBAL__sub_I_currentAd+0xb8>)
 23f91ce:	f001 fc27 	bl	23faa20 <_ZN10SFEVL53L1XC1ER7TwoWireii>
#include "Adafruit_mfGFX/Adafruit_mfGFX.h"
#include "Adafruit_SSD1351_Photon.h"

class Bitmap {
    public:
        Bitmap(Adafruit_SSD1351 *tft) : _tft(tft) { }
 23f91d2:	4b22      	ldr	r3, [pc, #136]	; (23f925c <_GLOBAL__sub_I_currentAd+0xbc>)
        capacity_(0) {
 23f91d4:	e9cd 4400 	strd	r4, r4, [sp]
 23f91d8:	601d      	str	r5, [r3, #0]
 23f91da:	9402      	str	r4, [sp, #8]
            StreamLogHandler(Serial, level, filters) {
 23f91dc:	f004 fbe4 	bl	23fd9a8 <_Z16_fetch_usbserialv>
        filter_(level, filters) {
 23f91e0:	4c1f      	ldr	r4, [pc, #124]	; (23f9260 <_GLOBAL__sub_I_currentAd+0xc0>)
 23f91e2:	4605      	mov	r5, r0
 23f91e4:	4626      	mov	r6, r4
 23f91e6:	4669      	mov	r1, sp
 23f91e8:	a803      	add	r0, sp, #12
 23f91ea:	f7ff fddd 	bl	23f8da8 <_ZN5spark6VectorINS_17LogCategoryFilterENS_16DefaultAllocatorEEC1ERKS3_>
        stream_(&stream) {
 23f91ee:	a903      	add	r1, sp, #12
 23f91f0:	a806      	add	r0, sp, #24
 23f91f2:	f7ff fdd9 	bl	23f8da8 <_ZN5spark6VectorINS_17LogCategoryFilterENS_16DefaultAllocatorEEC1ERKS3_>
        filter_(level, filters) {
 23f91f6:	4b1b      	ldr	r3, [pc, #108]	; (23f9264 <_GLOBAL__sub_I_currentAd+0xc4>)
 23f91f8:	a906      	add	r1, sp, #24
 23f91fa:	f846 3b04 	str.w	r3, [r6], #4
 23f91fe:	a809      	add	r0, sp, #36	; 0x24
 23f9200:	f7ff fdd2 	bl	23f8da8 <_ZN5spark6VectorINS_17LogCategoryFilterENS_16DefaultAllocatorEEC1ERKS3_>
 23f9204:	aa09      	add	r2, sp, #36	; 0x24
 23f9206:	211e      	movs	r1, #30
 23f9208:	4630      	mov	r0, r6
 23f920a:	f003 fc87 	bl	23fcb1c <_ZN5spark6detail9LogFilterC1E8LogLevelNS_6VectorINS_17LogCategoryFilterENS_16DefaultAllocatorEEE>
 23f920e:	a809      	add	r0, sp, #36	; 0x24
 23f9210:	f7ff fd76 	bl	23f8d00 <_ZN5spark6VectorINS_17LogCategoryFilterENS_16DefaultAllocatorEED1Ev>
        stream_(&stream) {
 23f9214:	a806      	add	r0, sp, #24
 23f9216:	f7ff fd73 	bl	23f8d00 <_ZN5spark6VectorINS_17LogCategoryFilterENS_16DefaultAllocatorEED1Ev>
 23f921a:	4b13      	ldr	r3, [pc, #76]	; (23f9268 <_GLOBAL__sub_I_currentAd+0xc8>)
 23f921c:	6225      	str	r5, [r4, #32]
 23f921e:	6023      	str	r3, [r4, #0]
 23f9220:	a803      	add	r0, sp, #12
 23f9222:	f7ff fd6d 	bl	23f8d00 <_ZN5spark6VectorINS_17LogCategoryFilterENS_16DefaultAllocatorEED1Ev>
 23f9226:	4b11      	ldr	r3, [pc, #68]	; (23f926c <_GLOBAL__sub_I_currentAd+0xcc>)
 23f9228:	6023      	str	r3, [r4, #0]
        Serial.begin();
 23f922a:	f004 fbbd 	bl	23fd9a8 <_Z16_fetch_usbserialv>
 23f922e:	f44f 5116 	mov.w	r1, #9600	; 0x2580
 23f9232:	f004 fba7 	bl	23fd984 <_ZN9USBSerial5beginEl>
        LogManager::instance()->addHandler(this);
 23f9236:	f003 f955 	bl	23fc4e4 <_ZN5spark10LogManager8instanceEv>
 23f923a:	4621      	mov	r1, r4
 23f923c:	f003 fb46 	bl	23fc8cc <_ZN5spark10LogManager10addHandlerEPNS_10LogHandlerE>
SerialLogHandler logHandler(LOG_LEVEL_INFO);
 23f9240:	4668      	mov	r0, sp
 23f9242:	f7ff fd5d 	bl	23f8d00 <_ZN5spark6VectorINS_17LogCategoryFilterENS_16DefaultAllocatorEED1Ev>
 23f9246:	b00c      	add	sp, #48	; 0x30
 23f9248:	bd70      	pop	{r4, r5, r6, pc}
 23f924a:	bf00      	nop
 23f924c:	1007adc0 	.word	0x1007adc0
 23f9250:	1007ae08 	.word	0x1007ae08
 23f9254:	1007adb4 	.word	0x1007adb4
 23f9258:	1007adcc 	.word	0x1007adcc
 23f925c:	1007adc4 	.word	0x1007adc4
 23f9260:	1007ade4 	.word	0x1007ade4
 23f9264:	023fecd4 	.word	0x023fecd4
 23f9268:	023ffb98 	.word	0x023ffb98
 23f926c:	023fecec 	.word	0x023fecec

023f9270 <_ZN5Print5writeEPKc>:

    int getWriteError() { return write_error; }
    void clearWriteError() { setWriteError(0); }

    virtual size_t write(uint8_t) = 0;
    size_t write(const char *str) {
 23f9270:	b513      	push	{r0, r1, r4, lr}
 23f9272:	4604      	mov	r4, r0
      if (str == NULL) return 0;
      return write((const uint8_t *)str, strlen(str));
    }
 23f9274:	4608      	mov	r0, r1
      if (str == NULL) return 0;
 23f9276:	b159      	cbz	r1, 23f9290 <_ZN5Print5writeEPKc+0x20>
      return write((const uint8_t *)str, strlen(str));
 23f9278:	9101      	str	r1, [sp, #4]
 23f927a:	f7ff fbf3 	bl	23f8a64 <strlen>
 23f927e:	4602      	mov	r2, r0
 23f9280:	4620      	mov	r0, r4
 23f9282:	6823      	ldr	r3, [r4, #0]
 23f9284:	9901      	ldr	r1, [sp, #4]
 23f9286:	68db      	ldr	r3, [r3, #12]
    }
 23f9288:	b002      	add	sp, #8
 23f928a:	e8bd 4010 	ldmia.w	sp!, {r4, lr}
      return write((const uint8_t *)str, strlen(str));
 23f928e:	4718      	bx	r3
    }
 23f9290:	b002      	add	sp, #8
 23f9292:	bd10      	pop	{r4, pc}

023f9294 <_ZN16Adafruit_SSD1351D1Ev>:
#define SSD1351_CMD_HORIZSCROLL		0x96
#define SSD1351_CMD_STOPSCROLL		0x9E
#define SSD1351_CMD_STARTSCROLL		0x9F


class Adafruit_SSD1351  : public virtual Adafruit_GFX {
 23f9294:	4a03      	ldr	r2, [pc, #12]	; (23f92a4 <_ZN16Adafruit_SSD1351D1Ev+0x10>)
 23f9296:	f102 010c 	add.w	r1, r2, #12
 23f929a:	325c      	adds	r2, #92	; 0x5c
 23f929c:	6001      	str	r1, [r0, #0]
 23f929e:	60c2      	str	r2, [r0, #12]
 23f92a0:	4770      	bx	lr
 23f92a2:	bf00      	nop
 23f92a4:	023fecfc 	.word	0x023fecfc

023f92a8 <_ZTv0_n12_N16Adafruit_SSD1351D1Ev>:
 23f92a8:	b510      	push	{r4, lr}
 23f92aa:	6803      	ldr	r3, [r0, #0]
 23f92ac:	f853 1c0c 	ldr.w	r1, [r3, #-12]
 23f92b0:	4b04      	ldr	r3, [pc, #16]	; (23f92c4 <_ZTv0_n12_N16Adafruit_SSD1351D1Ev+0x1c>)
 23f92b2:	1842      	adds	r2, r0, r1
 23f92b4:	f103 040c 	add.w	r4, r3, #12
 23f92b8:	335c      	adds	r3, #92	; 0x5c
 23f92ba:	5044      	str	r4, [r0, r1]
 23f92bc:	60d3      	str	r3, [r2, #12]
 23f92be:	4610      	mov	r0, r2
 23f92c0:	bd10      	pop	{r4, pc}
 23f92c2:	bf00      	nop
 23f92c4:	023fecfc 	.word	0x023fecfc

023f92c8 <_ZN16Adafruit_SSD1351D0Ev>:
 23f92c8:	b510      	push	{r4, lr}
 23f92ca:	4604      	mov	r4, r0
 23f92cc:	4b05      	ldr	r3, [pc, #20]	; (23f92e4 <_ZN16Adafruit_SSD1351D0Ev+0x1c>)
 23f92ce:	2138      	movs	r1, #56	; 0x38
 23f92d0:	f103 020c 	add.w	r2, r3, #12
 23f92d4:	335c      	adds	r3, #92	; 0x5c
 23f92d6:	6002      	str	r2, [r0, #0]
 23f92d8:	60c3      	str	r3, [r0, #12]
 23f92da:	f7ff fbee 	bl	23f8aba <_ZdlPvj>
 23f92de:	4620      	mov	r0, r4
 23f92e0:	bd10      	pop	{r4, pc}
 23f92e2:	bf00      	nop
 23f92e4:	023fecfc 	.word	0x023fecfc

023f92e8 <_ZTv0_n12_N16Adafruit_SSD1351D0Ev>:
 23f92e8:	f8d0 c000 	ldr.w	ip, [r0]
 23f92ec:	f1ac 0c0c 	sub.w	ip, ip, #12
 23f92f0:	f8dc c000 	ldr.w	ip, [ip]
 23f92f4:	4460      	add	r0, ip
 23f92f6:	e7e7      	b.n	23f92c8 <_ZN16Adafruit_SSD1351D0Ev>

023f92f8 <digitalWriteFast>:
    #define pinResetFast(pin) digitalWrite(pin, LOW)

#endif

inline void digitalWriteFast(hal_pin_t pin, uint8_t value)
{
 23f92f8:	b570      	push	{r4, r5, r6, lr}
 23f92fa:	4604      	mov	r4, r0
    if (value)
 23f92fc:	4d26      	ldr	r5, [pc, #152]	; (23f9398 <digitalWriteFast+0xa0>)
 23f92fe:	4e27      	ldr	r6, [pc, #156]	; (23f939c <digitalWriteFast+0xa4>)
 23f9300:	b351      	cbz	r1, 23f9358 <digitalWriteFast+0x60>
    static const hal_pin_info_t* pinMap = hal_pin_map();
 23f9302:	e8d5 3f8f 	ldab	r3, [r5]
 23f9306:	07da      	lsls	r2, r3, #31
 23f9308:	d409      	bmi.n	23f931e <digitalWriteFast+0x26>
 23f930a:	4628      	mov	r0, r5
 23f930c:	f7ff fbe4 	bl	23f8ad8 <__cxa_guard_acquire>
 23f9310:	b128      	cbz	r0, 23f931e <digitalWriteFast+0x26>
 23f9312:	f001 fc0f 	bl	23fab34 <hal_pin_map>
 23f9316:	6030      	str	r0, [r6, #0]
 23f9318:	4628      	mov	r0, r5
 23f931a:	f7ff fbe2 	bl	23f8ae2 <__cxa_guard_release>
    hal_pin_info_t pin_info = fastPinGetPinmap()[_pin];
 23f931e:	200c      	movs	r0, #12
 23f9320:	4344      	muls	r4, r0
 23f9322:	6833      	ldr	r3, [r6, #0]
    GPIO_TypeDef* gpiobase = ((pin_info.gpio_port == RTL_PORT_A) ? GPIOA_BASE : GPIOB_BASE);
 23f9324:	4a1e      	ldr	r2, [pc, #120]	; (23f93a0 <digitalWriteFast+0xa8>)
    hal_pin_info_t pin_info = fastPinGetPinmap()[_pin];
 23f9326:	1919      	adds	r1, r3, r4
    GPIO_TypeDef* gpiobase = ((pin_info.gpio_port == RTL_PORT_A) ? GPIOA_BASE : GPIOB_BASE);
 23f9328:	5d1c      	ldrb	r4, [r3, r4]
 23f932a:	4b1e      	ldr	r3, [pc, #120]	; (23f93a4 <digitalWriteFast+0xac>)
    hal_pin_info_t pin_info = fastPinGetPinmap()[_pin];
 23f932c:	7848      	ldrb	r0, [r1, #1]
    GPIO_TypeDef* gpiobase = ((pin_info.gpio_port == RTL_PORT_A) ? GPIOA_BASE : GPIOB_BASE);
 23f932e:	2c00      	cmp	r4, #0
 23f9330:	bf18      	it	ne
 23f9332:	4613      	movne	r3, r2
        gpiobase->PORT[0].DR |= (1 << pin_info.gpio_pin);
 23f9334:	2201      	movs	r2, #1
    hal_pin_info_t pin_info = fastPinGetPinmap()[_pin];
 23f9336:	7889      	ldrb	r1, [r1, #2]
        gpiobase->PORT[0].DR |= (1 << pin_info.gpio_pin);
 23f9338:	4082      	lsls	r2, r0
    if (pin_info.pin_mode == OUTPUT_OPEN_DRAIN || pin_info.pin_mode == OUTPUT_OPEN_DRAIN_PULLUP) {
 23f933a:	2905      	cmp	r1, #5
 23f933c:	d001      	beq.n	23f9342 <digitalWriteFast+0x4a>
 23f933e:	2908      	cmp	r1, #8
 23f9340:	d104      	bne.n	23f934c <digitalWriteFast+0x54>
        gpiobase->PORT[0].DDR &= (~(1 << pin_info.gpio_pin));
 23f9342:	6859      	ldr	r1, [r3, #4]
 23f9344:	ea21 0202 	bic.w	r2, r1, r2
    gpiobase->PORT[0].DDR |= (1 << pin_info.gpio_pin);
 23f9348:	605a      	str	r2, [r3, #4]
        pinSetFast(pin);
    else
        pinResetFast(pin);
}
 23f934a:	bd70      	pop	{r4, r5, r6, pc}
        gpiobase->PORT[0].DR |= (1 << pin_info.gpio_pin);
 23f934c:	6819      	ldr	r1, [r3, #0]
 23f934e:	4311      	orrs	r1, r2
    gpiobase->PORT[0].DR &= ~(1 << pin_info.gpio_pin);
 23f9350:	6019      	str	r1, [r3, #0]
    gpiobase->PORT[0].DDR |= (1 << pin_info.gpio_pin);
 23f9352:	6859      	ldr	r1, [r3, #4]
 23f9354:	430a      	orrs	r2, r1
 23f9356:	e7f7      	b.n	23f9348 <digitalWriteFast+0x50>
    static const hal_pin_info_t* pinMap = hal_pin_map();
 23f9358:	e8d5 3f8f 	ldab	r3, [r5]
 23f935c:	07db      	lsls	r3, r3, #31
 23f935e:	d409      	bmi.n	23f9374 <digitalWriteFast+0x7c>
 23f9360:	4628      	mov	r0, r5
 23f9362:	f7ff fbb9 	bl	23f8ad8 <__cxa_guard_acquire>
 23f9366:	b128      	cbz	r0, 23f9374 <digitalWriteFast+0x7c>
 23f9368:	f001 fbe4 	bl	23fab34 <hal_pin_map>
 23f936c:	6030      	str	r0, [r6, #0]
 23f936e:	4628      	mov	r0, r5
 23f9370:	f7ff fbb7 	bl	23f8ae2 <__cxa_guard_release>
    hal_pin_info_t pin_info = fastPinGetPinmap()[_pin];
 23f9374:	200c      	movs	r0, #12
 23f9376:	4344      	muls	r4, r0
 23f9378:	6833      	ldr	r3, [r6, #0]
 23f937a:	191a      	adds	r2, r3, r4
    GPIO_TypeDef* gpiobase = ((pin_info.gpio_port == RTL_PORT_A) ? GPIOA_BASE : GPIOB_BASE);
 23f937c:	5d19      	ldrb	r1, [r3, r4]
    hal_pin_info_t pin_info = fastPinGetPinmap()[_pin];
 23f937e:	7850      	ldrb	r0, [r2, #1]
    GPIO_TypeDef* gpiobase = ((pin_info.gpio_port == RTL_PORT_A) ? GPIOA_BASE : GPIOB_BASE);
 23f9380:	4b08      	ldr	r3, [pc, #32]	; (23f93a4 <digitalWriteFast+0xac>)
 23f9382:	4a07      	ldr	r2, [pc, #28]	; (23f93a0 <digitalWriteFast+0xa8>)
 23f9384:	2900      	cmp	r1, #0
 23f9386:	bf18      	it	ne
 23f9388:	4613      	movne	r3, r2
    gpiobase->PORT[0].DR &= ~(1 << pin_info.gpio_pin);
 23f938a:	2201      	movs	r2, #1
 23f938c:	6819      	ldr	r1, [r3, #0]
 23f938e:	4082      	lsls	r2, r0
 23f9390:	ea21 0102 	bic.w	r1, r1, r2
 23f9394:	e7dc      	b.n	23f9350 <digitalWriteFast+0x58>
 23f9396:	bf00      	nop
 23f9398:	1007ae4c 	.word	0x1007ae4c
 23f939c:	1007ae50 	.word	0x1007ae50
 23f93a0:	48014400 	.word	0x48014400
 23f93a4:	48014000 	.word	0x48014000

023f93a8 <_ZN16Adafruit_SSD13518Color565Ehhh>:
  writeCommand(SSD1351_CMD_WRITERAM);
}

uint16_t Adafruit_SSD1351::Color565(uint8_t r, uint8_t g, uint8_t b) {
  uint16_t c;
  c = r >> 3;
 23f93a8:	08c9      	lsrs	r1, r1, #3
  c <<= 6;
  c |= g >> 2;
 23f93aa:	0892      	lsrs	r2, r2, #2
 23f93ac:	ea42 1281 	orr.w	r2, r2, r1, lsl #6
  c <<= 5;
  c |= b >> 3;
 23f93b0:	08db      	lsrs	r3, r3, #3

  return c;
}
 23f93b2:	ea43 1042 	orr.w	r0, r3, r2, lsl #5
 23f93b6:	4770      	bx	lr

023f93b8 <_ZN16Adafruit_SSD1351C1Ehhh>:
    _sclk = sclk;
    _rst = rst;
}

// Hardware SPI
Adafruit_SSD1351::Adafruit_SSD1351(uint8_t cs, uint8_t rs,  uint8_t rst) : Adafruit_GFX(SSD1351WIDTH, SSD1351HEIGHT) {
 23f93b8:	b5f8      	push	{r3, r4, r5, r6, r7, lr}
 23f93ba:	4616      	mov	r6, r2
 23f93bc:	2280      	movs	r2, #128	; 0x80
 23f93be:	4604      	mov	r4, r0
 23f93c0:	460f      	mov	r7, r1
 23f93c2:	300c      	adds	r0, #12
 23f93c4:	4611      	mov	r1, r2
 23f93c6:	461d      	mov	r5, r3
 23f93c8:	f000 fdc6 	bl	23f9f58 <_ZN12Adafruit_GFXC1Ess>
 23f93cc:	4806      	ldr	r0, [pc, #24]	; (23f93e8 <_ZN16Adafruit_SSD1351C1Ehhh+0x30>)
    _cs = cs;
 23f93ce:	7127      	strb	r7, [r4, #4]
Adafruit_SSD1351::Adafruit_SSD1351(uint8_t cs, uint8_t rs,  uint8_t rst) : Adafruit_GFX(SSD1351WIDTH, SSD1351HEIGHT) {
 23f93d0:	f100 030c 	add.w	r3, r0, #12
 23f93d4:	6023      	str	r3, [r4, #0]
    _rs = rs;
    _sid = 0;
 23f93d6:	2300      	movs	r3, #0
Adafruit_SSD1351::Adafruit_SSD1351(uint8_t cs, uint8_t rs,  uint8_t rst) : Adafruit_GFX(SSD1351WIDTH, SSD1351HEIGHT) {
 23f93d8:	305c      	adds	r0, #92	; 0x5c
 23f93da:	60e0      	str	r0, [r4, #12]
    _rs = rs;
 23f93dc:	7166      	strb	r6, [r4, #5]
    _sclk = 0;
    _rst = rst;
}
 23f93de:	4620      	mov	r0, r4
    _sid = 0;
 23f93e0:	71e3      	strb	r3, [r4, #7]
    _sclk = 0;
 23f93e2:	7223      	strb	r3, [r4, #8]
    _rst = rst;
 23f93e4:	71a5      	strb	r5, [r4, #6]
}
 23f93e6:	bdf8      	pop	{r3, r4, r5, r6, r7, pc}
 23f93e8:	023fecfc 	.word	0x023fecfc

023f93ec <_ZN8particle8SpiProxyIL19hal_spi_interface_t0EE8instanceEv>:
namespace particle {

template <hal_spi_interface_t Interface>
class SpiProxy {
public:
    static SPIClass& instance() {
 23f93ec:	b513      	push	{r0, r1, r4, lr}
        static SPIClass instance(Interface);
 23f93ee:	4c0a      	ldr	r4, [pc, #40]	; (23f9418 <_ZN8particle8SpiProxyIL19hal_spi_interface_t0EE8instanceEv+0x2c>)
 23f93f0:	e8d4 1f8f 	ldab	r1, [r4]
 23f93f4:	f011 0101 	ands.w	r1, r1, #1
 23f93f8:	d10b      	bne.n	23f9412 <_ZN8particle8SpiProxyIL19hal_spi_interface_t0EE8instanceEv+0x26>
 23f93fa:	4620      	mov	r0, r4
 23f93fc:	9101      	str	r1, [sp, #4]
 23f93fe:	f7ff fb6b 	bl	23f8ad8 <__cxa_guard_acquire>
 23f9402:	9901      	ldr	r1, [sp, #4]
 23f9404:	b128      	cbz	r0, 23f9412 <_ZN8particle8SpiProxyIL19hal_spi_interface_t0EE8instanceEv+0x26>
 23f9406:	4805      	ldr	r0, [pc, #20]	; (23f941c <_ZN8particle8SpiProxyIL19hal_spi_interface_t0EE8instanceEv+0x30>)
 23f9408:	f002 f9b2 	bl	23fb770 <_ZN8SPIClassC1E19hal_spi_interface_t>
 23f940c:	4620      	mov	r0, r4
 23f940e:	f7ff fb68 	bl	23f8ae2 <__cxa_guard_release>
        return instance;
    }
 23f9412:	4802      	ldr	r0, [pc, #8]	; (23f941c <_ZN8particle8SpiProxyIL19hal_spi_interface_t0EE8instanceEv+0x30>)
 23f9414:	b002      	add	sp, #8
 23f9416:	bd10      	pop	{r4, pc}
 23f9418:	1007ae40 	.word	0x1007ae40
 23f941c:	1007ae44 	.word	0x1007ae44

023f9420 <_ZN16Adafruit_SSD13518spiwriteEh>:
inline void Adafruit_SSD1351::spiwrite(uint8_t c) {
 23f9420:	e92d 4ff8 	stmdb	sp!, {r3, r4, r5, r6, r7, r8, r9, sl, fp, lr}
    if (!_sid) {
 23f9424:	79c3      	ldrb	r3, [r0, #7]
inline void Adafruit_SSD1351::spiwrite(uint8_t c) {
 23f9426:	4607      	mov	r7, r0
 23f9428:	4689      	mov	r9, r1
    if (!_sid) {
 23f942a:	b933      	cbnz	r3, 23f943a <_ZN16Adafruit_SSD13518spiwriteEh+0x1a>
    }
    static void computeClockDivider(unsigned reference, unsigned targetSpeed, uint8_t& divider, unsigned& clock) {
        instance().computeClockDivider(reference, targetSpeed, divider, clock);
    }
    byte transfer(byte data) {
        return instance().transfer(data);
 23f942c:	f7ff ffde 	bl	23f93ec <_ZN8particle8SpiProxyIL19hal_spi_interface_t0EE8instanceEv>
 23f9430:	4649      	mov	r1, r9
}
 23f9432:	e8bd 4ff8 	ldmia.w	sp!, {r3, r4, r5, r6, r7, r8, r9, sl, fp, lr}
 23f9436:	f002 ba3b 	b.w	23fb8b0 <_ZN8SPIClass8transferEh>
 23f943a:	f04f 0807 	mov.w	r8, #7
    static const hal_pin_info_t* pinMap = hal_pin_map();
 23f943e:	4c58      	ldr	r4, [pc, #352]	; (23f95a0 <_ZN16Adafruit_SSD13518spiwriteEh+0x180>)
    GPIO_TypeDef* gpiobase = ((pin_info.gpio_port == RTL_PORT_A) ? GPIOA_BASE : GPIOB_BASE);
 23f9440:	f8df a164 	ldr.w	sl, [pc, #356]	; 23f95a8 <_ZN16Adafruit_SSD13518spiwriteEh+0x188>
 23f9444:	f8df b164 	ldr.w	fp, [pc, #356]	; 23f95ac <_ZN16Adafruit_SSD13518spiwriteEh+0x18c>
		pinResetFast(_sclk);
 23f9448:	7a3d      	ldrb	r5, [r7, #8]
    static const hal_pin_info_t* pinMap = hal_pin_map();
 23f944a:	e8d4 3f8f 	ldab	r3, [r4]
 23f944e:	f013 0f01 	tst.w	r3, #1
 23f9452:	4e54      	ldr	r6, [pc, #336]	; (23f95a4 <_ZN16Adafruit_SSD13518spiwriteEh+0x184>)
 23f9454:	d109      	bne.n	23f946a <_ZN16Adafruit_SSD13518spiwriteEh+0x4a>
 23f9456:	4620      	mov	r0, r4
 23f9458:	f7ff fb3e 	bl	23f8ad8 <__cxa_guard_acquire>
 23f945c:	b128      	cbz	r0, 23f946a <_ZN16Adafruit_SSD13518spiwriteEh+0x4a>
 23f945e:	f001 fb69 	bl	23fab34 <hal_pin_map>
 23f9462:	6030      	str	r0, [r6, #0]
 23f9464:	4620      	mov	r0, r4
 23f9466:	f7ff fb3c 	bl	23f8ae2 <__cxa_guard_release>
    hal_pin_info_t pin_info = fastPinGetPinmap()[_pin];
 23f946a:	6832      	ldr	r2, [r6, #0]
 23f946c:	eb05 0545 	add.w	r5, r5, r5, lsl #1
 23f9470:	eb02 0385 	add.w	r3, r2, r5, lsl #2
 23f9474:	7858      	ldrb	r0, [r3, #1]
    GPIO_TypeDef* gpiobase = ((pin_info.gpio_port == RTL_PORT_A) ? GPIOA_BASE : GPIOB_BASE);
 23f9476:	f812 3025 	ldrb.w	r3, [r2, r5, lsl #2]
 23f947a:	2b00      	cmp	r3, #0
 23f947c:	bf0c      	ite	eq
 23f947e:	4652      	moveq	r2, sl
 23f9480:	465a      	movne	r2, fp
    gpiobase->PORT[0].DR &= ~(1 << pin_info.gpio_pin);
 23f9482:	2301      	movs	r3, #1
 23f9484:	6811      	ldr	r1, [r2, #0]
 23f9486:	4083      	lsls	r3, r0
 23f9488:	ea21 0103 	bic.w	r1, r1, r3
 23f948c:	6011      	str	r1, [r2, #0]
    gpiobase->PORT[0].DDR |= (1 << pin_info.gpio_pin);
 23f948e:	6851      	ldr	r1, [r2, #4]
 23f9490:	430b      	orrs	r3, r1
 23f9492:	6053      	str	r3, [r2, #4]
		if (c & (1 << (7-bit)))		// walk down mask from bit 7 to bit 0
 23f9494:	fa49 f308 	asr.w	r3, r9, r8
 23f9498:	f013 0f01 	tst.w	r3, #1
 23f949c:	79fd      	ldrb	r5, [r7, #7]
 23f949e:	d055      	beq.n	23f954c <_ZN16Adafruit_SSD13518spiwriteEh+0x12c>
    static const hal_pin_info_t* pinMap = hal_pin_map();
 23f94a0:	e8d4 3f8f 	ldab	r3, [r4]
 23f94a4:	07d9      	lsls	r1, r3, #31
 23f94a6:	d409      	bmi.n	23f94bc <_ZN16Adafruit_SSD13518spiwriteEh+0x9c>
 23f94a8:	4620      	mov	r0, r4
 23f94aa:	f7ff fb15 	bl	23f8ad8 <__cxa_guard_acquire>
 23f94ae:	b128      	cbz	r0, 23f94bc <_ZN16Adafruit_SSD13518spiwriteEh+0x9c>
 23f94b0:	f001 fb40 	bl	23fab34 <hal_pin_map>
 23f94b4:	6030      	str	r0, [r6, #0]
 23f94b6:	4620      	mov	r0, r4
 23f94b8:	f7ff fb13 	bl	23f8ae2 <__cxa_guard_release>
    hal_pin_info_t pin_info = fastPinGetPinmap()[_pin];
 23f94bc:	6832      	ldr	r2, [r6, #0]
 23f94be:	eb05 0545 	add.w	r5, r5, r5, lsl #1
    GPIO_TypeDef* gpiobase = ((pin_info.gpio_port == RTL_PORT_A) ? GPIOA_BASE : GPIOB_BASE);
 23f94c2:	f812 3025 	ldrb.w	r3, [r2, r5, lsl #2]
    hal_pin_info_t pin_info = fastPinGetPinmap()[_pin];
 23f94c6:	eb02 0185 	add.w	r1, r2, r5, lsl #2
    GPIO_TypeDef* gpiobase = ((pin_info.gpio_port == RTL_PORT_A) ? GPIOA_BASE : GPIOB_BASE);
 23f94ca:	2b00      	cmp	r3, #0
 23f94cc:	bf0c      	ite	eq
 23f94ce:	4652      	moveq	r2, sl
 23f94d0:	465a      	movne	r2, fp
        gpiobase->PORT[0].DR |= (1 << pin_info.gpio_pin);
 23f94d2:	2301      	movs	r3, #1
    hal_pin_info_t pin_info = fastPinGetPinmap()[_pin];
 23f94d4:	7848      	ldrb	r0, [r1, #1]
 23f94d6:	7889      	ldrb	r1, [r1, #2]
        gpiobase->PORT[0].DR |= (1 << pin_info.gpio_pin);
 23f94d8:	4083      	lsls	r3, r0
    if (pin_info.pin_mode == OUTPUT_OPEN_DRAIN || pin_info.pin_mode == OUTPUT_OPEN_DRAIN_PULLUP) {
 23f94da:	2905      	cmp	r1, #5
 23f94dc:	d001      	beq.n	23f94e2 <_ZN16Adafruit_SSD13518spiwriteEh+0xc2>
 23f94de:	2908      	cmp	r1, #8
 23f94e0:	d12e      	bne.n	23f9540 <_ZN16Adafruit_SSD13518spiwriteEh+0x120>
        gpiobase->PORT[0].DDR &= (~(1 << pin_info.gpio_pin));
 23f94e2:	6851      	ldr	r1, [r2, #4]
 23f94e4:	ea21 0303 	bic.w	r3, r1, r3
        gpiobase->PORT[0].DDR |= (1 << pin_info.gpio_pin);
 23f94e8:	6053      	str	r3, [r2, #4]
		pinSetFast(_sclk);
 23f94ea:	7a3d      	ldrb	r5, [r7, #8]
    static const hal_pin_info_t* pinMap = hal_pin_map();
 23f94ec:	e8d4 3f8f 	ldab	r3, [r4]
 23f94f0:	07db      	lsls	r3, r3, #31
 23f94f2:	d409      	bmi.n	23f9508 <_ZN16Adafruit_SSD13518spiwriteEh+0xe8>
 23f94f4:	4620      	mov	r0, r4
 23f94f6:	f7ff faef 	bl	23f8ad8 <__cxa_guard_acquire>
 23f94fa:	b128      	cbz	r0, 23f9508 <_ZN16Adafruit_SSD13518spiwriteEh+0xe8>
 23f94fc:	f001 fb1a 	bl	23fab34 <hal_pin_map>
 23f9500:	6030      	str	r0, [r6, #0]
 23f9502:	4620      	mov	r0, r4
 23f9504:	f7ff faed 	bl	23f8ae2 <__cxa_guard_release>
    hal_pin_info_t pin_info = fastPinGetPinmap()[_pin];
 23f9508:	6830      	ldr	r0, [r6, #0]
 23f950a:	eb05 0245 	add.w	r2, r5, r5, lsl #1
    GPIO_TypeDef* gpiobase = ((pin_info.gpio_port == RTL_PORT_A) ? GPIOA_BASE : GPIOB_BASE);
 23f950e:	f810 3022 	ldrb.w	r3, [r0, r2, lsl #2]
    hal_pin_info_t pin_info = fastPinGetPinmap()[_pin];
 23f9512:	eb00 0182 	add.w	r1, r0, r2, lsl #2
    GPIO_TypeDef* gpiobase = ((pin_info.gpio_port == RTL_PORT_A) ? GPIOA_BASE : GPIOB_BASE);
 23f9516:	2b00      	cmp	r3, #0
 23f9518:	bf0c      	ite	eq
 23f951a:	4652      	moveq	r2, sl
 23f951c:	465a      	movne	r2, fp
        gpiobase->PORT[0].DR |= (1 << pin_info.gpio_pin);
 23f951e:	2301      	movs	r3, #1
    hal_pin_info_t pin_info = fastPinGetPinmap()[_pin];
 23f9520:	784d      	ldrb	r5, [r1, #1]
 23f9522:	7889      	ldrb	r1, [r1, #2]
        gpiobase->PORT[0].DR |= (1 << pin_info.gpio_pin);
 23f9524:	40ab      	lsls	r3, r5
    if (pin_info.pin_mode == OUTPUT_OPEN_DRAIN || pin_info.pin_mode == OUTPUT_OPEN_DRAIN_PULLUP) {
 23f9526:	2905      	cmp	r1, #5
 23f9528:	d001      	beq.n	23f952e <_ZN16Adafruit_SSD13518spiwriteEh+0x10e>
 23f952a:	2908      	cmp	r1, #8
 23f952c:	d132      	bne.n	23f9594 <_ZN16Adafruit_SSD13518spiwriteEh+0x174>
        gpiobase->PORT[0].DDR &= (~(1 << pin_info.gpio_pin));
 23f952e:	6851      	ldr	r1, [r2, #4]
 23f9530:	ea21 0303 	bic.w	r3, r1, r3
	for (uint8_t bit = 0; bit < 8; bit++)  {
 23f9534:	f1b8 0801 	subs.w	r8, r8, #1
        gpiobase->PORT[0].DDR |= (1 << pin_info.gpio_pin);
 23f9538:	6053      	str	r3, [r2, #4]
 23f953a:	d285      	bcs.n	23f9448 <_ZN16Adafruit_SSD13518spiwriteEh+0x28>
}
 23f953c:	e8bd 8ff8 	ldmia.w	sp!, {r3, r4, r5, r6, r7, r8, r9, sl, fp, pc}
        gpiobase->PORT[0].DR |= (1 << pin_info.gpio_pin);
 23f9540:	6811      	ldr	r1, [r2, #0]
 23f9542:	4319      	orrs	r1, r3
 23f9544:	6011      	str	r1, [r2, #0]
        gpiobase->PORT[0].DDR |= (1 << pin_info.gpio_pin);
 23f9546:	6851      	ldr	r1, [r2, #4]
 23f9548:	430b      	orrs	r3, r1
 23f954a:	e7cd      	b.n	23f94e8 <_ZN16Adafruit_SSD13518spiwriteEh+0xc8>
    static const hal_pin_info_t* pinMap = hal_pin_map();
 23f954c:	e8d4 3f8f 	ldab	r3, [r4]
 23f9550:	07da      	lsls	r2, r3, #31
 23f9552:	d409      	bmi.n	23f9568 <_ZN16Adafruit_SSD13518spiwriteEh+0x148>
 23f9554:	4620      	mov	r0, r4
 23f9556:	f7ff fabf 	bl	23f8ad8 <__cxa_guard_acquire>
 23f955a:	b128      	cbz	r0, 23f9568 <_ZN16Adafruit_SSD13518spiwriteEh+0x148>
 23f955c:	f001 faea 	bl	23fab34 <hal_pin_map>
 23f9560:	6030      	str	r0, [r6, #0]
 23f9562:	4620      	mov	r0, r4
 23f9564:	f7ff fabd 	bl	23f8ae2 <__cxa_guard_release>
    hal_pin_info_t pin_info = fastPinGetPinmap()[_pin];
 23f9568:	6832      	ldr	r2, [r6, #0]
 23f956a:	eb05 0545 	add.w	r5, r5, r5, lsl #1
 23f956e:	eb02 0385 	add.w	r3, r2, r5, lsl #2
 23f9572:	7858      	ldrb	r0, [r3, #1]
    GPIO_TypeDef* gpiobase = ((pin_info.gpio_port == RTL_PORT_A) ? GPIOA_BASE : GPIOB_BASE);
 23f9574:	f812 3025 	ldrb.w	r3, [r2, r5, lsl #2]
 23f9578:	2b00      	cmp	r3, #0
 23f957a:	bf0c      	ite	eq
 23f957c:	4651      	moveq	r1, sl
 23f957e:	4659      	movne	r1, fp
    gpiobase->PORT[0].DR &= ~(1 << pin_info.gpio_pin);
 23f9580:	2301      	movs	r3, #1
 23f9582:	680a      	ldr	r2, [r1, #0]
 23f9584:	4083      	lsls	r3, r0
 23f9586:	ea22 0203 	bic.w	r2, r2, r3
 23f958a:	600a      	str	r2, [r1, #0]
    gpiobase->PORT[0].DDR |= (1 << pin_info.gpio_pin);
 23f958c:	684a      	ldr	r2, [r1, #4]
 23f958e:	4313      	orrs	r3, r2
 23f9590:	604b      	str	r3, [r1, #4]
}
 23f9592:	e7aa      	b.n	23f94ea <_ZN16Adafruit_SSD13518spiwriteEh+0xca>
        gpiobase->PORT[0].DR |= (1 << pin_info.gpio_pin);
 23f9594:	6811      	ldr	r1, [r2, #0]
 23f9596:	4319      	orrs	r1, r3
 23f9598:	6011      	str	r1, [r2, #0]
        gpiobase->PORT[0].DDR |= (1 << pin_info.gpio_pin);
 23f959a:	6851      	ldr	r1, [r2, #4]
 23f959c:	430b      	orrs	r3, r1
 23f959e:	e7c9      	b.n	23f9534 <_ZN16Adafruit_SSD13518spiwriteEh+0x114>
 23f95a0:	1007ae4c 	.word	0x1007ae4c
 23f95a4:	1007ae50 	.word	0x1007ae50
 23f95a8:	48014000 	.word	0x48014000
 23f95ac:	48014400 	.word	0x48014400

023f95b0 <_ZN16Adafruit_SSD135112writeCommandEh>:
void Adafruit_SSD1351::writeCommand(uint8_t c) {
 23f95b0:	b538      	push	{r3, r4, r5, lr}
 23f95b2:	4604      	mov	r4, r0
 23f95b4:	460d      	mov	r5, r1
    digitalWriteFast(_rs, LOW);
 23f95b6:	7940      	ldrb	r0, [r0, #5]
 23f95b8:	2100      	movs	r1, #0
 23f95ba:	f7ff fe9d 	bl	23f92f8 <digitalWriteFast>
    digitalWriteFast(_cs, LOW);
 23f95be:	7920      	ldrb	r0, [r4, #4]
 23f95c0:	2100      	movs	r1, #0
 23f95c2:	f7ff fe99 	bl	23f92f8 <digitalWriteFast>
    spiwrite(c);
 23f95c6:	4629      	mov	r1, r5
 23f95c8:	4620      	mov	r0, r4
 23f95ca:	f7ff ff29 	bl	23f9420 <_ZN16Adafruit_SSD13518spiwriteEh>
    digitalWriteFast(_cs, HIGH);
 23f95ce:	2101      	movs	r1, #1
 23f95d0:	7920      	ldrb	r0, [r4, #4]
 23f95d2:	f7ff fe91 	bl	23f92f8 <digitalWriteFast>
}
 23f95d6:	bd38      	pop	{r3, r4, r5, pc}

023f95d8 <_ZN16Adafruit_SSD13519writeDataEh>:
void Adafruit_SSD1351::writeData(uint8_t c) {
 23f95d8:	b538      	push	{r3, r4, r5, lr}
 23f95da:	4604      	mov	r4, r0
 23f95dc:	460d      	mov	r5, r1
    digitalWriteFast(_rs, HIGH);
 23f95de:	7940      	ldrb	r0, [r0, #5]
 23f95e0:	2101      	movs	r1, #1
 23f95e2:	f7ff fe89 	bl	23f92f8 <digitalWriteFast>
    digitalWriteFast(_cs, LOW);
 23f95e6:	7920      	ldrb	r0, [r4, #4]
 23f95e8:	2100      	movs	r1, #0
 23f95ea:	f7ff fe85 	bl	23f92f8 <digitalWriteFast>
    spiwrite(c);
 23f95ee:	4629      	mov	r1, r5
 23f95f0:	4620      	mov	r0, r4
 23f95f2:	f7ff ff15 	bl	23f9420 <_ZN16Adafruit_SSD13518spiwriteEh>
    digitalWriteFast(_cs, HIGH);
 23f95f6:	2101      	movs	r1, #1
 23f95f8:	7920      	ldrb	r0, [r4, #4]
 23f95fa:	f7ff fe7d 	bl	23f92f8 <digitalWriteFast>
}
 23f95fe:	bd38      	pop	{r3, r4, r5, pc}

023f9600 <_ZN16Adafruit_SSD13514goToEii>:
  if ((x >= SSD1351WIDTH) || (y >= SSD1351HEIGHT)) return;
 23f9600:	297f      	cmp	r1, #127	; 0x7f
void Adafruit_SSD1351::goTo(int x, int y) {
 23f9602:	b570      	push	{r4, r5, r6, lr}
 23f9604:	4604      	mov	r4, r0
 23f9606:	460e      	mov	r6, r1
 23f9608:	4615      	mov	r5, r2
  if ((x >= SSD1351WIDTH) || (y >= SSD1351HEIGHT)) return;
 23f960a:	dc1e      	bgt.n	23f964a <_ZN16Adafruit_SSD13514goToEii+0x4a>
 23f960c:	2a7f      	cmp	r2, #127	; 0x7f
 23f960e:	dc1c      	bgt.n	23f964a <_ZN16Adafruit_SSD13514goToEii+0x4a>
  writeCommand(SSD1351_CMD_SETCOLUMN);
 23f9610:	2115      	movs	r1, #21
 23f9612:	f7ff ffcd 	bl	23f95b0 <_ZN16Adafruit_SSD135112writeCommandEh>
  writeData(x);
 23f9616:	4620      	mov	r0, r4
 23f9618:	b2f1      	uxtb	r1, r6
 23f961a:	f7ff ffdd 	bl	23f95d8 <_ZN16Adafruit_SSD13519writeDataEh>
  writeData(SSD1351WIDTH-1);
 23f961e:	4620      	mov	r0, r4
 23f9620:	217f      	movs	r1, #127	; 0x7f
 23f9622:	f7ff ffd9 	bl	23f95d8 <_ZN16Adafruit_SSD13519writeDataEh>
  writeCommand(SSD1351_CMD_SETROW);
 23f9626:	4620      	mov	r0, r4
 23f9628:	2175      	movs	r1, #117	; 0x75
 23f962a:	f7ff ffc1 	bl	23f95b0 <_ZN16Adafruit_SSD135112writeCommandEh>
  writeData(y);
 23f962e:	4620      	mov	r0, r4
 23f9630:	b2e9      	uxtb	r1, r5
 23f9632:	f7ff ffd1 	bl	23f95d8 <_ZN16Adafruit_SSD13519writeDataEh>
  writeData(SSD1351HEIGHT-1);
 23f9636:	4620      	mov	r0, r4
 23f9638:	217f      	movs	r1, #127	; 0x7f
 23f963a:	f7ff ffcd 	bl	23f95d8 <_ZN16Adafruit_SSD13519writeDataEh>
  writeCommand(SSD1351_CMD_WRITERAM);
 23f963e:	4620      	mov	r0, r4
}
 23f9640:	e8bd 4070 	ldmia.w	sp!, {r4, r5, r6, lr}
  writeCommand(SSD1351_CMD_WRITERAM);
 23f9644:	215c      	movs	r1, #92	; 0x5c
 23f9646:	f7ff bfb3 	b.w	23f95b0 <_ZN16Adafruit_SSD135112writeCommandEh>
}
 23f964a:	bd70      	pop	{r4, r5, r6, pc}

023f964c <_ZN16Adafruit_SSD135111rawFillRectEttttt>:
void Adafruit_SSD1351::rawFillRect(uint16_t x, uint16_t y, uint16_t w, uint16_t h, uint16_t fillcolor) {
 23f964c:	e92d 43f8 	stmdb	sp!, {r3, r4, r5, r6, r7, r8, r9, lr}
  if ((x >= SSD1351WIDTH) || (y >= SSD1351HEIGHT))
 23f9650:	297f      	cmp	r1, #127	; 0x7f
void Adafruit_SSD1351::rawFillRect(uint16_t x, uint16_t y, uint16_t w, uint16_t h, uint16_t fillcolor) {
 23f9652:	4606      	mov	r6, r0
 23f9654:	460d      	mov	r5, r1
 23f9656:	4614      	mov	r4, r2
 23f9658:	461f      	mov	r7, r3
 23f965a:	f8bd 8020 	ldrh.w	r8, [sp, #32]
 23f965e:	f8bd 9024 	ldrh.w	r9, [sp, #36]	; 0x24
  if ((x >= SSD1351WIDTH) || (y >= SSD1351HEIGHT))
 23f9662:	d849      	bhi.n	23f96f8 <_ZN16Adafruit_SSD135111rawFillRectEttttt+0xac>
 23f9664:	2a7f      	cmp	r2, #127	; 0x7f
 23f9666:	d847      	bhi.n	23f96f8 <_ZN16Adafruit_SSD135111rawFillRectEttttt+0xac>
  if (y+h > SSD1351HEIGHT)
 23f9668:	eb02 0308 	add.w	r3, r2, r8
 23f966c:	2b80      	cmp	r3, #128	; 0x80
    h = SSD1351HEIGHT - y - 1;
 23f966e:	bfc8      	it	gt
 23f9670:	f1c2 087f 	rsbgt	r8, r2, #127	; 0x7f
  if (x+w > SSD1351WIDTH)
 23f9674:	eb01 0307 	add.w	r3, r1, r7
    h = SSD1351HEIGHT - y - 1;
 23f9678:	bfc8      	it	gt
 23f967a:	fa1f f888 	uxthgt.w	r8, r8
  if (x+w > SSD1351WIDTH)
 23f967e:	2b80      	cmp	r3, #128	; 0x80
    w = SSD1351WIDTH - x - 1;
 23f9680:	bfc8      	it	gt
 23f9682:	f1c1 077f 	rsbgt	r7, r1, #127	; 0x7f
  writeData(x);
 23f9686:	b2ed      	uxtb	r5, r5
  writeCommand(SSD1351_CMD_SETCOLUMN);
 23f9688:	f04f 0115 	mov.w	r1, #21
    w = SSD1351WIDTH - x - 1;
 23f968c:	bfc8      	it	gt
 23f968e:	b2bf      	uxthgt	r7, r7
  writeCommand(SSD1351_CMD_SETCOLUMN);
 23f9690:	f7ff ff8e 	bl	23f95b0 <_ZN16Adafruit_SSD135112writeCommandEh>
  writeData(x);
 23f9694:	4629      	mov	r1, r5
 23f9696:	4630      	mov	r0, r6
  writeData(x+w-1);
 23f9698:	3d01      	subs	r5, #1
  writeData(x);
 23f969a:	f7ff ff9d 	bl	23f95d8 <_ZN16Adafruit_SSD13519writeDataEh>
  writeData(x+w-1);
 23f969e:	19e9      	adds	r1, r5, r7
 23f96a0:	4630      	mov	r0, r6
 23f96a2:	b2c9      	uxtb	r1, r1
 23f96a4:	f7ff ff98 	bl	23f95d8 <_ZN16Adafruit_SSD13519writeDataEh>
  writeData(y);
 23f96a8:	b2e4      	uxtb	r4, r4
  writeCommand(SSD1351_CMD_SETROW);
 23f96aa:	2175      	movs	r1, #117	; 0x75
 23f96ac:	4630      	mov	r0, r6
 23f96ae:	f7ff ff7f 	bl	23f95b0 <_ZN16Adafruit_SSD135112writeCommandEh>
  writeData(y);
 23f96b2:	4621      	mov	r1, r4
  writeData(y+h-1);
 23f96b4:	3c01      	subs	r4, #1
  writeData(y);
 23f96b6:	4630      	mov	r0, r6
  writeData(y+h-1);
 23f96b8:	4444      	add	r4, r8
  writeData(y);
 23f96ba:	f7ff ff8d 	bl	23f95d8 <_ZN16Adafruit_SSD13519writeDataEh>
  writeData(y+h-1);
 23f96be:	b2e1      	uxtb	r1, r4
 23f96c0:	4630      	mov	r0, r6
 23f96c2:	f7ff ff89 	bl	23f95d8 <_ZN16Adafruit_SSD13519writeDataEh>
  writeCommand(SSD1351_CMD_WRITERAM);
 23f96c6:	215c      	movs	r1, #92	; 0x5c
 23f96c8:	4630      	mov	r0, r6
 23f96ca:	f7ff ff71 	bl	23f95b0 <_ZN16Adafruit_SSD135112writeCommandEh>
    writeData(fillcolor >> 8);
 23f96ce:	2400      	movs	r4, #0
  for (uint16_t i=0; i < w*h; i++) {
 23f96d0:	fb08 f707 	mul.w	r7, r8, r7
    writeData(fillcolor >> 8);
 23f96d4:	ea4f 2519 	mov.w	r5, r9, lsr #8
    writeData(fillcolor);
 23f96d8:	fa5f f989 	uxtb.w	r9, r9
  for (uint16_t i=0; i < w*h; i++) {
 23f96dc:	b2a3      	uxth	r3, r4
 23f96de:	42bb      	cmp	r3, r7
 23f96e0:	f104 0401 	add.w	r4, r4, #1
 23f96e4:	da08      	bge.n	23f96f8 <_ZN16Adafruit_SSD135111rawFillRectEttttt+0xac>
    writeData(fillcolor >> 8);
 23f96e6:	4629      	mov	r1, r5
 23f96e8:	4630      	mov	r0, r6
 23f96ea:	f7ff ff75 	bl	23f95d8 <_ZN16Adafruit_SSD13519writeDataEh>
    writeData(fillcolor);
 23f96ee:	4649      	mov	r1, r9
 23f96f0:	4630      	mov	r0, r6
 23f96f2:	f7ff ff71 	bl	23f95d8 <_ZN16Adafruit_SSD13519writeDataEh>
  for (uint16_t i=0; i < w*h; i++) {
 23f96f6:	e7f1      	b.n	23f96dc <_ZN16Adafruit_SSD135111rawFillRectEttttt+0x90>
}
 23f96f8:	e8bd 83f8 	ldmia.w	sp!, {r3, r4, r5, r6, r7, r8, r9, pc}

023f96fc <_ZN16Adafruit_SSD13518fillRectEttttt>:
void Adafruit_SSD1351::fillRect(uint16_t x, uint16_t y, uint16_t w, uint16_t h, uint16_t fillcolor) {
 23f96fc:	e92d 47f0 	stmdb	sp!, {r4, r5, r6, r7, r8, r9, sl, lr}
 23f9700:	4604      	mov	r4, r0
 23f9702:	461f      	mov	r7, r3
  switch (getRotation()) {
 23f9704:	6803      	ldr	r3, [r0, #0]
void Adafruit_SSD1351::fillRect(uint16_t x, uint16_t y, uint16_t w, uint16_t h, uint16_t fillcolor) {
 23f9706:	460e      	mov	r6, r1
  switch (getRotation()) {
 23f9708:	f853 0c0c 	ldr.w	r0, [r3, #-12]
void Adafruit_SSD1351::fillRect(uint16_t x, uint16_t y, uint16_t w, uint16_t h, uint16_t fillcolor) {
 23f970c:	4615      	mov	r5, r2
  switch (getRotation()) {
 23f970e:	4420      	add	r0, r4
void Adafruit_SSD1351::fillRect(uint16_t x, uint16_t y, uint16_t w, uint16_t h, uint16_t fillcolor) {
 23f9710:	f8bd 8020 	ldrh.w	r8, [sp, #32]
 23f9714:	f8bd 9024 	ldrh.w	r9, [sp, #36]	; 0x24
  switch (getRotation()) {
 23f9718:	f000 fda8 	bl	23fa26c <_ZN12Adafruit_GFX11getRotationEv>
 23f971c:	2803      	cmp	r0, #3
 23f971e:	d836      	bhi.n	23f978e <_ZN16Adafruit_SSD13518fillRectEttttt+0x92>
 23f9720:	e8df f000 	tbb	[pc, r0]
 23f9724:	28190c02 	.word	0x28190c02
    rawFillRect(x, y, w, h, fillcolor);
 23f9728:	463b      	mov	r3, r7
 23f972a:	462a      	mov	r2, r5
 23f972c:	4631      	mov	r1, r6
 23f972e:	e9cd 8908 	strd	r8, r9, [sp, #32]
    rawFillRect(x, y, h, w, fillcolor);
 23f9732:	4620      	mov	r0, r4
}
 23f9734:	e8bd 47f0 	ldmia.w	sp!, {r4, r5, r6, r7, r8, r9, sl, lr}
    rawFillRect(x, y, h, w, fillcolor);
 23f9738:	f7ff bf88 	b.w	23f964c <_ZN16Adafruit_SSD135111rawFillRectEttttt>
    x = WIDTH - x - h;
 23f973c:	6823      	ldr	r3, [r4, #0]
    rawFillRect(x, y, h, w, fillcolor);
 23f973e:	4632      	mov	r2, r6
    x = WIDTH - x - h;
 23f9740:	f853 3c0c 	ldr.w	r3, [r3, #-12]
 23f9744:	4445      	add	r5, r8
 23f9746:	4423      	add	r3, r4
 23f9748:	8919      	ldrh	r1, [r3, #8]
    rawFillRect(x, y, h, w, fillcolor);
 23f974a:	4643      	mov	r3, r8
 23f974c:	e9cd 7908 	strd	r7, r9, [sp, #32]
    x = WIDTH - x - h;
 23f9750:	1b49      	subs	r1, r1, r5
    rawFillRect(x, y, w, h, fillcolor);
 23f9752:	b289      	uxth	r1, r1
 23f9754:	e7ed      	b.n	23f9732 <_ZN16Adafruit_SSD13518fillRectEttttt+0x36>
    x = WIDTH - x - w;
 23f9756:	6823      	ldr	r3, [r4, #0]
    y = HEIGHT - y - h;
 23f9758:	4445      	add	r5, r8
    x = WIDTH - x - w;
 23f975a:	f853 3c0c 	ldr.w	r3, [r3, #-12]
 23f975e:	443e      	add	r6, r7
 23f9760:	4423      	add	r3, r4
    y = HEIGHT - y - h;
 23f9762:	895a      	ldrh	r2, [r3, #10]
    x = WIDTH - x - w;
 23f9764:	8919      	ldrh	r1, [r3, #8]
    y = HEIGHT - y - h;
 23f9766:	1b52      	subs	r2, r2, r5
    rawFillRect(x, y, w, h, fillcolor);
 23f9768:	463b      	mov	r3, r7
 23f976a:	e9cd 8908 	strd	r8, r9, [sp, #32]
    x = WIDTH - x - w;
 23f976e:	1b89      	subs	r1, r1, r6
    rawFillRect(x, y, w, h, fillcolor);
 23f9770:	b292      	uxth	r2, r2
 23f9772:	e7ee      	b.n	23f9752 <_ZN16Adafruit_SSD13518fillRectEttttt+0x56>
    y = HEIGHT - y - w;
 23f9774:	6823      	ldr	r3, [r4, #0]
 23f9776:	443e      	add	r6, r7
 23f9778:	f853 3c0c 	ldr.w	r3, [r3, #-12]
    rawFillRect(x, y, h, w, fillcolor);
 23f977c:	4629      	mov	r1, r5
    y = HEIGHT - y - w;
 23f977e:	4423      	add	r3, r4
 23f9780:	895a      	ldrh	r2, [r3, #10]
    rawFillRect(x, y, h, w, fillcolor);
 23f9782:	4643      	mov	r3, r8
    y = HEIGHT - y - w;
 23f9784:	1b92      	subs	r2, r2, r6
    rawFillRect(x, y, h, w, fillcolor);
 23f9786:	e9cd 7908 	strd	r7, r9, [sp, #32]
 23f978a:	b292      	uxth	r2, r2
 23f978c:	e7d1      	b.n	23f9732 <_ZN16Adafruit_SSD13518fillRectEttttt+0x36>
}
 23f978e:	e8bd 87f0 	ldmia.w	sp!, {r4, r5, r6, r7, r8, r9, sl, pc}

023f9792 <_ZN16Adafruit_SSD135110fillScreenEt>:
void Adafruit_SSD1351::fillScreen(uint16_t fillcolor) {
 23f9792:	b507      	push	{r0, r1, r2, lr}
  fillRect(0, 0, SSD1351WIDTH, SSD1351HEIGHT, fillcolor);
 23f9794:	2380      	movs	r3, #128	; 0x80
 23f9796:	2200      	movs	r2, #0
 23f9798:	9101      	str	r1, [sp, #4]
 23f979a:	9300      	str	r3, [sp, #0]
 23f979c:	4611      	mov	r1, r2
 23f979e:	f7ff ffad 	bl	23f96fc <_ZN16Adafruit_SSD13518fillRectEttttt>
}
 23f97a2:	b003      	add	sp, #12
 23f97a4:	f85d fb04 	ldr.w	pc, [sp], #4

023f97a8 <_ZTv0_n48_N16Adafruit_SSD135110fillScreenEt>:
  // drawing primitives!
  void drawPixel(int16_t x, int16_t y, uint16_t color);
  void fillRect(uint16_t x0, uint16_t y0, uint16_t w, uint16_t h, uint16_t color);
  void drawFastHLine(int16_t x, int16_t y, int16_t w, uint16_t color);
  void drawFastVLine(int16_t x, int16_t y, int16_t h, uint16_t color);
  void fillScreen(uint16_t fillcolor);
 23f97a8:	f8d0 c000 	ldr.w	ip, [r0]
 23f97ac:	f1ac 0c30 	sub.w	ip, ip, #48	; 0x30
 23f97b0:	f8dc c000 	ldr.w	ip, [ip]
 23f97b4:	4460      	add	r0, ip
 23f97b6:	f7ff bfec 	b.w	23f9792 <_ZN16Adafruit_SSD135110fillScreenEt>

023f97ba <_ZN16Adafruit_SSD135112rawFastHLineEssst>:
void Adafruit_SSD1351::rawFastHLine(int16_t x, int16_t y, int16_t w, uint16_t color) {
 23f97ba:	e92d 41f3 	stmdb	sp!, {r0, r1, r4, r5, r6, r7, r8, lr}
  if ((x >= SSD1351WIDTH) || (y >= SSD1351HEIGHT))
 23f97be:	297f      	cmp	r1, #127	; 0x7f
void Adafruit_SSD1351::rawFastHLine(int16_t x, int16_t y, int16_t w, uint16_t color) {
 23f97c0:	4605      	mov	r5, r0
 23f97c2:	460c      	mov	r4, r1
 23f97c4:	4617      	mov	r7, r2
 23f97c6:	461e      	mov	r6, r3
 23f97c8:	f8bd 8020 	ldrh.w	r8, [sp, #32]
  if ((x >= SSD1351WIDTH) || (y >= SSD1351HEIGHT))
 23f97cc:	dc3b      	bgt.n	23f9846 <_ZN16Adafruit_SSD135112rawFastHLineEssst+0x8c>
 23f97ce:	2a7f      	cmp	r2, #127	; 0x7f
 23f97d0:	dc39      	bgt.n	23f9846 <_ZN16Adafruit_SSD135112rawFastHLineEssst+0x8c>
  if (x+w > SSD1351WIDTH)
 23f97d2:	18cb      	adds	r3, r1, r3
 23f97d4:	2b80      	cmp	r3, #128	; 0x80
    w = SSD1351WIDTH - x - 1;
 23f97d6:	bfc4      	itt	gt
 23f97d8:	f1c1 067f 	rsbgt	r6, r1, #127	; 0x7f
 23f97dc:	b236      	sxthgt	r6, r6
  if (w < 0) return;
 23f97de:	2e00      	cmp	r6, #0
 23f97e0:	db31      	blt.n	23f9846 <_ZN16Adafruit_SSD135112rawFastHLineEssst+0x8c>
  writeCommand(SSD1351_CMD_SETCOLUMN);
 23f97e2:	2115      	movs	r1, #21
  writeData(x);
 23f97e4:	b2e4      	uxtb	r4, r4
  writeCommand(SSD1351_CMD_SETCOLUMN);
 23f97e6:	f7ff fee3 	bl	23f95b0 <_ZN16Adafruit_SSD135112writeCommandEh>
  writeData(x);
 23f97ea:	4621      	mov	r1, r4
  writeData(x+w-1);
 23f97ec:	3c01      	subs	r4, #1
  writeData(x);
 23f97ee:	4628      	mov	r0, r5
  writeData(x+w-1);
 23f97f0:	4434      	add	r4, r6
  writeData(x);
 23f97f2:	f7ff fef1 	bl	23f95d8 <_ZN16Adafruit_SSD13519writeDataEh>
  writeData(x+w-1);
 23f97f6:	b2e1      	uxtb	r1, r4
 23f97f8:	4628      	mov	r0, r5
 23f97fa:	f7ff feed 	bl	23f95d8 <_ZN16Adafruit_SSD13519writeDataEh>
  writeCommand(SSD1351_CMD_SETROW);
 23f97fe:	2175      	movs	r1, #117	; 0x75
 23f9800:	4628      	mov	r0, r5
 23f9802:	f7ff fed5 	bl	23f95b0 <_ZN16Adafruit_SSD135112writeCommandEh>
  writeData(y);
 23f9806:	b2f9      	uxtb	r1, r7
 23f9808:	4628      	mov	r0, r5
 23f980a:	9101      	str	r1, [sp, #4]
 23f980c:	f7ff fee4 	bl	23f95d8 <_ZN16Adafruit_SSD13519writeDataEh>
  writeData(y);
 23f9810:	4628      	mov	r0, r5
 23f9812:	9901      	ldr	r1, [sp, #4]
 23f9814:	f7ff fee0 	bl	23f95d8 <_ZN16Adafruit_SSD13519writeDataEh>
  writeCommand(SSD1351_CMD_WRITERAM);
 23f9818:	215c      	movs	r1, #92	; 0x5c
 23f981a:	4628      	mov	r0, r5
 23f981c:	f7ff fec8 	bl	23f95b0 <_ZN16Adafruit_SSD135112writeCommandEh>
    writeData(color >> 8);
 23f9820:	2400      	movs	r4, #0
 23f9822:	ea4f 2718 	mov.w	r7, r8, lsr #8
    writeData(color);
 23f9826:	fa5f f888 	uxtb.w	r8, r8
  for (uint16_t i=0; i < w; i++) {
 23f982a:	b2a3      	uxth	r3, r4
 23f982c:	42b3      	cmp	r3, r6
 23f982e:	f104 0401 	add.w	r4, r4, #1
 23f9832:	da08      	bge.n	23f9846 <_ZN16Adafruit_SSD135112rawFastHLineEssst+0x8c>
    writeData(color >> 8);
 23f9834:	4639      	mov	r1, r7
 23f9836:	4628      	mov	r0, r5
 23f9838:	f7ff fece 	bl	23f95d8 <_ZN16Adafruit_SSD13519writeDataEh>
    writeData(color);
 23f983c:	4641      	mov	r1, r8
 23f983e:	4628      	mov	r0, r5
 23f9840:	f7ff feca 	bl	23f95d8 <_ZN16Adafruit_SSD13519writeDataEh>
  for (uint16_t i=0; i < w; i++) {
 23f9844:	e7f1      	b.n	23f982a <_ZN16Adafruit_SSD135112rawFastHLineEssst+0x70>
}
 23f9846:	b002      	add	sp, #8
 23f9848:	e8bd 81f0 	ldmia.w	sp!, {r4, r5, r6, r7, r8, pc}

023f984c <_ZN16Adafruit_SSD135112rawFastVLineEssst>:
void Adafruit_SSD1351::rawFastVLine(int16_t x, int16_t y, int16_t h, uint16_t color) {
 23f984c:	e92d 41f3 	stmdb	sp!, {r0, r1, r4, r5, r6, r7, r8, lr}
  if ((x >= SSD1351WIDTH) || (y >= SSD1351HEIGHT))
 23f9850:	297f      	cmp	r1, #127	; 0x7f
void Adafruit_SSD1351::rawFastVLine(int16_t x, int16_t y, int16_t h, uint16_t color) {
 23f9852:	4605      	mov	r5, r0
 23f9854:	460f      	mov	r7, r1
 23f9856:	4614      	mov	r4, r2
 23f9858:	461e      	mov	r6, r3
 23f985a:	f8bd 8020 	ldrh.w	r8, [sp, #32]
  if ((x >= SSD1351WIDTH) || (y >= SSD1351HEIGHT))
 23f985e:	dc3b      	bgt.n	23f98d8 <_ZN16Adafruit_SSD135112rawFastVLineEssst+0x8c>
 23f9860:	2a7f      	cmp	r2, #127	; 0x7f
 23f9862:	dc39      	bgt.n	23f98d8 <_ZN16Adafruit_SSD135112rawFastVLineEssst+0x8c>
  if (y+h > SSD1351HEIGHT)
 23f9864:	18d3      	adds	r3, r2, r3
 23f9866:	2b80      	cmp	r3, #128	; 0x80
    h = SSD1351HEIGHT - y - 1;
 23f9868:	bfc4      	itt	gt
 23f986a:	f1c2 067f 	rsbgt	r6, r2, #127	; 0x7f
 23f986e:	b236      	sxthgt	r6, r6
  if (h < 0) return;
 23f9870:	2e00      	cmp	r6, #0
 23f9872:	db31      	blt.n	23f98d8 <_ZN16Adafruit_SSD135112rawFastVLineEssst+0x8c>
  writeCommand(SSD1351_CMD_SETCOLUMN);
 23f9874:	2115      	movs	r1, #21
 23f9876:	f7ff fe9b 	bl	23f95b0 <_ZN16Adafruit_SSD135112writeCommandEh>
  writeData(x);
 23f987a:	b2f9      	uxtb	r1, r7
 23f987c:	4628      	mov	r0, r5
 23f987e:	9101      	str	r1, [sp, #4]
 23f9880:	f7ff feaa 	bl	23f95d8 <_ZN16Adafruit_SSD13519writeDataEh>
  writeData(x);
 23f9884:	4628      	mov	r0, r5
 23f9886:	9901      	ldr	r1, [sp, #4]
 23f9888:	f7ff fea6 	bl	23f95d8 <_ZN16Adafruit_SSD13519writeDataEh>
  writeData(y);
 23f988c:	b2e4      	uxtb	r4, r4
  writeCommand(SSD1351_CMD_SETROW);
 23f988e:	2175      	movs	r1, #117	; 0x75
 23f9890:	4628      	mov	r0, r5
 23f9892:	f7ff fe8d 	bl	23f95b0 <_ZN16Adafruit_SSD135112writeCommandEh>
  writeData(y);
 23f9896:	4621      	mov	r1, r4
  writeData(y+h-1);
 23f9898:	3c01      	subs	r4, #1
  writeData(y);
 23f989a:	4628      	mov	r0, r5
  writeData(y+h-1);
 23f989c:	4434      	add	r4, r6
  writeData(y);
 23f989e:	f7ff fe9b 	bl	23f95d8 <_ZN16Adafruit_SSD13519writeDataEh>
  writeData(y+h-1);
 23f98a2:	b2e1      	uxtb	r1, r4
 23f98a4:	4628      	mov	r0, r5
 23f98a6:	f7ff fe97 	bl	23f95d8 <_ZN16Adafruit_SSD13519writeDataEh>
  writeCommand(SSD1351_CMD_WRITERAM);
 23f98aa:	215c      	movs	r1, #92	; 0x5c
 23f98ac:	4628      	mov	r0, r5
 23f98ae:	f7ff fe7f 	bl	23f95b0 <_ZN16Adafruit_SSD135112writeCommandEh>
    writeData(color >> 8);
 23f98b2:	2400      	movs	r4, #0
 23f98b4:	ea4f 2718 	mov.w	r7, r8, lsr #8
    writeData(color);
 23f98b8:	fa5f f888 	uxtb.w	r8, r8
  for (uint16_t i=0; i < h; i++) {
 23f98bc:	b2a3      	uxth	r3, r4
 23f98be:	42b3      	cmp	r3, r6
 23f98c0:	f104 0401 	add.w	r4, r4, #1
 23f98c4:	da08      	bge.n	23f98d8 <_ZN16Adafruit_SSD135112rawFastVLineEssst+0x8c>
    writeData(color >> 8);
 23f98c6:	4639      	mov	r1, r7
 23f98c8:	4628      	mov	r0, r5
 23f98ca:	f7ff fe85 	bl	23f95d8 <_ZN16Adafruit_SSD13519writeDataEh>
    writeData(color);
 23f98ce:	4641      	mov	r1, r8
 23f98d0:	4628      	mov	r0, r5
 23f98d2:	f7ff fe81 	bl	23f95d8 <_ZN16Adafruit_SSD13519writeDataEh>
  for (uint16_t i=0; i < h; i++) {
 23f98d6:	e7f1      	b.n	23f98bc <_ZN16Adafruit_SSD135112rawFastVLineEssst+0x70>
}
 23f98d8:	b002      	add	sp, #8
 23f98da:	e8bd 81f0 	ldmia.w	sp!, {r4, r5, r6, r7, r8, pc}

023f98de <_ZN16Adafruit_SSD135113drawFastVLineEssst>:
void Adafruit_SSD1351::drawFastVLine(int16_t x, int16_t y, int16_t h, uint16_t color) {
 23f98de:	b5f7      	push	{r0, r1, r2, r4, r5, r6, r7, lr}
 23f98e0:	4604      	mov	r4, r0
 23f98e2:	4616      	mov	r6, r2
  switch (getRotation()) {
 23f98e4:	6802      	ldr	r2, [r0, #0]
void Adafruit_SSD1351::drawFastVLine(int16_t x, int16_t y, int16_t h, uint16_t color) {
 23f98e6:	9301      	str	r3, [sp, #4]
  switch (getRotation()) {
 23f98e8:	f852 0c0c 	ldr.w	r0, [r2, #-12]
void Adafruit_SSD1351::drawFastVLine(int16_t x, int16_t y, int16_t h, uint16_t color) {
 23f98ec:	460d      	mov	r5, r1
  switch (getRotation()) {
 23f98ee:	4420      	add	r0, r4
void Adafruit_SSD1351::drawFastVLine(int16_t x, int16_t y, int16_t h, uint16_t color) {
 23f98f0:	f8bd 7020 	ldrh.w	r7, [sp, #32]
  switch (getRotation()) {
 23f98f4:	f000 fcba 	bl	23fa26c <_ZN12Adafruit_GFX11getRotationEv>
 23f98f8:	9b01      	ldr	r3, [sp, #4]
 23f98fa:	2803      	cmp	r0, #3
 23f98fc:	d835      	bhi.n	23f996a <_ZN16Adafruit_SSD135113drawFastVLineEssst+0x8c>
 23f98fe:	e8df f000 	tbb	[pc, r0]
 23f9902:	0b02      	.short	0x0b02
 23f9904:	291b      	.short	0x291b
    rawFastVLine(x, y, h, color);
 23f9906:	4632      	mov	r2, r6
 23f9908:	4629      	mov	r1, r5
 23f990a:	9708      	str	r7, [sp, #32]
    rawFastVLine(x, y, h, color);
 23f990c:	4620      	mov	r0, r4
}
 23f990e:	b003      	add	sp, #12
 23f9910:	e8bd 40f0 	ldmia.w	sp!, {r4, r5, r6, r7, lr}
    rawFastVLine(x, y, h, color);
 23f9914:	f7ff bf9a 	b.w	23f984c <_ZN16Adafruit_SSD135112rawFastVLineEssst>
    x = WIDTH - x - h;
 23f9918:	6822      	ldr	r2, [r4, #0]
 23f991a:	441e      	add	r6, r3
 23f991c:	f852 0c0c 	ldr.w	r0, [r2, #-12]
    rawFastHLine(x, y, h, color);
 23f9920:	462a      	mov	r2, r5
    x = WIDTH - x - h;
 23f9922:	4420      	add	r0, r4
 23f9924:	8901      	ldrh	r1, [r0, #8]
    rawFastHLine(x, y, h, color);
 23f9926:	9708      	str	r7, [sp, #32]
    x = WIDTH - x - h;
 23f9928:	1b89      	subs	r1, r1, r6
    rawFastHLine(x, y, h, color);
 23f992a:	b209      	sxth	r1, r1
    rawFastHLine(x, y, h, color);
 23f992c:	4620      	mov	r0, r4
}
 23f992e:	b003      	add	sp, #12
 23f9930:	e8bd 40f0 	ldmia.w	sp!, {r4, r5, r6, r7, lr}
    rawFastHLine(x, y, h, color);
 23f9934:	f7ff bf41 	b.w	23f97ba <_ZN16Adafruit_SSD135112rawFastHLineEssst>
    x = WIDTH - x - 1;
 23f9938:	43e9      	mvns	r1, r5
 23f993a:	6822      	ldr	r2, [r4, #0]
    y = HEIGHT - y - h;
 23f993c:	441e      	add	r6, r3
    x = WIDTH - x - 1;
 23f993e:	f852 0c0c 	ldr.w	r0, [r2, #-12]
 23f9942:	4420      	add	r0, r4
    y = HEIGHT - y - h;
 23f9944:	8942      	ldrh	r2, [r0, #10]
    x = WIDTH - x - 1;
 23f9946:	8905      	ldrh	r5, [r0, #8]
    y = HEIGHT - y - h;
 23f9948:	1b92      	subs	r2, r2, r6
    x = WIDTH - x - 1;
 23f994a:	4429      	add	r1, r5
    rawFastVLine(x, y, h, color);
 23f994c:	9708      	str	r7, [sp, #32]
 23f994e:	b212      	sxth	r2, r2
 23f9950:	b209      	sxth	r1, r1
 23f9952:	e7db      	b.n	23f990c <_ZN16Adafruit_SSD135113drawFastVLineEssst+0x2e>
    y = HEIGHT - y - 1;
 23f9954:	43ed      	mvns	r5, r5
 23f9956:	6822      	ldr	r2, [r4, #0]
    rawFastHLine(x, y, h, color);
 23f9958:	4631      	mov	r1, r6
    y = HEIGHT - y - 1;
 23f995a:	f852 2c0c 	ldr.w	r2, [r2, #-12]
 23f995e:	4422      	add	r2, r4
 23f9960:	8952      	ldrh	r2, [r2, #10]
    rawFastHLine(x, y, h, color);
 23f9962:	9708      	str	r7, [sp, #32]
    y = HEIGHT - y - 1;
 23f9964:	442a      	add	r2, r5
    rawFastHLine(x, y, h, color);
 23f9966:	b212      	sxth	r2, r2
 23f9968:	e7e0      	b.n	23f992c <_ZN16Adafruit_SSD135113drawFastVLineEssst+0x4e>
}
 23f996a:	b003      	add	sp, #12
 23f996c:	bdf0      	pop	{r4, r5, r6, r7, pc}

023f996e <_ZTv0_n32_N16Adafruit_SSD135113drawFastVLineEssst>:
  void drawFastVLine(int16_t x, int16_t y, int16_t h, uint16_t color);
 23f996e:	f8d0 c000 	ldr.w	ip, [r0]
 23f9972:	f1ac 0c20 	sub.w	ip, ip, #32
 23f9976:	f8dc c000 	ldr.w	ip, [ip]
 23f997a:	4460      	add	r0, ip
 23f997c:	f7ff bfaf 	b.w	23f98de <_ZN16Adafruit_SSD135113drawFastVLineEssst>

023f9980 <_ZN16Adafruit_SSD135113drawFastHLineEssst>:
void Adafruit_SSD1351::drawFastHLine(int16_t x, int16_t y, int16_t w, uint16_t color) {
 23f9980:	b5f7      	push	{r0, r1, r2, r4, r5, r6, r7, lr}
 23f9982:	4604      	mov	r4, r0
 23f9984:	4615      	mov	r5, r2
  switch (getRotation()) {
 23f9986:	6802      	ldr	r2, [r0, #0]
void Adafruit_SSD1351::drawFastHLine(int16_t x, int16_t y, int16_t w, uint16_t color) {
 23f9988:	9301      	str	r3, [sp, #4]
  switch (getRotation()) {
 23f998a:	f852 0c0c 	ldr.w	r0, [r2, #-12]
void Adafruit_SSD1351::drawFastHLine(int16_t x, int16_t y, int16_t w, uint16_t color) {
 23f998e:	460e      	mov	r6, r1
  switch (getRotation()) {
 23f9990:	4420      	add	r0, r4
void Adafruit_SSD1351::drawFastHLine(int16_t x, int16_t y, int16_t w, uint16_t color) {
 23f9992:	f8bd 7020 	ldrh.w	r7, [sp, #32]
  switch (getRotation()) {
 23f9996:	f000 fc69 	bl	23fa26c <_ZN12Adafruit_GFX11getRotationEv>
 23f999a:	9b01      	ldr	r3, [sp, #4]
 23f999c:	2803      	cmp	r0, #3
 23f999e:	d835      	bhi.n	23f9a0c <_ZN16Adafruit_SSD135113drawFastHLineEssst+0x8c>
 23f99a0:	e8df f000 	tbb	[pc, r0]
 23f99a4:	291b0b02 	.word	0x291b0b02
    rawFastHLine(x, y, w, color);
 23f99a8:	462a      	mov	r2, r5
 23f99aa:	4631      	mov	r1, r6
 23f99ac:	9708      	str	r7, [sp, #32]
    rawFastHLine(x, y, w, color);
 23f99ae:	4620      	mov	r0, r4
}
 23f99b0:	b003      	add	sp, #12
 23f99b2:	e8bd 40f0 	ldmia.w	sp!, {r4, r5, r6, r7, lr}
    rawFastHLine(x, y, w, color);
 23f99b6:	f7ff bf00 	b.w	23f97ba <_ZN16Adafruit_SSD135112rawFastHLineEssst>
    x = WIDTH - x - 1;
 23f99ba:	6822      	ldr	r2, [r4, #0]
 23f99bc:	43e9      	mvns	r1, r5
 23f99be:	f852 2c0c 	ldr.w	r2, [r2, #-12]
 23f99c2:	4422      	add	r2, r4
 23f99c4:	8915      	ldrh	r5, [r2, #8]
    rawFastVLine(x, y, w, color);
 23f99c6:	4632      	mov	r2, r6
    x = WIDTH - x - 1;
 23f99c8:	4429      	add	r1, r5
    rawFastVLine(x, y, w, color);
 23f99ca:	9708      	str	r7, [sp, #32]
 23f99cc:	b209      	sxth	r1, r1
    rawFastVLine(x, y, w, color);
 23f99ce:	4620      	mov	r0, r4
}
 23f99d0:	b003      	add	sp, #12
 23f99d2:	e8bd 40f0 	ldmia.w	sp!, {r4, r5, r6, r7, lr}
    rawFastVLine(x, y, w, color);
 23f99d6:	f7ff bf39 	b.w	23f984c <_ZN16Adafruit_SSD135112rawFastVLineEssst>
    x = WIDTH - x - w;
 23f99da:	6822      	ldr	r2, [r4, #0]
 23f99dc:	441e      	add	r6, r3
 23f99de:	f852 0c0c 	ldr.w	r0, [r2, #-12]
    y = HEIGHT - y - 1;
 23f99e2:	43ea      	mvns	r2, r5
    x = WIDTH - x - w;
 23f99e4:	4420      	add	r0, r4
    y = HEIGHT - y - 1;
 23f99e6:	8945      	ldrh	r5, [r0, #10]
    x = WIDTH - x - w;
 23f99e8:	8901      	ldrh	r1, [r0, #8]
    y = HEIGHT - y - 1;
 23f99ea:	442a      	add	r2, r5
    x = WIDTH - x - w;
 23f99ec:	1b89      	subs	r1, r1, r6
    rawFastHLine(x, y, w, color);
 23f99ee:	9708      	str	r7, [sp, #32]
 23f99f0:	b212      	sxth	r2, r2
 23f99f2:	b209      	sxth	r1, r1
 23f99f4:	e7db      	b.n	23f99ae <_ZN16Adafruit_SSD135113drawFastHLineEssst+0x2e>
    y = HEIGHT - y - w;
 23f99f6:	6822      	ldr	r2, [r4, #0]
 23f99f8:	441e      	add	r6, r3
 23f99fa:	f852 2c0c 	ldr.w	r2, [r2, #-12]
    rawFastVLine(x, y, w, color);
 23f99fe:	4629      	mov	r1, r5
    y = HEIGHT - y - w;
 23f9a00:	4422      	add	r2, r4
 23f9a02:	8952      	ldrh	r2, [r2, #10]
    rawFastVLine(x, y, w, color);
 23f9a04:	9708      	str	r7, [sp, #32]
    y = HEIGHT - y - w;
 23f9a06:	1b92      	subs	r2, r2, r6
    rawFastVLine(x, y, w, color);
 23f9a08:	b212      	sxth	r2, r2
 23f9a0a:	e7e0      	b.n	23f99ce <_ZN16Adafruit_SSD135113drawFastHLineEssst+0x4e>
}
 23f9a0c:	b003      	add	sp, #12
 23f9a0e:	bdf0      	pop	{r4, r5, r6, r7, pc}

023f9a10 <_ZTv0_n36_N16Adafruit_SSD135113drawFastHLineEssst>:
  void drawFastHLine(int16_t x, int16_t y, int16_t w, uint16_t color);
 23f9a10:	f8d0 c000 	ldr.w	ip, [r0]
 23f9a14:	f1ac 0c24 	sub.w	ip, ip, #36	; 0x24
 23f9a18:	f8dc c000 	ldr.w	ip, [ip]
 23f9a1c:	4460      	add	r0, ip
 23f9a1e:	f7ff bfaf 	b.w	23f9980 <_ZN16Adafruit_SSD135113drawFastHLineEssst>

023f9a22 <_ZN16Adafruit_SSD13515beginEv>:
void Adafruit_SSD1351::begin(void) {
 23f9a22:	b510      	push	{r4, lr}
 23f9a24:	4604      	mov	r4, r0
    pinMode(_rs, OUTPUT);
 23f9a26:	2101      	movs	r1, #1
 23f9a28:	7940      	ldrb	r0, [r0, #5]
 23f9a2a:	f004 fc09 	bl	23fe240 <pinMode>
    if (_sclk) {
 23f9a2e:	7a20      	ldrb	r0, [r4, #8]
 23f9a30:	2800      	cmp	r0, #0
 23f9a32:	f000 80da 	beq.w	23f9bea <_ZN16Adafruit_SSD13515beginEv+0x1c8>
        pinMode(_sclk, OUTPUT);
 23f9a36:	2101      	movs	r1, #1
 23f9a38:	f004 fc02 	bl	23fe240 <pinMode>
        pinMode(_sid, OUTPUT);
 23f9a3c:	2101      	movs	r1, #1
 23f9a3e:	79e0      	ldrb	r0, [r4, #7]
 23f9a40:	f004 fbfe 	bl	23fe240 <pinMode>
    pinMode(_cs, OUTPUT);
 23f9a44:	2101      	movs	r1, #1
 23f9a46:	7920      	ldrb	r0, [r4, #4]
 23f9a48:	f004 fbfa 	bl	23fe240 <pinMode>
    digitalWrite(_cs, LOW);
 23f9a4c:	7920      	ldrb	r0, [r4, #4]
 23f9a4e:	2100      	movs	r1, #0
 23f9a50:	f004 fc07 	bl	23fe262 <digitalWrite>
    if (_rst) {
 23f9a54:	79a0      	ldrb	r0, [r4, #6]
 23f9a56:	b1d0      	cbz	r0, 23f9a8e <_ZN16Adafruit_SSD13515beginEv+0x6c>
        pinMode(_rst, OUTPUT);
 23f9a58:	2101      	movs	r1, #1
 23f9a5a:	f004 fbf1 	bl	23fe240 <pinMode>
        digitalWrite(_rst, HIGH);
 23f9a5e:	2101      	movs	r1, #1
 23f9a60:	79a0      	ldrb	r0, [r4, #6]
 23f9a62:	f004 fbfe 	bl	23fe262 <digitalWrite>
        delay(500);
 23f9a66:	f44f 70fa 	mov.w	r0, #500	; 0x1f4
 23f9a6a:	f003 fb79 	bl	23fd160 <delay>
        digitalWrite(_rst, LOW);
 23f9a6e:	2100      	movs	r1, #0
 23f9a70:	79a0      	ldrb	r0, [r4, #6]
 23f9a72:	f004 fbf6 	bl	23fe262 <digitalWrite>
        delay(500);
 23f9a76:	f44f 70fa 	mov.w	r0, #500	; 0x1f4
 23f9a7a:	f003 fb71 	bl	23fd160 <delay>
        digitalWrite(_rst, HIGH);
 23f9a7e:	79a0      	ldrb	r0, [r4, #6]
 23f9a80:	2101      	movs	r1, #1
 23f9a82:	f004 fbee 	bl	23fe262 <digitalWrite>
        delay(500);
 23f9a86:	f44f 70fa 	mov.w	r0, #500	; 0x1f4
 23f9a8a:	f003 fb69 	bl	23fd160 <delay>
    writeCommand(SSD1351_CMD_COMMANDLOCK);  // set command lock
 23f9a8e:	4620      	mov	r0, r4
 23f9a90:	21fd      	movs	r1, #253	; 0xfd
 23f9a92:	f7ff fd8d 	bl	23f95b0 <_ZN16Adafruit_SSD135112writeCommandEh>
    writeData(0x12);
 23f9a96:	4620      	mov	r0, r4
 23f9a98:	2112      	movs	r1, #18
 23f9a9a:	f7ff fd9d 	bl	23f95d8 <_ZN16Adafruit_SSD13519writeDataEh>
    writeCommand(SSD1351_CMD_COMMANDLOCK);  // set command lock
 23f9a9e:	4620      	mov	r0, r4
 23f9aa0:	21fd      	movs	r1, #253	; 0xfd
 23f9aa2:	f7ff fd85 	bl	23f95b0 <_ZN16Adafruit_SSD135112writeCommandEh>
    writeData(0xB1);
 23f9aa6:	4620      	mov	r0, r4
 23f9aa8:	21b1      	movs	r1, #177	; 0xb1
 23f9aaa:	f7ff fd95 	bl	23f95d8 <_ZN16Adafruit_SSD13519writeDataEh>
    writeCommand(SSD1351_CMD_DISPLAYOFF);  		// 0xAE
 23f9aae:	4620      	mov	r0, r4
 23f9ab0:	21ae      	movs	r1, #174	; 0xae
 23f9ab2:	f7ff fd7d 	bl	23f95b0 <_ZN16Adafruit_SSD135112writeCommandEh>
    writeCommand(SSD1351_CMD_CLOCKDIV);  		// 0xB3
 23f9ab6:	4620      	mov	r0, r4
 23f9ab8:	21b3      	movs	r1, #179	; 0xb3
 23f9aba:	f7ff fd79 	bl	23f95b0 <_ZN16Adafruit_SSD135112writeCommandEh>
    writeCommand(0xF1);  						// 7:4 = Oscillator Frequency, 3:0 = CLK Div Ratio (A[3:0]+1 = 1..16)
 23f9abe:	4620      	mov	r0, r4
 23f9ac0:	21f1      	movs	r1, #241	; 0xf1
 23f9ac2:	f7ff fd75 	bl	23f95b0 <_ZN16Adafruit_SSD135112writeCommandEh>
    writeCommand(SSD1351_CMD_MUXRATIO);
 23f9ac6:	4620      	mov	r0, r4
 23f9ac8:	21ca      	movs	r1, #202	; 0xca
 23f9aca:	f7ff fd71 	bl	23f95b0 <_ZN16Adafruit_SSD135112writeCommandEh>
    writeData(127);
 23f9ace:	4620      	mov	r0, r4
 23f9ad0:	217f      	movs	r1, #127	; 0x7f
 23f9ad2:	f7ff fd81 	bl	23f95d8 <_ZN16Adafruit_SSD13519writeDataEh>
    writeCommand(SSD1351_CMD_SETREMAP);
 23f9ad6:	4620      	mov	r0, r4
 23f9ad8:	21a0      	movs	r1, #160	; 0xa0
 23f9ada:	f7ff fd69 	bl	23f95b0 <_ZN16Adafruit_SSD135112writeCommandEh>
    writeData(0x74);
 23f9ade:	4620      	mov	r0, r4
 23f9ae0:	2174      	movs	r1, #116	; 0x74
 23f9ae2:	f7ff fd79 	bl	23f95d8 <_ZN16Adafruit_SSD13519writeDataEh>
    writeCommand(SSD1351_CMD_SETCOLUMN);
 23f9ae6:	4620      	mov	r0, r4
 23f9ae8:	2115      	movs	r1, #21
 23f9aea:	f7ff fd61 	bl	23f95b0 <_ZN16Adafruit_SSD135112writeCommandEh>
    writeData(0x00);
 23f9aee:	4620      	mov	r0, r4
 23f9af0:	2100      	movs	r1, #0
 23f9af2:	f7ff fd71 	bl	23f95d8 <_ZN16Adafruit_SSD13519writeDataEh>
    writeData(0x7F);
 23f9af6:	4620      	mov	r0, r4
 23f9af8:	217f      	movs	r1, #127	; 0x7f
 23f9afa:	f7ff fd6d 	bl	23f95d8 <_ZN16Adafruit_SSD13519writeDataEh>
    writeCommand(SSD1351_CMD_SETROW);
 23f9afe:	4620      	mov	r0, r4
 23f9b00:	2175      	movs	r1, #117	; 0x75
 23f9b02:	f7ff fd55 	bl	23f95b0 <_ZN16Adafruit_SSD135112writeCommandEh>
    writeData(0x00);
 23f9b06:	4620      	mov	r0, r4
 23f9b08:	2100      	movs	r1, #0
 23f9b0a:	f7ff fd65 	bl	23f95d8 <_ZN16Adafruit_SSD13519writeDataEh>
    writeData(0x7F);
 23f9b0e:	4620      	mov	r0, r4
 23f9b10:	217f      	movs	r1, #127	; 0x7f
 23f9b12:	f7ff fd61 	bl	23f95d8 <_ZN16Adafruit_SSD13519writeDataEh>
    writeCommand(SSD1351_CMD_STARTLINE); 		// 0xA1
 23f9b16:	4620      	mov	r0, r4
 23f9b18:	21a1      	movs	r1, #161	; 0xa1
 23f9b1a:	f7ff fd49 	bl	23f95b0 <_ZN16Adafruit_SSD135112writeCommandEh>
      writeData(0);
 23f9b1e:	4620      	mov	r0, r4
 23f9b20:	2100      	movs	r1, #0
 23f9b22:	f7ff fd59 	bl	23f95d8 <_ZN16Adafruit_SSD13519writeDataEh>
    writeCommand(SSD1351_CMD_DISPLAYOFFSET); 	// 0xA2
 23f9b26:	4620      	mov	r0, r4
 23f9b28:	21a2      	movs	r1, #162	; 0xa2
 23f9b2a:	f7ff fd41 	bl	23f95b0 <_ZN16Adafruit_SSD135112writeCommandEh>
    writeData(0x0);
 23f9b2e:	4620      	mov	r0, r4
 23f9b30:	2100      	movs	r1, #0
 23f9b32:	f7ff fd51 	bl	23f95d8 <_ZN16Adafruit_SSD13519writeDataEh>
    writeCommand(SSD1351_CMD_SETGPIO);
 23f9b36:	4620      	mov	r0, r4
 23f9b38:	21b5      	movs	r1, #181	; 0xb5
 23f9b3a:	f7ff fd39 	bl	23f95b0 <_ZN16Adafruit_SSD135112writeCommandEh>
    writeData(0x00);
 23f9b3e:	4620      	mov	r0, r4
 23f9b40:	2100      	movs	r1, #0
 23f9b42:	f7ff fd49 	bl	23f95d8 <_ZN16Adafruit_SSD13519writeDataEh>
    writeCommand(SSD1351_CMD_FUNCTIONSELECT);
 23f9b46:	4620      	mov	r0, r4
 23f9b48:	21ab      	movs	r1, #171	; 0xab
 23f9b4a:	f7ff fd31 	bl	23f95b0 <_ZN16Adafruit_SSD135112writeCommandEh>
    writeData(0x01); // internal (diode drop)
 23f9b4e:	4620      	mov	r0, r4
 23f9b50:	2101      	movs	r1, #1
 23f9b52:	f7ff fd41 	bl	23f95d8 <_ZN16Adafruit_SSD13519writeDataEh>
    writeCommand(SSD1351_CMD_PRECHARGE);  		// 0xB1
 23f9b56:	4620      	mov	r0, r4
 23f9b58:	21b1      	movs	r1, #177	; 0xb1
 23f9b5a:	f7ff fd29 	bl	23f95b0 <_ZN16Adafruit_SSD135112writeCommandEh>
    writeCommand(0x32);
 23f9b5e:	4620      	mov	r0, r4
 23f9b60:	2132      	movs	r1, #50	; 0x32
 23f9b62:	f7ff fd25 	bl	23f95b0 <_ZN16Adafruit_SSD135112writeCommandEh>
    writeCommand(SSD1351_CMD_VCOMH);  			// 0xBE
 23f9b66:	4620      	mov	r0, r4
 23f9b68:	21be      	movs	r1, #190	; 0xbe
 23f9b6a:	f7ff fd21 	bl	23f95b0 <_ZN16Adafruit_SSD135112writeCommandEh>
    writeCommand(0x05);
 23f9b6e:	4620      	mov	r0, r4
 23f9b70:	2105      	movs	r1, #5
 23f9b72:	f7ff fd1d 	bl	23f95b0 <_ZN16Adafruit_SSD135112writeCommandEh>
    writeCommand(SSD1351_CMD_NORMALDISPLAY);  	// 0xA6
 23f9b76:	4620      	mov	r0, r4
 23f9b78:	21a6      	movs	r1, #166	; 0xa6
 23f9b7a:	f7ff fd19 	bl	23f95b0 <_ZN16Adafruit_SSD135112writeCommandEh>
    writeCommand(SSD1351_CMD_CONTRASTABC);
 23f9b7e:	4620      	mov	r0, r4
 23f9b80:	21c1      	movs	r1, #193	; 0xc1
 23f9b82:	f7ff fd15 	bl	23f95b0 <_ZN16Adafruit_SSD135112writeCommandEh>
    writeData(0xC8);
 23f9b86:	4620      	mov	r0, r4
 23f9b88:	21c8      	movs	r1, #200	; 0xc8
 23f9b8a:	f7ff fd25 	bl	23f95d8 <_ZN16Adafruit_SSD13519writeDataEh>
    writeData(0x80);
 23f9b8e:	4620      	mov	r0, r4
 23f9b90:	2180      	movs	r1, #128	; 0x80
 23f9b92:	f7ff fd21 	bl	23f95d8 <_ZN16Adafruit_SSD13519writeDataEh>
    writeData(0xC8);
 23f9b96:	4620      	mov	r0, r4
 23f9b98:	21c8      	movs	r1, #200	; 0xc8
 23f9b9a:	f7ff fd1d 	bl	23f95d8 <_ZN16Adafruit_SSD13519writeDataEh>
    writeCommand(SSD1351_CMD_CONTRASTMASTER);
 23f9b9e:	4620      	mov	r0, r4
 23f9ba0:	21c7      	movs	r1, #199	; 0xc7
 23f9ba2:	f7ff fd05 	bl	23f95b0 <_ZN16Adafruit_SSD135112writeCommandEh>
    writeData(0x0F);
 23f9ba6:	4620      	mov	r0, r4
 23f9ba8:	210f      	movs	r1, #15
 23f9baa:	f7ff fd15 	bl	23f95d8 <_ZN16Adafruit_SSD13519writeDataEh>
    writeCommand(SSD1351_CMD_SETVSL );
 23f9bae:	4620      	mov	r0, r4
 23f9bb0:	21b4      	movs	r1, #180	; 0xb4
 23f9bb2:	f7ff fcfd 	bl	23f95b0 <_ZN16Adafruit_SSD135112writeCommandEh>
    writeData(0xA0);
 23f9bb6:	4620      	mov	r0, r4
 23f9bb8:	21a0      	movs	r1, #160	; 0xa0
 23f9bba:	f7ff fd0d 	bl	23f95d8 <_ZN16Adafruit_SSD13519writeDataEh>
    writeData(0xB5);
 23f9bbe:	4620      	mov	r0, r4
 23f9bc0:	21b5      	movs	r1, #181	; 0xb5
 23f9bc2:	f7ff fd09 	bl	23f95d8 <_ZN16Adafruit_SSD13519writeDataEh>
    writeData(0x55);
 23f9bc6:	4620      	mov	r0, r4
 23f9bc8:	2155      	movs	r1, #85	; 0x55
 23f9bca:	f7ff fd05 	bl	23f95d8 <_ZN16Adafruit_SSD13519writeDataEh>
    writeCommand(SSD1351_CMD_PRECHARGE2);
 23f9bce:	4620      	mov	r0, r4
 23f9bd0:	21b6      	movs	r1, #182	; 0xb6
 23f9bd2:	f7ff fced 	bl	23f95b0 <_ZN16Adafruit_SSD135112writeCommandEh>
    writeData(0x01);
 23f9bd6:	4620      	mov	r0, r4
 23f9bd8:	2101      	movs	r1, #1
 23f9bda:	f7ff fcfd 	bl	23f95d8 <_ZN16Adafruit_SSD13519writeDataEh>
    writeCommand(SSD1351_CMD_DISPLAYON);		//--turn on oled panel
 23f9bde:	4620      	mov	r0, r4
}
 23f9be0:	e8bd 4010 	ldmia.w	sp!, {r4, lr}
    writeCommand(SSD1351_CMD_DISPLAYON);		//--turn on oled panel
 23f9be4:	21af      	movs	r1, #175	; 0xaf
 23f9be6:	f7ff bce3 	b.w	23f95b0 <_ZN16Adafruit_SSD135112writeCommandEh>
        instance().begin();
 23f9bea:	f7ff fbff 	bl	23f93ec <_ZN8particle8SpiProxyIL19hal_spi_interface_t0EE8instanceEv>
 23f9bee:	f001 fdc9 	bl	23fb784 <_ZN8SPIClass5beginEv>
        instance().setClockDivider(divider);
 23f9bf2:	f7ff fbfb 	bl	23f93ec <_ZN8particle8SpiProxyIL19hal_spi_interface_t0EE8instanceEv>
 23f9bf6:	2110      	movs	r1, #16
 23f9bf8:	f001 fe34 	bl	23fb864 <_ZN8SPIClass15setClockDividerEh>
        instance().setDataMode(mode);
 23f9bfc:	f7ff fbf6 	bl	23f93ec <_ZN8particle8SpiProxyIL19hal_spi_interface_t0EE8instanceEv>
 23f9c00:	2103      	movs	r1, #3
 23f9c02:	f001 fdd3 	bl	23fb7ac <_ZN8SPIClass11setDataModeEh>
    }
 23f9c06:	e71d      	b.n	23f9a44 <_ZN16Adafruit_SSD13515beginEv+0x22>

023f9c08 <_ZN16Adafruit_SSD13519drawPixelEsst>:
{
 23f9c08:	b5f8      	push	{r3, r4, r5, r6, r7, lr}
 23f9c0a:	4604      	mov	r4, r0
 23f9c0c:	461f      	mov	r7, r3
  switch (getRotation()) {
 23f9c0e:	6803      	ldr	r3, [r0, #0]
{
 23f9c10:	460d      	mov	r5, r1
  switch (getRotation()) {
 23f9c12:	f853 0c0c 	ldr.w	r0, [r3, #-12]
{
 23f9c16:	4616      	mov	r6, r2
  switch (getRotation()) {
 23f9c18:	4420      	add	r0, r4
 23f9c1a:	f000 fb27 	bl	23fa26c <_ZN12Adafruit_GFX11getRotationEv>
 23f9c1e:	2802      	cmp	r0, #2
 23f9c20:	d02c      	beq.n	23f9c7c <_ZN16Adafruit_SSD13519drawPixelEsst+0x74>
 23f9c22:	2803      	cmp	r0, #3
 23f9c24:	d037      	beq.n	23f9c96 <_ZN16Adafruit_SSD13519drawPixelEsst+0x8e>
 23f9c26:	2801      	cmp	r0, #1
 23f9c28:	d108      	bne.n	23f9c3c <_ZN16Adafruit_SSD13519drawPixelEsst+0x34>
    x = WIDTH - x - 1;
 23f9c2a:	43f2      	mvns	r2, r6
 23f9c2c:	6823      	ldr	r3, [r4, #0]
  void rawFastVLine(int16_t x, int16_t y, int16_t h, uint16_t color);
  template<typename T>
  void swap(T &x, T &y) {
    T tmp = x;
    x = y;
    y = tmp;
 23f9c2e:	462e      	mov	r6, r5
 23f9c30:	f853 3c0c 	ldr.w	r3, [r3, #-12]
 23f9c34:	4423      	add	r3, r4
 23f9c36:	891b      	ldrh	r3, [r3, #8]
 23f9c38:	441a      	add	r2, r3
 23f9c3a:	b215      	sxth	r5, r2
  if ((x >= SSD1351WIDTH) || (y >= SSD1351HEIGHT)) return;
 23f9c3c:	b2ab      	uxth	r3, r5
 23f9c3e:	2b7f      	cmp	r3, #127	; 0x7f
 23f9c40:	d81b      	bhi.n	23f9c7a <_ZN16Adafruit_SSD13519drawPixelEsst+0x72>
 23f9c42:	b2b3      	uxth	r3, r6
 23f9c44:	2b7f      	cmp	r3, #127	; 0x7f
 23f9c46:	d818      	bhi.n	23f9c7a <_ZN16Adafruit_SSD13519drawPixelEsst+0x72>
  goTo(x, y);
 23f9c48:	4632      	mov	r2, r6
 23f9c4a:	4629      	mov	r1, r5
 23f9c4c:	4620      	mov	r0, r4
 23f9c4e:	f7ff fcd7 	bl	23f9600 <_ZN16Adafruit_SSD13514goToEii>
  digitalWriteFast(_rs, HIGH);
 23f9c52:	2101      	movs	r1, #1
 23f9c54:	7960      	ldrb	r0, [r4, #5]
 23f9c56:	f7ff fb4f 	bl	23f92f8 <digitalWriteFast>
  digitalWriteFast(_cs, LOW);
 23f9c5a:	2100      	movs	r1, #0
 23f9c5c:	7920      	ldrb	r0, [r4, #4]
 23f9c5e:	f7ff fb4b 	bl	23f92f8 <digitalWriteFast>
  spiwrite(color >> 8);
 23f9c62:	4620      	mov	r0, r4
 23f9c64:	0a39      	lsrs	r1, r7, #8
 23f9c66:	f7ff fbdb 	bl	23f9420 <_ZN16Adafruit_SSD13518spiwriteEh>
  spiwrite(color);
 23f9c6a:	4620      	mov	r0, r4
 23f9c6c:	b2f9      	uxtb	r1, r7
 23f9c6e:	f7ff fbd7 	bl	23f9420 <_ZN16Adafruit_SSD13518spiwriteEh>
  digitalWriteFast(_cs, HIGH);
 23f9c72:	2101      	movs	r1, #1
 23f9c74:	7920      	ldrb	r0, [r4, #4]
 23f9c76:	f7ff fb3f 	bl	23f92f8 <digitalWriteFast>
}
 23f9c7a:	bdf8      	pop	{r3, r4, r5, r6, r7, pc}
    x = WIDTH - x - 1;
 23f9c7c:	43ed      	mvns	r5, r5
    y = HEIGHT - y - 1;
 23f9c7e:	43f6      	mvns	r6, r6
    x = WIDTH - x - 1;
 23f9c80:	6823      	ldr	r3, [r4, #0]
 23f9c82:	f853 3c0c 	ldr.w	r3, [r3, #-12]
 23f9c86:	4423      	add	r3, r4
 23f9c88:	8919      	ldrh	r1, [r3, #8]
    y = HEIGHT - y - 1;
 23f9c8a:	895a      	ldrh	r2, [r3, #10]
    x = WIDTH - x - 1;
 23f9c8c:	440d      	add	r5, r1
    y = HEIGHT - y - 1;
 23f9c8e:	4416      	add	r6, r2
    x = WIDTH - x - 1;
 23f9c90:	b22d      	sxth	r5, r5
    y = HEIGHT - y - 1;
 23f9c92:	b236      	sxth	r6, r6
    break;
 23f9c94:	e7d2      	b.n	23f9c3c <_ZN16Adafruit_SSD13519drawPixelEsst+0x34>
    y = HEIGHT - y - 1;
 23f9c96:	43e9      	mvns	r1, r5
 23f9c98:	6823      	ldr	r3, [r4, #0]
    x = y;
 23f9c9a:	4635      	mov	r5, r6
 23f9c9c:	f853 3c0c 	ldr.w	r3, [r3, #-12]
 23f9ca0:	4423      	add	r3, r4
 23f9ca2:	895b      	ldrh	r3, [r3, #10]
 23f9ca4:	4419      	add	r1, r3
 23f9ca6:	b20e      	sxth	r6, r1
    break;
 23f9ca8:	e7c8      	b.n	23f9c3c <_ZN16Adafruit_SSD13519drawPixelEsst+0x34>

023f9caa <_ZTv0_n24_N16Adafruit_SSD13519drawPixelEsst>:
  void drawPixel(int16_t x, int16_t y, uint16_t color);
 23f9caa:	f8d0 c000 	ldr.w	ip, [r0]
 23f9cae:	f1ac 0c18 	sub.w	ip, ip, #24
 23f9cb2:	f8dc c000 	ldr.w	ip, [ip]
 23f9cb6:	4460      	add	r0, ip
 23f9cb8:	f7ff bfa6 	b.w	23f9c08 <_ZN16Adafruit_SSD13519drawPixelEsst>

023f9cbc <_ZN16Adafruit_SSD1351D2Ev>:
class Adafruit_SSD1351  : public virtual Adafruit_GFX {
 23f9cbc:	680a      	ldr	r2, [r1, #0]
 23f9cbe:	6002      	str	r2, [r0, #0]
 23f9cc0:	6849      	ldr	r1, [r1, #4]
 23f9cc2:	f852 2c0c 	ldr.w	r2, [r2, #-12]
 23f9cc6:	5081      	str	r1, [r0, r2]
 23f9cc8:	4770      	bx	lr

023f9cca <_ZN12Adafruit_GFX8drawLineEsssst>:
}

// Bresenham's algorithm - thx wikpedia
void Adafruit_GFX::drawLine(int16_t x0, int16_t y0,
			    int16_t x1, int16_t y1,
			    uint16_t color) {
 23f9cca:	e92d 4ff0 	stmdb	sp!, {r4, r5, r6, r7, r8, r9, sl, fp, lr}
 23f9cce:	461f      	mov	r7, r3
 23f9cd0:	b085      	sub	sp, #20
 23f9cd2:	f9bd 8038 	ldrsh.w	r8, [sp, #56]	; 0x38
  int16_t steep = abs(y1 - y0) > abs(x1 - x0);
 23f9cd6:	eba7 0a01 	sub.w	sl, r7, r1
 23f9cda:	eba8 0902 	sub.w	r9, r8, r2
 23f9cde:	f1b9 0f00 	cmp.w	r9, #0
 23f9ce2:	bfb8      	it	lt
 23f9ce4:	f1c9 0900 	rsblt	r9, r9, #0
 23f9ce8:	f1ba 0f00 	cmp.w	sl, #0
 23f9cec:	bfb8      	it	lt
 23f9cee:	f1ca 0a00 	rsblt	sl, sl, #0
  if (steep) {
 23f9cf2:	45d1      	cmp	r9, sl
			    uint16_t color) {
 23f9cf4:	4683      	mov	fp, r0
 23f9cf6:	460c      	mov	r4, r1
 23f9cf8:	4615      	mov	r5, r2
 23f9cfa:	f8bd 303c 	ldrh.w	r3, [sp, #60]	; 0x3c
  if (steep) {
 23f9cfe:	dd04      	ble.n	23f9d0a <_ZN12Adafruit_GFX8drawLineEsssst+0x40>
 23f9d00:	463a      	mov	r2, r7
    swap(x0, y0);
 23f9d02:	462c      	mov	r4, r5
    swap(x1, y1);
 23f9d04:	4647      	mov	r7, r8
    swap(x0, y0);
 23f9d06:	460d      	mov	r5, r1
    swap(x1, y1);
 23f9d08:	4690      	mov	r8, r2
  }

  if (x0 > x1) {
 23f9d0a:	42bc      	cmp	r4, r7
 23f9d0c:	dd05      	ble.n	23f9d1a <_ZN12Adafruit_GFX8drawLineEsssst+0x50>
 23f9d0e:	462a      	mov	r2, r5
    swap(x0, x1);
    swap(y0, y1);
 23f9d10:	4645      	mov	r5, r8
 23f9d12:	4690      	mov	r8, r2
  if (x0 > x1) {
 23f9d14:	4622      	mov	r2, r4
 23f9d16:	463c      	mov	r4, r7
 23f9d18:	4617      	mov	r7, r2
  }

  int16_t dx, dy;
  dx = x1 - x0;
 23f9d1a:	1b3e      	subs	r6, r7, r4
 23f9d1c:	b2b2      	uxth	r2, r6
 23f9d1e:	9200      	str	r2, [sp, #0]
  dy = abs(y1 - y0);
 23f9d20:	eba8 0205 	sub.w	r2, r8, r5
 23f9d24:	ea82 71e2 	eor.w	r1, r2, r2, asr #31
 23f9d28:	eba1 71e2 	sub.w	r1, r1, r2, asr #31

  int16_t err = dx / 2;
 23f9d2c:	f3c6 32c0 	ubfx	r2, r6, #15, #1
 23f9d30:	fa02 f686 	sxtah	r6, r2, r6
  int16_t ystep;

  if (y0 < y1) {
    ystep = 1;
  } else {
    ystep = -1;
 23f9d34:	4545      	cmp	r5, r8
 23f9d36:	bfb4      	ite	lt
 23f9d38:	2201      	movlt	r2, #1
 23f9d3a:	f04f 32ff 	movge.w	r2, #4294967295
  dy = abs(y1 - y0);
 23f9d3e:	9101      	str	r1, [sp, #4]
  int16_t err = dx / 2;
 23f9d40:	1076      	asrs	r6, r6, #1
    ystep = -1;
 23f9d42:	9202      	str	r2, [sp, #8]
  }

  for (; x0<=x1; x0++) {
 23f9d44:	42bc      	cmp	r4, r7
 23f9d46:	dc1c      	bgt.n	23f9d82 <_ZN12Adafruit_GFX8drawLineEsssst+0xb8>
    if (steep) {
      drawPixel(y0, x0, color);
 23f9d48:	f8db 2000 	ldr.w	r2, [fp]
    if (steep) {
 23f9d4c:	45d1      	cmp	r9, sl
      drawPixel(y0, x0, color);
 23f9d4e:	f8d2 8010 	ldr.w	r8, [r2, #16]
 23f9d52:	bfc7      	ittee	gt
 23f9d54:	4629      	movgt	r1, r5
 23f9d56:	4622      	movgt	r2, r4
    } else {
      drawPixel(x0, y0, color);
 23f9d58:	462a      	movle	r2, r5
 23f9d5a:	4621      	movle	r1, r4
      drawPixel(y0, x0, color);
 23f9d5c:	9303      	str	r3, [sp, #12]
      drawPixel(x0, y0, color);
 23f9d5e:	4658      	mov	r0, fp
 23f9d60:	47c0      	blx	r8
    }
    err -= dy;
 23f9d62:	9a01      	ldr	r2, [sp, #4]
      drawPixel(x0, y0, color);
 23f9d64:	9b03      	ldr	r3, [sp, #12]
    err -= dy;
 23f9d66:	1ab6      	subs	r6, r6, r2
 23f9d68:	b2b1      	uxth	r1, r6
 23f9d6a:	b236      	sxth	r6, r6
    if (err < 0) {
 23f9d6c:	2e00      	cmp	r6, #0
 23f9d6e:	da05      	bge.n	23f9d7c <_ZN12Adafruit_GFX8drawLineEsssst+0xb2>
      y0 += ystep;
 23f9d70:	9a02      	ldr	r2, [sp, #8]
 23f9d72:	4415      	add	r5, r2
      err += dx;
 23f9d74:	9a00      	ldr	r2, [sp, #0]
      y0 += ystep;
 23f9d76:	b22d      	sxth	r5, r5
      err += dx;
 23f9d78:	1856      	adds	r6, r2, r1
 23f9d7a:	b236      	sxth	r6, r6
  for (; x0<=x1; x0++) {
 23f9d7c:	3401      	adds	r4, #1
 23f9d7e:	b224      	sxth	r4, r4
 23f9d80:	e7e0      	b.n	23f9d44 <_ZN12Adafruit_GFX8drawLineEsssst+0x7a>
    }
  }
}
 23f9d82:	b005      	add	sp, #20
 23f9d84:	e8bd 8ff0 	ldmia.w	sp!, {r4, r5, r6, r7, r8, r9, sl, fp, pc}

023f9d88 <_ZN12Adafruit_GFX8drawRectEsssst>:

// Draw a rectangle
void Adafruit_GFX::drawRect(int16_t x, int16_t y,
			    int16_t w, int16_t h,
			    uint16_t color) {
 23f9d88:	e92d 47f3 	stmdb	sp!, {r0, r1, r4, r5, r6, r7, r8, r9, sl, lr}
 23f9d8c:	4604      	mov	r4, r0
 23f9d8e:	4616      	mov	r6, r2
 23f9d90:	468a      	mov	sl, r1
 23f9d92:	461d      	mov	r5, r3
 23f9d94:	f8bd 802c 	ldrh.w	r8, [sp, #44]	; 0x2c
  drawFastHLine(x, y, w, color);
 23f9d98:	6807      	ldr	r7, [r0, #0]
			    uint16_t color) {
 23f9d9a:	f9bd 9028 	ldrsh.w	r9, [sp, #40]	; 0x28
  drawFastHLine(x, y, w, color);
 23f9d9e:	f8cd 8000 	str.w	r8, [sp]
 23f9da2:	69ff      	ldr	r7, [r7, #28]
 23f9da4:	47b8      	blx	r7
  drawFastHLine(x, y+h-1, w, color);
 23f9da6:	6823      	ldr	r3, [r4, #0]
 23f9da8:	f109 32ff 	add.w	r2, r9, #4294967295
 23f9dac:	f8cd 8000 	str.w	r8, [sp]
 23f9db0:	4432      	add	r2, r6
 23f9db2:	4651      	mov	r1, sl
 23f9db4:	4620      	mov	r0, r4
 23f9db6:	69df      	ldr	r7, [r3, #28]
 23f9db8:	b212      	sxth	r2, r2
 23f9dba:	462b      	mov	r3, r5
 23f9dbc:	47b8      	blx	r7
  drawFastVLine(x, y, h, color);
 23f9dbe:	6823      	ldr	r3, [r4, #0]
 23f9dc0:	f8cd 8000 	str.w	r8, [sp]
 23f9dc4:	4632      	mov	r2, r6
 23f9dc6:	4651      	mov	r1, sl
 23f9dc8:	4620      	mov	r0, r4
 23f9dca:	699f      	ldr	r7, [r3, #24]
 23f9dcc:	464b      	mov	r3, r9
 23f9dce:	47b8      	blx	r7
  drawFastVLine(x+w-1, y, h, color);
 23f9dd0:	1e6b      	subs	r3, r5, #1
 23f9dd2:	eb03 010a 	add.w	r1, r3, sl
 23f9dd6:	6823      	ldr	r3, [r4, #0]
 23f9dd8:	f8cd 8028 	str.w	r8, [sp, #40]	; 0x28
 23f9ddc:	699d      	ldr	r5, [r3, #24]
 23f9dde:	4632      	mov	r2, r6
 23f9de0:	464b      	mov	r3, r9
 23f9de2:	4620      	mov	r0, r4
 23f9de4:	46ac      	mov	ip, r5
 23f9de6:	b209      	sxth	r1, r1
}
 23f9de8:	b002      	add	sp, #8
 23f9dea:	e8bd 47f0 	ldmia.w	sp!, {r4, r5, r6, r7, r8, r9, sl, lr}
  drawFastVLine(x+w-1, y, h, color);
 23f9dee:	4760      	bx	ip

023f9df0 <_ZN12Adafruit_GFX13drawFastVLineEssst>:

void Adafruit_GFX::drawFastVLine(int16_t x, int16_t y,
				 int16_t h, uint16_t color) {
 23f9df0:	b537      	push	{r0, r1, r2, r4, r5, lr}
  // Update in subclasses if desired!
  drawLine(x, y, x, y+h-1, color);
 23f9df2:	3b01      	subs	r3, #1
 23f9df4:	f8bd 5018 	ldrh.w	r5, [sp, #24]
 23f9df8:	4413      	add	r3, r2
 23f9dfa:	6804      	ldr	r4, [r0, #0]
 23f9dfc:	b21b      	sxth	r3, r3
 23f9dfe:	9300      	str	r3, [sp, #0]
 23f9e00:	9501      	str	r5, [sp, #4]
 23f9e02:	460b      	mov	r3, r1
 23f9e04:	6964      	ldr	r4, [r4, #20]
 23f9e06:	47a0      	blx	r4
}
 23f9e08:	b003      	add	sp, #12
 23f9e0a:	bd30      	pop	{r4, r5, pc}

023f9e0c <_ZN12Adafruit_GFX13drawFastHLineEssst>:

void Adafruit_GFX::drawFastHLine(int16_t x, int16_t y,
				 int16_t w, uint16_t color) {
 23f9e0c:	b537      	push	{r0, r1, r2, r4, r5, lr}
  // Update in subclasses if desired!
  drawLine(x, y, x+w-1, y, color);
 23f9e0e:	f8bd 5018 	ldrh.w	r5, [sp, #24]
 23f9e12:	6804      	ldr	r4, [r0, #0]
 23f9e14:	e9cd 2500 	strd	r2, r5, [sp]
 23f9e18:	3b01      	subs	r3, #1
 23f9e1a:	440b      	add	r3, r1
 23f9e1c:	6964      	ldr	r4, [r4, #20]
 23f9e1e:	b21b      	sxth	r3, r3
 23f9e20:	47a0      	blx	r4
}
 23f9e22:	b003      	add	sp, #12
 23f9e24:	bd30      	pop	{r4, r5, pc}

023f9e26 <_ZN12Adafruit_GFX8fillRectEsssst>:

void Adafruit_GFX::fillRect(int16_t x, int16_t y, int16_t w, int16_t h,
			    uint16_t color) {
 23f9e26:	e92d 47f3 	stmdb	sp!, {r0, r1, r4, r5, r6, r7, r8, r9, sl, lr}
 23f9e2a:	4605      	mov	r5, r0
 23f9e2c:	4692      	mov	sl, r2
  // Update in subclasses if desired!
  for (int16_t i=x; i<x+w; i++) {
 23f9e2e:	460c      	mov	r4, r1
			    uint16_t color) {
 23f9e30:	f9bd 9028 	ldrsh.w	r9, [sp, #40]	; 0x28
 23f9e34:	f8bd 802c 	ldrh.w	r8, [sp, #44]	; 0x2c
  for (int16_t i=x; i<x+w; i++) {
 23f9e38:	18ce      	adds	r6, r1, r3
 23f9e3a:	42b4      	cmp	r4, r6
 23f9e3c:	da0b      	bge.n	23f9e56 <_ZN12Adafruit_GFX8fillRectEsssst+0x30>
    drawFastVLine(i, y, h, color);
 23f9e3e:	682b      	ldr	r3, [r5, #0]
 23f9e40:	f8cd 8000 	str.w	r8, [sp]
 23f9e44:	4621      	mov	r1, r4
 23f9e46:	699f      	ldr	r7, [r3, #24]
 23f9e48:	4652      	mov	r2, sl
 23f9e4a:	464b      	mov	r3, r9
 23f9e4c:	4628      	mov	r0, r5
 23f9e4e:	3401      	adds	r4, #1
 23f9e50:	47b8      	blx	r7
  for (int16_t i=x; i<x+w; i++) {
 23f9e52:	b224      	sxth	r4, r4
 23f9e54:	e7f1      	b.n	23f9e3a <_ZN12Adafruit_GFX8fillRectEsssst+0x14>
  }
}
 23f9e56:	b002      	add	sp, #8
 23f9e58:	e8bd 87f0 	ldmia.w	sp!, {r4, r5, r6, r7, r8, r9, sl, pc}

023f9e5c <_ZN12Adafruit_GFX10fillScreenEt>:

void Adafruit_GFX::fillScreen(uint16_t color) {
 23f9e5c:	b513      	push	{r0, r1, r4, lr}
  fillRect(0, 0, _width, _height, color);
 23f9e5e:	9101      	str	r1, [sp, #4]
 23f9e60:	f9b0 100e 	ldrsh.w	r1, [r0, #14]
 23f9e64:	6802      	ldr	r2, [r0, #0]
 23f9e66:	9100      	str	r1, [sp, #0]
 23f9e68:	6a54      	ldr	r4, [r2, #36]	; 0x24
 23f9e6a:	2200      	movs	r2, #0
 23f9e6c:	f9b0 300c 	ldrsh.w	r3, [r0, #12]
 23f9e70:	4611      	mov	r1, r2
 23f9e72:	47a0      	blx	r4
}
 23f9e74:	b002      	add	sp, #8
 23f9e76:	bd10      	pop	{r4, pc}

023f9e78 <_ZN12Adafruit_GFX13invertDisplayEb>:
  return _height;
}

void Adafruit_GFX::invertDisplay(boolean i) {
  // Do nothing, must be subclassed if supported
}
 23f9e78:	4770      	bx	lr

023f9e7a <_ZN12Adafruit_GFX5writeEh>:
  if (c == '\n') {
 23f9e7a:	290a      	cmp	r1, #10
size_t Adafruit_GFX::write(uint8_t c) {
 23f9e7c:	e92d 41ff 	stmdb	sp!, {r0, r1, r2, r3, r4, r5, r6, r7, r8, lr}
 23f9e80:	4604      	mov	r4, r0
 23f9e82:	460d      	mov	r5, r1
  if (c == '\n') {
 23f9e84:	d10c      	bne.n	23f9ea0 <_ZN12Adafruit_GFX5writeEh+0x26>
    cursor_y += textsize*fontDesc[0].height;	//all chars are same height so use height of space char
 23f9e86:	6a43      	ldr	r3, [r0, #36]	; 0x24
 23f9e88:	7e02      	ldrb	r2, [r0, #24]
 23f9e8a:	7859      	ldrb	r1, [r3, #1]
 23f9e8c:	8a43      	ldrh	r3, [r0, #18]
 23f9e8e:	fb01 3302 	mla	r3, r1, r2, r3
      cursor_y += textsize*h;
 23f9e92:	8263      	strh	r3, [r4, #18]
      cursor_x = 0;
 23f9e94:	2300      	movs	r3, #0
 23f9e96:	8223      	strh	r3, [r4, #16]
}
 23f9e98:	2001      	movs	r0, #1
 23f9e9a:	b004      	add	sp, #16
 23f9e9c:	e8bd 81f0 	ldmia.w	sp!, {r4, r5, r6, r7, r8, pc}
  } else if (c == '\r') {
 23f9ea0:	290d      	cmp	r1, #13
 23f9ea2:	d0f9      	beq.n	23f9e98 <_ZN12Adafruit_GFX5writeEh+0x1e>
    drawFastChar(cursor_x, cursor_y, c, textcolor, textbgcolor, textsize);
 23f9ea4:	7e02      	ldrb	r2, [r0, #24]
 23f9ea6:	6803      	ldr	r3, [r0, #0]
 23f9ea8:	9202      	str	r2, [sp, #8]
 23f9eaa:	8ac2      	ldrh	r2, [r0, #22]
 23f9eac:	9201      	str	r2, [sp, #4]
 23f9eae:	8a82      	ldrh	r2, [r0, #20]
 23f9eb0:	9200      	str	r2, [sp, #0]
 23f9eb2:	6b1e      	ldr	r6, [r3, #48]	; 0x30
 23f9eb4:	f9b0 2012 	ldrsh.w	r2, [r0, #18]
 23f9eb8:	460b      	mov	r3, r1
 23f9eba:	f9b0 1010 	ldrsh.w	r1, [r0, #16]
 23f9ebe:	47b0      	blx	r6
	uint16_t w = fontDesc[c-fontStart].width;
 23f9ec0:	7ee3      	ldrb	r3, [r4, #27]
    if (fontKern > 0 && textcolor != textbgcolor) {
 23f9ec2:	f994 701d 	ldrsb.w	r7, [r4, #29]
	uint16_t w = fontDesc[c-fontStart].width;
 23f9ec6:	1aed      	subs	r5, r5, r3
 23f9ec8:	6a63      	ldr	r3, [r4, #36]	; 0x24
    if (fontKern > 0 && textcolor != textbgcolor) {
 23f9eca:	2f00      	cmp	r7, #0
	uint16_t w = fontDesc[c-fontStart].width;
 23f9ecc:	eb03 0285 	add.w	r2, r3, r5, lsl #2
 23f9ed0:	f813 6025 	ldrb.w	r6, [r3, r5, lsl #2]
	uint16_t h = fontDesc[c-fontStart].height;
 23f9ed4:	7855      	ldrb	r5, [r2, #1]
    if (fontKern > 0 && textcolor != textbgcolor) {
 23f9ed6:	dd15      	ble.n	23f9f04 <_ZN12Adafruit_GFX5writeEh+0x8a>
 23f9ed8:	8ae2      	ldrh	r2, [r4, #22]
 23f9eda:	8aa3      	ldrh	r3, [r4, #20]
 23f9edc:	4293      	cmp	r3, r2
 23f9ede:	d011      	beq.n	23f9f04 <_ZN12Adafruit_GFX5writeEh+0x8a>
      fillRect(cursor_x+w*textsize,cursor_y,fontKern*textsize,h*textsize,textbgcolor);
 23f9ee0:	7e23      	ldrb	r3, [r4, #24]
 23f9ee2:	9201      	str	r2, [sp, #4]
 23f9ee4:	8a21      	ldrh	r1, [r4, #16]
 23f9ee6:	fb15 f203 	smulbb	r2, r5, r3
 23f9eea:	fb06 1103 	mla	r1, r6, r3, r1
 23f9eee:	6820      	ldr	r0, [r4, #0]
 23f9ef0:	b212      	sxth	r2, r2
 23f9ef2:	9200      	str	r2, [sp, #0]
 23f9ef4:	f8d0 8024 	ldr.w	r8, [r0, #36]	; 0x24
 23f9ef8:	437b      	muls	r3, r7
 23f9efa:	4620      	mov	r0, r4
 23f9efc:	f9b4 2012 	ldrsh.w	r2, [r4, #18]
 23f9f00:	b209      	sxth	r1, r1
 23f9f02:	47c0      	blx	r8
    cursor_x += textsize*(w+fontKern);
 23f9f04:	f994 301d 	ldrsb.w	r3, [r4, #29]
 23f9f08:	7e27      	ldrb	r7, [r4, #24]
 23f9f0a:	1999      	adds	r1, r3, r6
 23f9f0c:	8a23      	ldrh	r3, [r4, #16]
    if (wrap && (cursor_x > (_width - textsize*w))) {
 23f9f0e:	f894 2028 	ldrb.w	r2, [r4, #40]	; 0x28
    cursor_x += textsize*(w+fontKern);
 23f9f12:	fb01 3307 	mla	r3, r1, r7, r3
 23f9f16:	b21b      	sxth	r3, r3
 23f9f18:	8223      	strh	r3, [r4, #16]
    if (wrap && (cursor_x > (_width - textsize*w))) {
 23f9f1a:	2a00      	cmp	r2, #0
 23f9f1c:	d0bc      	beq.n	23f9e98 <_ZN12Adafruit_GFX5writeEh+0x1e>
 23f9f1e:	f9b4 200c 	ldrsh.w	r2, [r4, #12]
 23f9f22:	fb06 2217 	mls	r2, r6, r7, r2
 23f9f26:	4293      	cmp	r3, r2
 23f9f28:	ddb6      	ble.n	23f9e98 <_ZN12Adafruit_GFX5writeEh+0x1e>
      cursor_y += textsize*h;
 23f9f2a:	8a63      	ldrh	r3, [r4, #18]
 23f9f2c:	fb05 3307 	mla	r3, r5, r7, r3
 23f9f30:	e7af      	b.n	23f9e92 <_ZN12Adafruit_GFX5writeEh+0x18>
	...

023f9f34 <_ZN12Adafruit_GFX7setFontEh>:
      font = GLCDFONT;
 23f9f34:	2304      	movs	r3, #4
	  fontDesc = glcdfontDescriptors;
 23f9f36:	4a06      	ldr	r2, [pc, #24]	; (23f9f50 <_ZN12Adafruit_GFX7setFontEh+0x1c>)
      font = GLCDFONT;
 23f9f38:	7683      	strb	r3, [r0, #26]
	  fontDesc = glcdfontDescriptors;
 23f9f3a:	6242      	str	r2, [r0, #36]	; 0x24
      fontKern = 1;
 23f9f3c:	2201      	movs	r2, #1
      fontData = glcdfontBitmaps;
 23f9f3e:	4b05      	ldr	r3, [pc, #20]	; (23f9f54 <_ZN12Adafruit_GFX7setFontEh+0x20>)
      fontKern = 1;
 23f9f40:	7742      	strb	r2, [r0, #29]
      fontData = glcdfontBitmaps;
 23f9f42:	6203      	str	r3, [r0, #32]
  fontStart = pgm_read_byte(fontData+FONT_START);
 23f9f44:	781a      	ldrb	r2, [r3, #0]
 23f9f46:	76c2      	strb	r2, [r0, #27]
  fontEnd = pgm_read_byte(fontData+FONT_END);
 23f9f48:	785b      	ldrb	r3, [r3, #1]
 23f9f4a:	7703      	strb	r3, [r0, #28]
}
 23f9f4c:	4770      	bx	lr
 23f9f4e:	bf00      	nop
 23f9f50:	023ff5c2 	.word	0x023ff5c2
 23f9f54:	023fedc8 	.word	0x023fedc8

023f9f58 <_ZN12Adafruit_GFXC1Ess>:
  WIDTH(w), HEIGHT(h)
 23f9f58:	8142      	strh	r2, [r0, #10]
  _height   = HEIGHT;
 23f9f5a:	81c2      	strh	r2, [r0, #14]
  textcolor = textbgcolor = 0xFFFF;
 23f9f5c:	f04f 32ff 	mov.w	r2, #4294967295
Adafruit_GFX::Adafruit_GFX(int16_t w, int16_t h):
 23f9f60:	b538      	push	{r3, r4, r5, lr}
  textcolor = textbgcolor = 0xFFFF;
 23f9f62:	6142      	str	r2, [r0, #20]
    Print() : write_error(0) {}
 23f9f64:	2400      	movs	r4, #0
  textsize  = 1;
 23f9f66:	2201      	movs	r2, #1
  WIDTH(w), HEIGHT(h)
 23f9f68:	4d06      	ldr	r5, [pc, #24]	; (23f9f84 <_ZN12Adafruit_GFXC1Ess+0x2c>)
 23f9f6a:	8101      	strh	r1, [r0, #8]
  _width    = WIDTH;
 23f9f6c:	8181      	strh	r1, [r0, #12]
 23f9f6e:	6044      	str	r4, [r0, #4]
  setFont(GLCDFONT);		// May also be set to TIMESNR_8, CENTURY_8, COMICS_8 or TEST (for testing candidate fonts)
 23f9f70:	2104      	movs	r1, #4
  WIDTH(w), HEIGHT(h)
 23f9f72:	6005      	str	r5, [r0, #0]
  cursor_y  = cursor_x    = 0;
 23f9f74:	6104      	str	r4, [r0, #16]
  textsize  = 1;
 23f9f76:	8302      	strh	r2, [r0, #24]
  wrap      = true;
 23f9f78:	f880 2028 	strb.w	r2, [r0, #40]	; 0x28
  setFont(GLCDFONT);		// May also be set to TIMESNR_8, CENTURY_8, COMICS_8 or TEST (for testing candidate fonts)
 23f9f7c:	f7ff ffda 	bl	23f9f34 <_ZN12Adafruit_GFX7setFontEh>
 }
 23f9f80:	bd38      	pop	{r3, r4, r5, pc}
 23f9f82:	bf00      	nop
 23f9f84:	023fed94 	.word	0x023fed94

023f9f88 <_ZN12Adafruit_GFX16fillCircleHelperEssshst>:
    uint8_t cornername, int16_t delta, uint16_t color) {
 23f9f88:	e92d 4ff0 	stmdb	sp!, {r4, r5, r6, r7, r8, r9, sl, fp, lr}
 23f9f8c:	461c      	mov	r4, r3
 23f9f8e:	b08d      	sub	sp, #52	; 0x34
 23f9f90:	f89d 3058 	ldrb.w	r3, [sp, #88]	; 0x58
 23f9f94:	4683      	mov	fp, r0
 23f9f96:	9309      	str	r3, [sp, #36]	; 0x24
 23f9f98:	f9bd 305c 	ldrsh.w	r3, [sp, #92]	; 0x5c
  int16_t ddF_y = -2 * r;
 23f9f9c:	2703      	movs	r7, #3
    uint8_t cornername, int16_t delta, uint16_t color) {
 23f9f9e:	930a      	str	r3, [sp, #40]	; 0x28
 23f9fa0:	f8bd 3060 	ldrh.w	r3, [sp, #96]	; 0x60
 23f9fa4:	9208      	str	r2, [sp, #32]
 23f9fa6:	9304      	str	r3, [sp, #16]
  int16_t f     = 1 - r;
 23f9fa8:	b2a3      	uxth	r3, r4
 23f9faa:	f1c3 0501 	rsb	r5, r3, #1
  int16_t ddF_y = -2 * r;
 23f9fae:	ebc3 33c3 	rsb	r3, r3, r3, lsl #15
 23f9fb2:	005b      	lsls	r3, r3, #1
 23f9fb4:	b21b      	sxth	r3, r3
 23f9fb6:	9307      	str	r3, [sp, #28]
  int16_t x     = 0;
 23f9fb8:	2300      	movs	r3, #0
 23f9fba:	9306      	str	r3, [sp, #24]
    if (cornername & 0x1) {
 23f9fbc:	9b09      	ldr	r3, [sp, #36]	; 0x24
  int16_t f     = 1 - r;
 23f9fbe:	b22a      	sxth	r2, r5
    if (cornername & 0x1) {
 23f9fc0:	f003 0301 	and.w	r3, r3, #1
 23f9fc4:	930b      	str	r3, [sp, #44]	; 0x2c
      drawFastVLine(x0+x, y0-y, 2*y+1+delta, color);
 23f9fc6:	b28b      	uxth	r3, r1
  int16_t f     = 1 - r;
 23f9fc8:	9203      	str	r2, [sp, #12]
      drawFastVLine(x0+x, y0-y, 2*y+1+delta, color);
 23f9fca:	9305      	str	r3, [sp, #20]
  while (x<y) {
 23f9fcc:	9b06      	ldr	r3, [sp, #24]
 23f9fce:	42a3      	cmp	r3, r4
 23f9fd0:	da70      	bge.n	23fa0b4 <_ZN12Adafruit_GFX16fillCircleHelperEssshst+0x12c>
    if (f >= 0) {
 23f9fd2:	9b03      	ldr	r3, [sp, #12]
 23f9fd4:	2b00      	cmp	r3, #0
 23f9fd6:	db0a      	blt.n	23f9fee <_ZN12Adafruit_GFX16fillCircleHelperEssshst+0x66>
      ddF_y += 2;
 23f9fd8:	9b07      	ldr	r3, [sp, #28]
      y--;
 23f9fda:	3c01      	subs	r4, #1
      ddF_y += 2;
 23f9fdc:	3302      	adds	r3, #2
 23f9fde:	b21a      	sxth	r2, r3
 23f9fe0:	9207      	str	r2, [sp, #28]
      f     += ddF_y;
 23f9fe2:	9a03      	ldr	r2, [sp, #12]
      y--;
 23f9fe4:	b224      	sxth	r4, r4
      f     += ddF_y;
 23f9fe6:	fa12 f583 	uxtah	r5, r2, r3
 23f9fea:	b22b      	sxth	r3, r5
 23f9fec:	9303      	str	r3, [sp, #12]
    x++;
 23f9fee:	9b06      	ldr	r3, [sp, #24]
 23f9ff0:	3301      	adds	r3, #1
 23f9ff2:	fa1f fa83 	uxth.w	sl, r3
 23f9ff6:	b21b      	sxth	r3, r3
 23f9ff8:	9306      	str	r3, [sp, #24]
    f     += ddF_x;
 23f9ffa:	9b03      	ldr	r3, [sp, #12]
 23f9ffc:	443b      	add	r3, r7
 23f9ffe:	b21b      	sxth	r3, r3
 23fa000:	9303      	str	r3, [sp, #12]
    if (cornername & 0x1) {
 23fa002:	9b0b      	ldr	r3, [sp, #44]	; 0x2c
 23fa004:	b33b      	cbz	r3, 23fa056 <_ZN12Adafruit_GFX16fillCircleHelperEssshst+0xce>
      drawFastVLine(x0+x, y0-y, 2*y+1+delta, color);
 23fa006:	9804      	ldr	r0, [sp, #16]
 23fa008:	f8bd 8028 	ldrh.w	r8, [sp, #40]	; 0x28
 23fa00c:	9000      	str	r0, [sp, #0]
 23fa00e:	f8db 0000 	ldr.w	r0, [fp]
 23fa012:	f8bd 9020 	ldrh.w	r9, [sp, #32]
 23fa016:	9905      	ldr	r1, [sp, #20]
 23fa018:	b2a6      	uxth	r6, r4
 23fa01a:	6980      	ldr	r0, [r0, #24]
 23fa01c:	f108 0301 	add.w	r3, r8, #1
 23fa020:	eb03 0346 	add.w	r3, r3, r6, lsl #1
 23fa024:	eba9 0206 	sub.w	r2, r9, r6
 23fa028:	4451      	add	r1, sl
 23fa02a:	4605      	mov	r5, r0
 23fa02c:	b21b      	sxth	r3, r3
 23fa02e:	4658      	mov	r0, fp
 23fa030:	b212      	sxth	r2, r2
 23fa032:	b209      	sxth	r1, r1
 23fa034:	47a8      	blx	r5
      drawFastVLine(x0+y, y0-x, 2*x+1+delta, color);
 23fa036:	9905      	ldr	r1, [sp, #20]
 23fa038:	9804      	ldr	r0, [sp, #16]
 23fa03a:	4431      	add	r1, r6
 23fa03c:	f8db 6000 	ldr.w	r6, [fp]
 23fa040:	9000      	str	r0, [sp, #0]
 23fa042:	eb08 0307 	add.w	r3, r8, r7
 23fa046:	eba9 020a 	sub.w	r2, r9, sl
 23fa04a:	4658      	mov	r0, fp
 23fa04c:	69b6      	ldr	r6, [r6, #24]
 23fa04e:	b21b      	sxth	r3, r3
 23fa050:	b212      	sxth	r2, r2
 23fa052:	b209      	sxth	r1, r1
 23fa054:	47b0      	blx	r6
    if (cornername & 0x2) {
 23fa056:	9b09      	ldr	r3, [sp, #36]	; 0x24
 23fa058:	079b      	lsls	r3, r3, #30
 23fa05a:	d528      	bpl.n	23fa0ae <_ZN12Adafruit_GFX16fillCircleHelperEssshst+0x126>
      drawFastVLine(x0-x, y0-y, 2*y+1+delta, color);
 23fa05c:	9804      	ldr	r0, [sp, #16]
 23fa05e:	f8bd 9028 	ldrh.w	r9, [sp, #40]	; 0x28
 23fa062:	9000      	str	r0, [sp, #0]
 23fa064:	f8db 0000 	ldr.w	r0, [fp]
 23fa068:	f8bd 8020 	ldrh.w	r8, [sp, #32]
 23fa06c:	9905      	ldr	r1, [sp, #20]
 23fa06e:	b2a6      	uxth	r6, r4
 23fa070:	6980      	ldr	r0, [r0, #24]
 23fa072:	f109 0301 	add.w	r3, r9, #1
 23fa076:	eb03 0346 	add.w	r3, r3, r6, lsl #1
 23fa07a:	eba8 0206 	sub.w	r2, r8, r6
 23fa07e:	eba1 010a 	sub.w	r1, r1, sl
 23fa082:	4605      	mov	r5, r0
 23fa084:	b21b      	sxth	r3, r3
 23fa086:	4658      	mov	r0, fp
 23fa088:	b212      	sxth	r2, r2
 23fa08a:	b209      	sxth	r1, r1
 23fa08c:	47a8      	blx	r5
      drawFastVLine(x0-y, y0-x, 2*x+1+delta, color);
 23fa08e:	9905      	ldr	r1, [sp, #20]
 23fa090:	9804      	ldr	r0, [sp, #16]
 23fa092:	1b89      	subs	r1, r1, r6
 23fa094:	f8db 6000 	ldr.w	r6, [fp]
 23fa098:	9000      	str	r0, [sp, #0]
 23fa09a:	eb09 0307 	add.w	r3, r9, r7
 23fa09e:	eba8 020a 	sub.w	r2, r8, sl
 23fa0a2:	4658      	mov	r0, fp
 23fa0a4:	69b6      	ldr	r6, [r6, #24]
 23fa0a6:	b21b      	sxth	r3, r3
 23fa0a8:	b212      	sxth	r2, r2
 23fa0aa:	b209      	sxth	r1, r1
 23fa0ac:	47b0      	blx	r6
 23fa0ae:	3702      	adds	r7, #2
 23fa0b0:	b2bf      	uxth	r7, r7
 23fa0b2:	e78b      	b.n	23f9fcc <_ZN12Adafruit_GFX16fillCircleHelperEssshst+0x44>
}
 23fa0b4:	b00d      	add	sp, #52	; 0x34
 23fa0b6:	e8bd 8ff0 	ldmia.w	sp!, {r4, r5, r6, r7, r8, r9, sl, fp, pc}

023fa0ba <_ZN12Adafruit_GFX10fillCircleEssst>:
			      uint16_t color) {
 23fa0ba:	e92d 43f0 	stmdb	sp!, {r4, r5, r6, r7, r8, r9, lr}
 23fa0be:	4615      	mov	r5, r2
 23fa0c0:	b085      	sub	sp, #20
 23fa0c2:	f8bd 8030 	ldrh.w	r8, [sp, #48]	; 0x30
  drawFastVLine(x0, y0-r, 2*r+1, color);
 23fa0c6:	b29a      	uxth	r2, r3
 23fa0c8:	f8cd 8000 	str.w	r8, [sp]
			      uint16_t color) {
 23fa0cc:	461e      	mov	r6, r3
  drawFastVLine(x0, y0-r, 2*r+1, color);
 23fa0ce:	0053      	lsls	r3, r2, #1
 23fa0d0:	f103 0c01 	add.w	ip, r3, #1
 23fa0d4:	6803      	ldr	r3, [r0, #0]
 23fa0d6:	1aaa      	subs	r2, r5, r2
 23fa0d8:	f8d3 9018 	ldr.w	r9, [r3, #24]
 23fa0dc:	b212      	sxth	r2, r2
 23fa0de:	fa0f f38c 	sxth.w	r3, ip
			      uint16_t color) {
 23fa0e2:	4604      	mov	r4, r0
 23fa0e4:	460f      	mov	r7, r1
  drawFastVLine(x0, y0-r, 2*r+1, color);
 23fa0e6:	47c8      	blx	r9
  fillCircleHelper(x0, y0, r, 3, 0, color);
 23fa0e8:	2303      	movs	r3, #3
 23fa0ea:	2200      	movs	r2, #0
 23fa0ec:	4639      	mov	r1, r7
 23fa0ee:	e9cd 3200 	strd	r3, r2, [sp]
 23fa0f2:	4620      	mov	r0, r4
 23fa0f4:	4633      	mov	r3, r6
 23fa0f6:	462a      	mov	r2, r5
 23fa0f8:	f8cd 8008 	str.w	r8, [sp, #8]
 23fa0fc:	f7ff ff44 	bl	23f9f88 <_ZN12Adafruit_GFX16fillCircleHelperEssshst>
}
 23fa100:	b005      	add	sp, #20
 23fa102:	e8bd 83f0 	ldmia.w	sp!, {r4, r5, r6, r7, r8, r9, pc}

023fa106 <_ZN12Adafruit_GFX8drawCharEsshtth>:
			    uint16_t color, uint16_t bg, uint8_t size) {
 23fa106:	e92d 4ff0 	stmdb	sp!, {r4, r5, r6, r7, r8, r9, sl, fp, lr}
 23fa10a:	ed2d 8b02 	vpush	{d8}
 23fa10e:	b089      	sub	sp, #36	; 0x24
 23fa110:	4690      	mov	r8, r2
 23fa112:	f8bd 2050 	ldrh.w	r2, [sp, #80]	; 0x50
 23fa116:	4682      	mov	sl, r0
 23fa118:	9204      	str	r2, [sp, #16]
 23fa11a:	f8bd 2054 	ldrh.w	r2, [sp, #84]	; 0x54
 23fa11e:	2500      	movs	r5, #0
 23fa120:	9205      	str	r2, [sp, #20]
  if (c < fontStart || c > fontEnd) {
 23fa122:	7ec2      	ldrb	r2, [r0, #27]
			    uint16_t color, uint16_t bg, uint8_t size) {
 23fa124:	f89d 7058 	ldrb.w	r7, [sp, #88]	; 0x58
  if (c < fontStart || c > fontEnd) {
 23fa128:	429a      	cmp	r2, r3
 23fa12a:	d863      	bhi.n	23fa1f4 <_ZN12Adafruit_GFX8drawCharEsshtth+0xee>
 23fa12c:	7f04      	ldrb	r4, [r0, #28]
 23fa12e:	429c      	cmp	r4, r3
 23fa130:	d360      	bcc.n	23fa1f4 <_ZN12Adafruit_GFX8drawCharEsshtth+0xee>
    c -= fontStart;
 23fa132:	1a9b      	subs	r3, r3, r2
 23fa134:	b2db      	uxtb	r3, r3
  if((x >= _width)            || // Clip right
 23fa136:	f9ba 200c 	ldrsh.w	r2, [sl, #12]
 23fa13a:	428a      	cmp	r2, r1
 23fa13c:	f340 8084 	ble.w	23fa248 <_ZN12Adafruit_GFX8drawCharEsshtth+0x142>
 23fa140:	f9ba 200e 	ldrsh.w	r2, [sl, #14]
 23fa144:	4542      	cmp	r2, r8
 23fa146:	dd7f      	ble.n	23fa248 <_ZN12Adafruit_GFX8drawCharEsshtth+0x142>
     ((x + (fontDesc[c].width * size) - 1) < 0) || // Clip left
 23fa148:	f8da 4024 	ldr.w	r4, [sl, #36]	; 0x24
 23fa14c:	009a      	lsls	r2, r3, #2
 23fa14e:	9207      	str	r2, [sp, #28]
 23fa150:	eb04 0283 	add.w	r2, r4, r3, lsl #2
 23fa154:	f814 3023 	ldrb.w	r3, [r4, r3, lsl #2]
 23fa158:	fb03 1307 	mla	r3, r3, r7, r1
     (y >= _height)           || // Clip bottom
 23fa15c:	2b00      	cmp	r3, #0
 23fa15e:	dd73      	ble.n	23fa248 <_ZN12Adafruit_GFX8drawCharEsshtth+0x142>
     ((y + (fontDesc[c].height * size) - 1) < 0))   // Clip top
 23fa160:	7853      	ldrb	r3, [r2, #1]
 23fa162:	fb03 8307 	mla	r3, r3, r7, r8
     ((x + (fontDesc[c].width * size) - 1) < 0) || // Clip left
 23fa166:	2b00      	cmp	r3, #0
 23fa168:	dd6e      	ble.n	23fa248 <_ZN12Adafruit_GFX8drawCharEsshtth+0x142>
  	uint16_t fontIndex = fontDesc[c].offset + 2; //((fontDesc + c)->offset) + 2;
 23fa16a:	8853      	ldrh	r3, [r2, #2]
          drawPixel(x+j, y+i, color);
 23fa16c:	b28c      	uxth	r4, r1
  	uint16_t fontIndex = fontDesc[c].offset + 2; //((fontDesc + c)->offset) + 2;
 23fa16e:	3302      	adds	r3, #2
 23fa170:	b29b      	uxth	r3, r3
 23fa172:	9302      	str	r3, [sp, #8]
 23fa174:	2300      	movs	r3, #0
 23fa176:	9303      	str	r3, [sp, #12]
          fillRect(x+j*size, y+i*size, size, size, bg);
 23fa178:	b2bb      	uxth	r3, r7
 23fa17a:	9306      	str	r3, [sp, #24]
  for (int8_t i=0; i<fontDesc[c].height; i++ ) {	// i<fontHeight
 23fa17c:	f8da 3024 	ldr.w	r3, [sl, #36]	; 0x24
 23fa180:	9a07      	ldr	r2, [sp, #28]
 23fa182:	f99d 600c 	ldrsb.w	r6, [sp, #12]
 23fa186:	4413      	add	r3, r2
 23fa188:	785b      	ldrb	r3, [r3, #1]
 23fa18a:	429e      	cmp	r6, r3
 23fa18c:	da5c      	bge.n	23fa248 <_ZN12Adafruit_GFX8drawCharEsshtth+0x142>
          fillRect(x+j*size, y+i*size, size, size, bg);
 23fa18e:	9b06      	ldr	r3, [sp, #24]
 23fa190:	f04f 0900 	mov.w	r9, #0
 23fa194:	4373      	muls	r3, r6
 23fa196:	fa13 f388 	uxtah	r3, r3, r8
 23fa19a:	b21b      	sxth	r3, r3
 23fa19c:	ee08 3a10 	vmov	s16, r3
          drawPixel(x+j, y+i, bg);
 23fa1a0:	4446      	add	r6, r8
 23fa1a2:	b236      	sxth	r6, r6
    for (int8_t j = 0; j<fontDesc[c].width; j++) {			//j<fontWidth
 23fa1a4:	f8da 2024 	ldr.w	r2, [sl, #36]	; 0x24
 23fa1a8:	9807      	ldr	r0, [sp, #28]
 23fa1aa:	fa4f f189 	sxtb.w	r1, r9
 23fa1ae:	5c12      	ldrb	r2, [r2, r0]
 23fa1b0:	fa5f f389 	uxtb.w	r3, r9
 23fa1b4:	4291      	cmp	r1, r2
 23fa1b6:	da43      	bge.n	23fa240 <_ZN12Adafruit_GFX8drawCharEsshtth+0x13a>
      if (bitCount++%8 == 0) {
 23fa1b8:	075a      	lsls	r2, r3, #29
 23fa1ba:	d107      	bne.n	23fa1cc <_ZN12Adafruit_GFX8drawCharEsshtth+0xc6>
        line = pgm_read_byte(fontData+fontIndex++);
 23fa1bc:	9b02      	ldr	r3, [sp, #8]
 23fa1be:	9802      	ldr	r0, [sp, #8]
 23fa1c0:	f8da 2020 	ldr.w	r2, [sl, #32]
 23fa1c4:	3301      	adds	r3, #1
 23fa1c6:	b29b      	uxth	r3, r3
 23fa1c8:	5c15      	ldrb	r5, [r2, r0]
 23fa1ca:	9302      	str	r3, [sp, #8]
      if (line & 0x80) {
 23fa1cc:	062b      	lsls	r3, r5, #24
 23fa1ce:	d523      	bpl.n	23fa218 <_ZN12Adafruit_GFX8drawCharEsshtth+0x112>
        if (size == 1) {// default sizeFast
 23fa1d0:	2f01      	cmp	r7, #1
          drawPixel(x+j, y+i, color);
 23fa1d2:	f8da 2000 	ldr.w	r2, [sl]
 23fa1d6:	b289      	uxth	r1, r1
        if (size == 1) {// default sizeFast
 23fa1d8:	d10e      	bne.n	23fa1f8 <_ZN12Adafruit_GFX8drawCharEsshtth+0xf2>
          drawPixel(x+j, y+i, color);
 23fa1da:	f8d2 b010 	ldr.w	fp, [r2, #16]
 23fa1de:	9b04      	ldr	r3, [sp, #16]
 23fa1e0:	4421      	add	r1, r4
          drawPixel(x+j, y+i, bg);
 23fa1e2:	4632      	mov	r2, r6
 23fa1e4:	4650      	mov	r0, sl
 23fa1e6:	b209      	sxth	r1, r1
 23fa1e8:	47d8      	blx	fp
      line <<= 1;
 23fa1ea:	006d      	lsls	r5, r5, #1
 23fa1ec:	b2ed      	uxtb	r5, r5
    for (int8_t j = 0; j<fontDesc[c].width; j++) {			//j<fontWidth
 23fa1ee:	f109 0901 	add.w	r9, r9, #1
 23fa1f2:	e7d7      	b.n	23fa1a4 <_ZN12Adafruit_GFX8drawCharEsshtth+0x9e>
    c = 0;
 23fa1f4:	462b      	mov	r3, r5
 23fa1f6:	e79e      	b.n	23fa136 <_ZN12Adafruit_GFX8drawCharEsshtth+0x30>
          fillRect(x+(j*size), y+(i*size), size, size, color);
 23fa1f8:	9806      	ldr	r0, [sp, #24]
 23fa1fa:	b23b      	sxth	r3, r7
 23fa1fc:	fb10 f101 	smulbb	r1, r0, r1
 23fa200:	9804      	ldr	r0, [sp, #16]
 23fa202:	4421      	add	r1, r4
          fillRect(x+j*size, y+i*size, size, size, bg);
 23fa204:	e9cd 3000 	strd	r3, r0, [sp]
 23fa208:	b209      	sxth	r1, r1
 23fa20a:	f8d2 b024 	ldr.w	fp, [r2, #36]	; 0x24
 23fa20e:	4650      	mov	r0, sl
 23fa210:	ee18 2a10 	vmov	r2, s16
 23fa214:	47d8      	blx	fp
 23fa216:	e7e8      	b.n	23fa1ea <_ZN12Adafruit_GFX8drawCharEsshtth+0xe4>
      } else if (bg != color) {
 23fa218:	e9dd 2304 	ldrd	r2, r3, [sp, #16]
 23fa21c:	4293      	cmp	r3, r2
 23fa21e:	d0e4      	beq.n	23fa1ea <_ZN12Adafruit_GFX8drawCharEsshtth+0xe4>
        if (size == 1) // default size
 23fa220:	2f01      	cmp	r7, #1
          drawPixel(x+j, y+i, color);
 23fa222:	f8da 2000 	ldr.w	r2, [sl]
 23fa226:	b289      	uxth	r1, r1
        if (size == 1) // default size
 23fa228:	d103      	bne.n	23fa232 <_ZN12Adafruit_GFX8drawCharEsshtth+0x12c>
          drawPixel(x+j, y+i, bg);
 23fa22a:	f8d2 b010 	ldr.w	fp, [r2, #16]
 23fa22e:	4421      	add	r1, r4
 23fa230:	e7d7      	b.n	23fa1e2 <_ZN12Adafruit_GFX8drawCharEsshtth+0xdc>
          fillRect(x+j*size, y+i*size, size, size, bg);
 23fa232:	9806      	ldr	r0, [sp, #24]
 23fa234:	b23b      	sxth	r3, r7
 23fa236:	fb10 f101 	smulbb	r1, r0, r1
 23fa23a:	9805      	ldr	r0, [sp, #20]
 23fa23c:	4421      	add	r1, r4
 23fa23e:	e7e1      	b.n	23fa204 <_ZN12Adafruit_GFX8drawCharEsshtth+0xfe>
  for (int8_t i=0; i<fontDesc[c].height; i++ ) {	// i<fontHeight
 23fa240:	9b03      	ldr	r3, [sp, #12]
 23fa242:	3301      	adds	r3, #1
 23fa244:	9303      	str	r3, [sp, #12]
 23fa246:	e799      	b.n	23fa17c <_ZN12Adafruit_GFX8drawCharEsshtth+0x76>
}
 23fa248:	b009      	add	sp, #36	; 0x24
 23fa24a:	ecbd 8b02 	vpop	{d8}
 23fa24e:	e8bd 8ff0 	ldmia.w	sp!, {r4, r5, r6, r7, r8, r9, sl, fp, pc}

023fa252 <_ZN12Adafruit_GFX12drawFastCharEsshtth>:
                                    uint16_t color, uint16_t bg, uint8_t size) {
 23fa252:	b470      	push	{r4, r5, r6}
 23fa254:	f8bd 400c 	ldrh.w	r4, [sp, #12]
 23fa258:	f8bd 5010 	ldrh.w	r5, [sp, #16]
 23fa25c:	f89d 6014 	ldrb.w	r6, [sp, #20]
  drawChar(x,y,c,color,bg,size);
 23fa260:	9403      	str	r4, [sp, #12]
 23fa262:	e9cd 5604 	strd	r5, r6, [sp, #16]
}
 23fa266:	bc70      	pop	{r4, r5, r6}
  drawChar(x,y,c,color,bg,size);
 23fa268:	f7ff bf4d 	b.w	23fa106 <_ZN12Adafruit_GFX8drawCharEsshtth>

023fa26c <_ZN12Adafruit_GFX11getRotationEv>:
}
 23fa26c:	7e40      	ldrb	r0, [r0, #25]
 23fa26e:	4770      	bx	lr

023fa270 <_ZN12Adafruit_GFX5widthEv>:
}
 23fa270:	f9b0 000c 	ldrsh.w	r0, [r0, #12]
 23fa274:	4770      	bx	lr

023fa276 <_ZN12Adafruit_GFX6heightEv>:
}
 23fa276:	f9b0 000e 	ldrsh.w	r0, [r0, #14]
 23fa27a:	4770      	bx	lr

023fa27c <_ZN6Bitmap6read16Ei>:
    }

    close(fd);
}

uint16_t Bitmap::read16(int fd) {
 23fa27c:	b507      	push	{r0, r1, r2, lr}
 23fa27e:	4608      	mov	r0, r1
  uint16_t result;
  int count = read(fd, &result, sizeof(result));
 23fa280:	2202      	movs	r2, #2
 23fa282:	f10d 0106 	add.w	r1, sp, #6
 23fa286:	f004 fba5 	bl	23fe9d4 <read>
  return result;
}
 23fa28a:	f8bd 0006 	ldrh.w	r0, [sp, #6]
 23fa28e:	b003      	add	sp, #12
 23fa290:	f85d fb04 	ldr.w	pc, [sp], #4

023fa294 <_ZN6Bitmap6read32Ei>:

uint32_t Bitmap::read32(int fd) {
 23fa294:	b507      	push	{r0, r1, r2, lr}
  uint32_t result;
  int count = read(fd, &result, sizeof(result));
 23fa296:	2204      	movs	r2, #4
uint32_t Bitmap::read32(int fd) {
 23fa298:	4608      	mov	r0, r1
  int count = read(fd, &result, sizeof(result));
 23fa29a:	eb0d 0102 	add.w	r1, sp, r2
 23fa29e:	f004 fb99 	bl	23fe9d4 <read>
  return result;
 23fa2a2:	9801      	ldr	r0, [sp, #4]
 23fa2a4:	b003      	add	sp, #12
 23fa2a6:	f85d fb04 	ldr.w	pc, [sp], #4
	...

023fa2ac <_ZN6Bitmap10drawBitmapEPKc>:
void Bitmap::drawBitmap(const char* filename) {
 23fa2ac:	e92d 4ff0 	stmdb	sp!, {r4, r5, r6, r7, r8, r9, sl, fp, lr}
 23fa2b0:	460d      	mov	r5, r1
    Log.info("filename = %s", filename);
 23fa2b2:	460a      	mov	r2, r1
void Bitmap::drawBitmap(const char* filename) {
 23fa2b4:	b09f      	sub	sp, #124	; 0x7c
    Log.info("filename = %s", filename);
 23fa2b6:	4974      	ldr	r1, [pc, #464]	; (23fa488 <_ZN6Bitmap10drawBitmapEPKc+0x1dc>)
void Bitmap::drawBitmap(const char* filename) {
 23fa2b8:	4604      	mov	r4, r0
    Log.info("filename = %s", filename);
 23fa2ba:	4874      	ldr	r0, [pc, #464]	; (23fa48c <_ZN6Bitmap10drawBitmapEPKc+0x1e0>)
 23fa2bc:	f7fe fc40 	bl	23f8b40 <_ZNK5spark6Logger4infoEPKcz>
    int fd = open(filename, O_RDONLY);
 23fa2c0:	2100      	movs	r1, #0
 23fa2c2:	4628      	mov	r0, r5
 23fa2c4:	f004 fb72 	bl	23fe9ac <open>
 23fa2c8:	4605      	mov	r5, r0
    Log.info("file open errno=%d", errno);
 23fa2ca:	f001 f9e3 	bl	23fb694 <__errno>
 23fa2ce:	4970      	ldr	r1, [pc, #448]	; (23fa490 <_ZN6Bitmap10drawBitmapEPKc+0x1e4>)
 23fa2d0:	6802      	ldr	r2, [r0, #0]
 23fa2d2:	486e      	ldr	r0, [pc, #440]	; (23fa48c <_ZN6Bitmap10drawBitmapEPKc+0x1e0>)
 23fa2d4:	f7fe fc34 	bl	23f8b40 <_ZNK5spark6Logger4infoEPKcz>
    if (fd == -1) {
 23fa2d8:	1c6b      	adds	r3, r5, #1
 23fa2da:	d106      	bne.n	23fa2ea <_ZN6Bitmap10drawBitmapEPKc+0x3e>
        Log.error("ERROR");
 23fa2dc:	496d      	ldr	r1, [pc, #436]	; (23fa494 <_ZN6Bitmap10drawBitmapEPKc+0x1e8>)
 23fa2de:	486b      	ldr	r0, [pc, #428]	; (23fa48c <_ZN6Bitmap10drawBitmapEPKc+0x1e0>)
 23fa2e0:	f7fe fc46 	bl	23f8b70 <_ZNK5spark6Logger5errorEPKcz>
}
 23fa2e4:	b01f      	add	sp, #124	; 0x7c
 23fa2e6:	e8bd 8ff0 	ldmia.w	sp!, {r4, r5, r6, r7, r8, r9, sl, fp, pc}
    delay(4000);
 23fa2ea:	f44f 607a 	mov.w	r0, #4000	; 0xfa0
 23fa2ee:	f002 ff37 	bl	23fd160 <delay>
    if (read16(fd) == 0x4D42) { // BMP signature
 23fa2f2:	4629      	mov	r1, r5
 23fa2f4:	4620      	mov	r0, r4
 23fa2f6:	f7ff ffc1 	bl	23fa27c <_ZN6Bitmap6read16Ei>
 23fa2fa:	f644 5342 	movw	r3, #19778	; 0x4d42
 23fa2fe:	4298      	cmp	r0, r3
 23fa300:	f040 80bd 	bne.w	23fa47e <_ZN6Bitmap10drawBitmapEPKc+0x1d2>
        uint32_t fileSize = read32(fd);
 23fa304:	4629      	mov	r1, r5
 23fa306:	4620      	mov	r0, r4
 23fa308:	f7ff ffc4 	bl	23fa294 <_ZN6Bitmap6read32Ei>
        lseek(fd, 4, SEEK_CUR); // ignore creator bytes
 23fa30c:	2201      	movs	r2, #1
 23fa30e:	2104      	movs	r1, #4
 23fa310:	4628      	mov	r0, r5
 23fa312:	f004 fb41 	bl	23fe998 <lseek>
        uint32_t bmpImageoffset = read32(fd); // Start of image data
 23fa316:	4629      	mov	r1, r5
 23fa318:	4620      	mov	r0, r4
 23fa31a:	f7ff ffbb 	bl	23fa294 <_ZN6Bitmap6read32Ei>
        uint32_t headerSize = read32(fd);
 23fa31e:	4629      	mov	r1, r5
        uint32_t bmpImageoffset = read32(fd); // Start of image data
 23fa320:	4680      	mov	r8, r0
        uint32_t headerSize = read32(fd);
 23fa322:	4620      	mov	r0, r4
 23fa324:	f7ff ffb6 	bl	23fa294 <_ZN6Bitmap6read32Ei>
        int bmpWidth  = read32(fd);
 23fa328:	4629      	mov	r1, r5
 23fa32a:	4620      	mov	r0, r4
 23fa32c:	f7ff ffb2 	bl	23fa294 <_ZN6Bitmap6read32Ei>
        int bmpHeight = read32(fd);
 23fa330:	4629      	mov	r1, r5
        int bmpWidth  = read32(fd);
 23fa332:	4607      	mov	r7, r0
        int bmpHeight = read32(fd);
 23fa334:	4620      	mov	r0, r4
 23fa336:	f7ff ffad 	bl	23fa294 <_ZN6Bitmap6read32Ei>
        uint16_t planeCount = read16(fd);
 23fa33a:	4629      	mov	r1, r5
        int bmpHeight = read32(fd);
 23fa33c:	4606      	mov	r6, r0
        uint16_t planeCount = read16(fd);
 23fa33e:	4620      	mov	r0, r4
 23fa340:	f7ff ff9c 	bl	23fa27c <_ZN6Bitmap6read16Ei>
        if (planeCount == 1) { // # planes -- must be '1'
 23fa344:	2801      	cmp	r0, #1
        uint16_t planeCount = read16(fd);
 23fa346:	4682      	mov	sl, r0
        if (planeCount == 1) { // # planes -- must be '1'
 23fa348:	f040 8099 	bne.w	23fa47e <_ZN6Bitmap10drawBitmapEPKc+0x1d2>
            uint8_t bmpDepth = read16(fd); // bits per pixel
 23fa34c:	4629      	mov	r1, r5
 23fa34e:	4620      	mov	r0, r4
 23fa350:	f7ff ff94 	bl	23fa27c <_ZN6Bitmap6read16Ei>
 23fa354:	4681      	mov	r9, r0
            uint32_t compression = read32(fd);
 23fa356:	4629      	mov	r1, r5
 23fa358:	4620      	mov	r0, r4
            if ((bmpDepth == 24) && (compression == 0)) { // 0 = uncompressed
 23fa35a:	fa5f f989 	uxtb.w	r9, r9
            uint32_t compression = read32(fd);
 23fa35e:	f7ff ff99 	bl	23fa294 <_ZN6Bitmap6read32Ei>
            if ((bmpDepth == 24) && (compression == 0)) { // 0 = uncompressed
 23fa362:	f1b9 0f18 	cmp.w	r9, #24
 23fa366:	f040 808a 	bne.w	23fa47e <_ZN6Bitmap10drawBitmapEPKc+0x1d2>
 23fa36a:	2800      	cmp	r0, #0
 23fa36c:	f040 8087 	bne.w	23fa47e <_ZN6Bitmap10drawBitmapEPKc+0x1d2>
                uint32_t rowSize = (bmpWidth * 3 + 3) & ~3;
 23fa370:	1c7b      	adds	r3, r7, #1
 23fa372:	eb03 0343 	add.w	r3, r3, r3, lsl #1
 23fa376:	f023 0303 	bic.w	r3, r3, #3
 23fa37a:	9301      	str	r3, [sp, #4]
                if ((w - 1) >= _tft->width())  w = _tft->width();
 23fa37c:	6823      	ldr	r3, [r4, #0]
                if(bmpHeight < 0) {
 23fa37e:	2e00      	cmp	r6, #0
                if ((w - 1) >= _tft->width())  w = _tft->width();
 23fa380:	681a      	ldr	r2, [r3, #0]
                    flip = false;
 23fa382:	bfb8      	it	lt
 23fa384:	9003      	strlt	r0, [sp, #12]
                if ((w - 1) >= _tft->width())  w = _tft->width();
 23fa386:	f852 0c0c 	ldr.w	r0, [r2, #-12]
                    bmpHeight = -bmpHeight;
 23fa38a:	bfb8      	it	lt
 23fa38c:	4276      	neglt	r6, r6
                if ((w - 1) >= _tft->width())  w = _tft->width();
 23fa38e:	4418      	add	r0, r3
                bool flip = true;
 23fa390:	bfa8      	it	ge
 23fa392:	f8cd a00c 	strge.w	sl, [sp, #12]
        int bmpWidth  = read32(fd);
 23fa396:	9704      	str	r7, [sp, #16]
                if ((w - 1) >= _tft->width())  w = _tft->width();
 23fa398:	f7ff ff6a 	bl	23fa270 <_ZN12Adafruit_GFX5widthEv>
 23fa39c:	42b8      	cmp	r0, r7
 23fa39e:	da07      	bge.n	23fa3b0 <_ZN6Bitmap10drawBitmapEPKc+0x104>
 23fa3a0:	6823      	ldr	r3, [r4, #0]
 23fa3a2:	681a      	ldr	r2, [r3, #0]
 23fa3a4:	f852 0c0c 	ldr.w	r0, [r2, #-12]
 23fa3a8:	4418      	add	r0, r3
 23fa3aa:	f7ff ff61 	bl	23fa270 <_ZN12Adafruit_GFX5widthEv>
 23fa3ae:	9004      	str	r0, [sp, #16]
                if ((h - 1) >= _tft->height()) h = _tft->height();
 23fa3b0:	6823      	ldr	r3, [r4, #0]
 23fa3b2:	681a      	ldr	r2, [r3, #0]
 23fa3b4:	f852 0c0c 	ldr.w	r0, [r2, #-12]
 23fa3b8:	4418      	add	r0, r3
 23fa3ba:	f7ff ff5c 	bl	23fa276 <_ZN12Adafruit_GFX6heightEv>
 23fa3be:	42b0      	cmp	r0, r6
 23fa3c0:	da52      	bge.n	23fa468 <_ZN6Bitmap10drawBitmapEPKc+0x1bc>
 23fa3c2:	6823      	ldr	r3, [r4, #0]
 23fa3c4:	681a      	ldr	r2, [r3, #0]
 23fa3c6:	f852 0c0c 	ldr.w	r0, [r2, #-12]
 23fa3ca:	4418      	add	r0, r3
 23fa3cc:	f7ff ff53 	bl	23fa276 <_ZN12Adafruit_GFX6heightEv>
 23fa3d0:	9005      	str	r0, [sp, #20]
                for (int row = 0; row < h; row++) { // For each scanline...
 23fa3d2:	f04f 0900 	mov.w	r9, #0
 23fa3d6:	9b01      	ldr	r3, [sp, #4]
 23fa3d8:	3e01      	subs	r6, #1
 23fa3da:	fb03 8306 	mla	r3, r3, r6, r8
 23fa3de:	9302      	str	r3, [sp, #8]
 23fa3e0:	9b05      	ldr	r3, [sp, #20]
 23fa3e2:	454b      	cmp	r3, r9
 23fa3e4:	dd4b      	ble.n	23fa47e <_ZN6Bitmap10drawBitmapEPKc+0x1d2>
                    _tft->goTo(0, row);
 23fa3e6:	464a      	mov	r2, r9
 23fa3e8:	2100      	movs	r1, #0
 23fa3ea:	6820      	ldr	r0, [r4, #0]
 23fa3ec:	f7ff f908 	bl	23f9600 <_ZN16Adafruit_SSD13514goToEii>
                    lseek(fd, pos, SEEK_SET);
 23fa3f0:	e9dd 1302 	ldrd	r1, r3, [sp, #8]
 23fa3f4:	2200      	movs	r2, #0
 23fa3f6:	4628      	mov	r0, r5
 23fa3f8:	4293      	cmp	r3, r2
 23fa3fa:	bf08      	it	eq
 23fa3fc:	4641      	moveq	r1, r8
 23fa3fe:	f004 facb 	bl	23fe998 <lseek>
                    for (int col = 0; col < w; col++) { // For each pixel...
 23fa402:	f04f 0a00 	mov.w	sl, #0
                    buffidx = sizeof(sdbuffer); // Force buffer reload
 23fa406:	2760      	movs	r7, #96	; 0x60
                    for (int col = 0; col < w; col++) { // For each pixel...
 23fa408:	9b04      	ldr	r3, [sp, #16]
 23fa40a:	4553      	cmp	r3, sl
 23fa40c:	dd2e      	ble.n	23fa46c <_ZN6Bitmap10drawBitmapEPKc+0x1c0>
                        if (buffidx >= sizeof(sdbuffer)) {
 23fa40e:	2f5f      	cmp	r7, #95	; 0x5f
 23fa410:	d905      	bls.n	23fa41e <_ZN6Bitmap10drawBitmapEPKc+0x172>
                            read(fd, sdbuffer, sizeof(sdbuffer));
 23fa412:	2260      	movs	r2, #96	; 0x60
 23fa414:	4628      	mov	r0, r5
 23fa416:	a906      	add	r1, sp, #24
 23fa418:	f004 fadc 	bl	23fe9d4 <read>
                            buffidx = 0; // Set index to beginning
 23fa41c:	2700      	movs	r7, #0
                        _tft->drawPixel(col, row, _tft->Color565(r, g, b));
 23fa41e:	f8d4 b000 	ldr.w	fp, [r4]
                        uint8_t b = sdbuffer[buffidx++];
 23fa422:	1c7a      	adds	r2, r7, #1
                        uint8_t g = sdbuffer[buffidx++];
 23fa424:	a81e      	add	r0, sp, #120	; 0x78
 23fa426:	fa50 f282 	uxtab	r2, r0, r2
                        _tft->drawPixel(col, row, _tft->Color565(r, g, b));
 23fa42a:	f8db 0000 	ldr.w	r0, [fp]
                        uint8_t g = sdbuffer[buffidx++];
 23fa42e:	1cb9      	adds	r1, r7, #2
                        _tft->drawPixel(col, row, _tft->Color565(r, g, b));
 23fa430:	6800      	ldr	r0, [r0, #0]
                        uint8_t b = sdbuffer[buffidx++];
 23fa432:	ab1e      	add	r3, sp, #120	; 0x78
                        _tft->drawPixel(col, row, _tft->Color565(r, g, b));
 23fa434:	4606      	mov	r6, r0
                        uint8_t r = sdbuffer[buffidx++];
 23fa436:	a81e      	add	r0, sp, #120	; 0x78
                        uint8_t b = sdbuffer[buffidx++];
 23fa438:	443b      	add	r3, r7
                        uint8_t r = sdbuffer[buffidx++];
 23fa43a:	fa50 f181 	uxtab	r1, r0, r1
                        _tft->drawPixel(col, row, _tft->Color565(r, g, b));
 23fa43e:	f813 3c60 	ldrb.w	r3, [r3, #-96]
 23fa442:	f812 2c60 	ldrb.w	r2, [r2, #-96]
 23fa446:	f811 1c60 	ldrb.w	r1, [r1, #-96]
 23fa44a:	4658      	mov	r0, fp
 23fa44c:	f7fe ffac 	bl	23f93a8 <_ZN16Adafruit_SSD13518Color565Ehhh>
                        uint8_t r = sdbuffer[buffidx++];
 23fa450:	3703      	adds	r7, #3
                        _tft->drawPixel(col, row, _tft->Color565(r, g, b));
 23fa452:	4603      	mov	r3, r0
 23fa454:	fa0f f18a 	sxth.w	r1, sl
 23fa458:	4658      	mov	r0, fp
 23fa45a:	fa0f f289 	sxth.w	r2, r9
 23fa45e:	47b0      	blx	r6
                        uint8_t r = sdbuffer[buffidx++];
 23fa460:	b2ff      	uxtb	r7, r7
                    for (int col = 0; col < w; col++) { // For each pixel...
 23fa462:	f10a 0a01 	add.w	sl, sl, #1
 23fa466:	e7cf      	b.n	23fa408 <_ZN6Bitmap10drawBitmapEPKc+0x15c>
 23fa468:	9605      	str	r6, [sp, #20]
 23fa46a:	e7b2      	b.n	23fa3d2 <_ZN6Bitmap10drawBitmapEPKc+0x126>
                for (int row = 0; row < h; row++) { // For each scanline...
 23fa46c:	e9dd 3201 	ldrd	r3, r2, [sp, #4]
 23fa470:	1ad3      	subs	r3, r2, r3
 23fa472:	9302      	str	r3, [sp, #8]
 23fa474:	9b01      	ldr	r3, [sp, #4]
 23fa476:	f109 0901 	add.w	r9, r9, #1
 23fa47a:	4498      	add	r8, r3
 23fa47c:	e7b0      	b.n	23fa3e0 <_ZN6Bitmap10drawBitmapEPKc+0x134>
    close(fd);
 23fa47e:	4628      	mov	r0, r5
 23fa480:	f004 fa82 	bl	23fe988 <close>
 23fa484:	e72e      	b.n	23fa2e4 <_ZN6Bitmap10drawBitmapEPKc+0x38>
 23fa486:	bf00      	nop
 23fa488:	023ff9c2 	.word	0x023ff9c2
 23fa48c:	1007ae7c 	.word	0x1007ae7c
 23fa490:	023ff9d0 	.word	0x023ff9d0
 23fa494:	023ff9e3 	.word	0x023ff9e3

023fa498 <_ZN7VL53L1X15VL53L1_I2CWriteEhtPht>:
	}
	return status;
}

VL53L1X_ERROR VL53L1X::VL53L1_I2CWrite(uint8_t DeviceAddr, uint16_t RegisterAddr, uint8_t *pBuffer, uint16_t NumByteToWrite)
{
 23fa498:	b5f7      	push	{r0, r1, r2, r4, r5, r6, r7, lr}
 23fa49a:	4615      	mov	r5, r2
 23fa49c:	4604      	mov	r4, r0
#ifdef DEBUG_MODE
	Serial.print("Beginning transmission to ");
	Serial.println(((DeviceAddr) >> 1) & 0x7F);
#endif
	dev_i2c->beginTransmission(((uint8_t)(((DeviceAddr) >> 1) & 0x7F)));
 23fa49e:	0849      	lsrs	r1, r1, #1
 23fa4a0:	6840      	ldr	r0, [r0, #4]
{
 23fa4a2:	461e      	mov	r6, r3
 23fa4a4:	f8bd 7020 	ldrh.w	r7, [sp, #32]
	dev_i2c->beginTransmission(((uint8_t)(((DeviceAddr) >> 1) & 0x7F)));
 23fa4a8:	f003 fbbc 	bl	23fdc24 <_ZN7TwoWire17beginTransmissionEh>
#ifdef DEBUG_MODE
	Serial.print("Writing port number ");
	Serial.println(RegisterAddr);
#endif
	uint8_t buffer[2];
	buffer[0] = RegisterAddr >> 8;
 23fa4ac:	0a2b      	lsrs	r3, r5, #8
	buffer[1] = RegisterAddr & 0xFF;
	dev_i2c->write(buffer, 2);
 23fa4ae:	6860      	ldr	r0, [r4, #4]
	buffer[1] = RegisterAddr & 0xFF;
 23fa4b0:	f88d 5005 	strb.w	r5, [sp, #5]
	buffer[0] = RegisterAddr >> 8;
 23fa4b4:	f88d 3004 	strb.w	r3, [sp, #4]
	dev_i2c->write(buffer, 2);
 23fa4b8:	6803      	ldr	r3, [r0, #0]
 23fa4ba:	2202      	movs	r2, #2
 23fa4bc:	68db      	ldr	r3, [r3, #12]
 23fa4be:	a901      	add	r1, sp, #4
 23fa4c0:	4798      	blx	r3
	for (int i = 0; i < NumByteToWrite; i++)
 23fa4c2:	2500      	movs	r5, #0
 23fa4c4:	42af      	cmp	r7, r5
		dev_i2c->write(pBuffer[i]);
 23fa4c6:	6860      	ldr	r0, [r4, #4]
	for (int i = 0; i < NumByteToWrite; i++)
 23fa4c8:	dd05      	ble.n	23fa4d6 <_ZN7VL53L1X15VL53L1_I2CWriteEhtPht+0x3e>
		dev_i2c->write(pBuffer[i]);
 23fa4ca:	6803      	ldr	r3, [r0, #0]
 23fa4cc:	5d71      	ldrb	r1, [r6, r5]
 23fa4ce:	689b      	ldr	r3, [r3, #8]
 23fa4d0:	4798      	blx	r3
	for (int i = 0; i < NumByteToWrite; i++)
 23fa4d2:	3501      	adds	r5, #1
 23fa4d4:	e7f6      	b.n	23fa4c4 <_ZN7VL53L1X15VL53L1_I2CWriteEhtPht+0x2c>

	dev_i2c->endTransmission(true);
 23fa4d6:	2101      	movs	r1, #1
 23fa4d8:	f003 fba8 	bl	23fdc2c <_ZN7TwoWire15endTransmissionEh>
	return 0;
}
 23fa4dc:	2000      	movs	r0, #0
 23fa4de:	b003      	add	sp, #12
 23fa4e0:	bdf0      	pop	{r4, r5, r6, r7, pc}

023fa4e2 <_ZN7VL53L1X13VL53L1_WrByteEP12VL53L1_Dev_tth>:
{
 23fa4e2:	b51f      	push	{r0, r1, r2, r3, r4, lr}
 23fa4e4:	f88d 300f 	strb.w	r3, [sp, #15]
	status = VL53L1_I2CWrite(Dev->I2cDevAddr, index, &data, 1);
 23fa4e8:	2301      	movs	r3, #1
 23fa4ea:	7809      	ldrb	r1, [r1, #0]
 23fa4ec:	9300      	str	r3, [sp, #0]
 23fa4ee:	f10d 030f 	add.w	r3, sp, #15
 23fa4f2:	f7ff ffd1 	bl	23fa498 <_ZN7VL53L1X15VL53L1_I2CWriteEhtPht>
}
 23fa4f6:	b005      	add	sp, #20
 23fa4f8:	f85d fb04 	ldr.w	pc, [sp], #4

023fa4fc <_ZN7VL53L1X22VL53L1X_ClearInterruptEv>:
	status = VL53L1_WrByte(Device, SYSTEM__INTERRUPT_CLEAR, 0x01);
 23fa4fc:	2301      	movs	r3, #1
 23fa4fe:	2286      	movs	r2, #134	; 0x86
 23fa500:	6981      	ldr	r1, [r0, #24]
 23fa502:	f7ff bfee 	b.w	23fa4e2 <_ZN7VL53L1X13VL53L1_WrByteEP12VL53L1_Dev_tth>

023fa506 <_ZN7VL53L1X20VL53L1X_StartRangingEv>:
	status = VL53L1_WrByte(Device, SYSTEM__MODE_START, 0x40); /* Enable VL53L1X */
 23fa506:	2340      	movs	r3, #64	; 0x40
 23fa508:	2287      	movs	r2, #135	; 0x87
 23fa50a:	6981      	ldr	r1, [r0, #24]
 23fa50c:	f7ff bfe9 	b.w	23fa4e2 <_ZN7VL53L1X13VL53L1_WrByteEP12VL53L1_Dev_tth>

023fa510 <_ZN7VL53L1X19VL53L1X_StopRangingEv>:
	status = VL53L1_WrByte(Device, SYSTEM__MODE_START, 0x00); /* Disable VL53L1X */
 23fa510:	2300      	movs	r3, #0
 23fa512:	2287      	movs	r2, #135	; 0x87
 23fa514:	6981      	ldr	r1, [r0, #24]
 23fa516:	f7ff bfe4 	b.w	23fa4e2 <_ZN7VL53L1X13VL53L1_WrByteEP12VL53L1_Dev_tth>

023fa51a <_ZN7VL53L1X13VL53L1_WrWordEP12VL53L1_Dev_ttt>:
{
 23fa51a:	b51f      	push	{r0, r1, r2, r3, r4, lr}
	buffer[0] = data >> 8;
 23fa51c:	0a1c      	lsrs	r4, r3, #8
	buffer[1] = data & 0x00FF;
 23fa51e:	f88d 300d 	strb.w	r3, [sp, #13]
	status = VL53L1_I2CWrite(Dev->I2cDevAddr, index, (uint8_t *)buffer, 2);
 23fa522:	2302      	movs	r3, #2
 23fa524:	7809      	ldrb	r1, [r1, #0]
 23fa526:	9300      	str	r3, [sp, #0]
 23fa528:	ab03      	add	r3, sp, #12
	buffer[0] = data >> 8;
 23fa52a:	f88d 400c 	strb.w	r4, [sp, #12]
	status = VL53L1_I2CWrite(Dev->I2cDevAddr, index, (uint8_t *)buffer, 2);
 23fa52e:	f7ff ffb3 	bl	23fa498 <_ZN7VL53L1X15VL53L1_I2CWriteEhtPht>
}
 23fa532:	b004      	add	sp, #16
 23fa534:	bd10      	pop	{r4, pc}

023fa536 <_ZN7VL53L1X14VL53L1_I2CReadEhtPht>:

VL53L1X_ERROR VL53L1X::VL53L1_I2CRead(uint8_t DeviceAddr, uint16_t RegisterAddr, uint8_t *pBuffer, uint16_t NumByteToRead)
{
 23fa536:	e92d 43f7 	stmdb	sp!, {r0, r1, r2, r4, r5, r6, r7, r8, r9, lr}
 23fa53a:	4604      	mov	r4, r0
 23fa53c:	4690      	mov	r8, r2
 23fa53e:	461d      	mov	r5, r3
#ifdef DEBUG_MODE
		Serial.print("Writing port number ");
		Serial.println(RegisterAddr);
#endif
		uint8_t buffer[2];
		buffer[0] = RegisterAddr >> 8;
 23fa540:	2605      	movs	r6, #5
		dev_i2c->beginTransmission(((uint8_t)(((DeviceAddr) >> 1) & 0x7F)));
 23fa542:	084f      	lsrs	r7, r1, #1
		buffer[0] = RegisterAddr >> 8;
 23fa544:	ea4f 2912 	mov.w	r9, r2, lsr #8
		dev_i2c->beginTransmission(((uint8_t)(((DeviceAddr) >> 1) & 0x7F)));
 23fa548:	4639      	mov	r1, r7
 23fa54a:	6860      	ldr	r0, [r4, #4]
 23fa54c:	f003 fb6a 	bl	23fdc24 <_ZN7TwoWire17beginTransmissionEh>
		buffer[1] = RegisterAddr & 0xFF;
		dev_i2c->write(buffer, 2);
 23fa550:	6860      	ldr	r0, [r4, #4]
		buffer[0] = RegisterAddr >> 8;
 23fa552:	f88d 9004 	strb.w	r9, [sp, #4]
		buffer[1] = RegisterAddr & 0xFF;
 23fa556:	f88d 8005 	strb.w	r8, [sp, #5]
		dev_i2c->write(buffer, 2);
 23fa55a:	6803      	ldr	r3, [r0, #0]
 23fa55c:	a901      	add	r1, sp, #4
 23fa55e:	2202      	movs	r2, #2
 23fa560:	68db      	ldr	r3, [r3, #12]
 23fa562:	4798      	blx	r3
		status = dev_i2c->endTransmission(false);
 23fa564:	2100      	movs	r1, #0
 23fa566:	6860      	ldr	r0, [r4, #4]
 23fa568:	f003 fb60 	bl	23fdc2c <_ZN7TwoWire15endTransmissionEh>

		if (status == 0)
 23fa56c:	b118      	cbz	r0, 23fa576 <_ZN7VL53L1X14VL53L1_I2CReadEhtPht+0x40>
	for (uint8_t x = 0; x < maxAttempts; x++)
 23fa56e:	3e01      	subs	r6, #1
 23fa570:	f016 06ff 	ands.w	r6, r6, #255	; 0xff
 23fa574:	d1e8      	bne.n	23fa548 <_ZN7VL53L1X14VL53L1_I2CReadEhtPht+0x12>
		}
#endif
		//End of fix
	}

	dev_i2c->requestFrom(((uint8_t)(((DeviceAddr) >> 1) & 0x7F)), (byte)NumByteToRead);
 23fa576:	4639      	mov	r1, r7
 23fa578:	f89d 2028 	ldrb.w	r2, [sp, #40]	; 0x28
 23fa57c:	6860      	ldr	r0, [r4, #4]
 23fa57e:	f003 fb4e 	bl	23fdc1e <_ZN7TwoWire11requestFromEhj>

	int i = 0;
 23fa582:	3d01      	subs	r5, #1
	while (dev_i2c->available())
 23fa584:	6860      	ldr	r0, [r4, #4]
 23fa586:	6803      	ldr	r3, [r0, #0]
 23fa588:	691b      	ldr	r3, [r3, #16]
 23fa58a:	4798      	blx	r3
 23fa58c:	b130      	cbz	r0, 23fa59c <_ZN7VL53L1X14VL53L1_I2CReadEhtPht+0x66>
	{
		pBuffer[i] = dev_i2c->read();
 23fa58e:	6860      	ldr	r0, [r4, #4]
 23fa590:	6803      	ldr	r3, [r0, #0]
 23fa592:	695b      	ldr	r3, [r3, #20]
 23fa594:	4798      	blx	r3
 23fa596:	f805 0f01 	strb.w	r0, [r5, #1]!
	while (dev_i2c->available())
 23fa59a:	e7f3      	b.n	23fa584 <_ZN7VL53L1X14VL53L1_I2CReadEhtPht+0x4e>
		i++;
	}

	return 0;
}
 23fa59c:	b003      	add	sp, #12
 23fa59e:	e8bd 83f0 	ldmia.w	sp!, {r4, r5, r6, r7, r8, r9, pc}

023fa5a2 <_ZN7VL53L1X13VL53L1_RdByteEP12VL53L1_Dev_ttPh>:
{
 23fa5a2:	b513      	push	{r0, r1, r4, lr}
	status = VL53L1_I2CRead(Dev->I2cDevAddr, index, data, 1);
 23fa5a4:	2401      	movs	r4, #1
 23fa5a6:	7809      	ldrb	r1, [r1, #0]
 23fa5a8:	9400      	str	r4, [sp, #0]
 23fa5aa:	f7ff ffc4 	bl	23fa536 <_ZN7VL53L1X14VL53L1_I2CReadEhtPht>
	if (status)
 23fa5ae:	3800      	subs	r0, #0
 23fa5b0:	bf18      	it	ne
 23fa5b2:	2001      	movne	r0, #1
}
 23fa5b4:	4240      	negs	r0, r0
 23fa5b6:	b002      	add	sp, #8
 23fa5b8:	bd10      	pop	{r4, pc}

023fa5ba <_ZN7VL53L1X28VL53L1X_GetInterruptPolarityEPh>:
{
 23fa5ba:	b513      	push	{r0, r1, r4, lr}
	status = VL53L1_RdByte(Device, GPIO_HV_MUX__CTRL, &Temp);
 23fa5bc:	2230      	movs	r2, #48	; 0x30
{
 23fa5be:	460c      	mov	r4, r1
	status = VL53L1_RdByte(Device, GPIO_HV_MUX__CTRL, &Temp);
 23fa5c0:	f10d 0307 	add.w	r3, sp, #7
 23fa5c4:	6981      	ldr	r1, [r0, #24]
 23fa5c6:	f7ff ffec 	bl	23fa5a2 <_ZN7VL53L1X13VL53L1_RdByteEP12VL53L1_Dev_ttPh>
	*pInterruptPolarity = !(Temp >> 4);
 23fa5ca:	f89d 3007 	ldrb.w	r3, [sp, #7]
 23fa5ce:	ea6f 1313 	mvn.w	r3, r3, lsr #4
 23fa5d2:	f003 0301 	and.w	r3, r3, #1
 23fa5d6:	7023      	strb	r3, [r4, #0]
}
 23fa5d8:	b002      	add	sp, #8
 23fa5da:	bd10      	pop	{r4, pc}

023fa5dc <_ZN7VL53L1X25VL53L1X_CheckForDataReadyEPh>:
{
 23fa5dc:	b537      	push	{r0, r1, r2, r4, r5, lr}
 23fa5de:	4605      	mov	r5, r0
 23fa5e0:	460c      	mov	r4, r1
	status = VL53L1X_GetInterruptPolarity(&IntPol);
 23fa5e2:	f10d 0107 	add.w	r1, sp, #7
 23fa5e6:	f7ff ffe8 	bl	23fa5ba <_ZN7VL53L1X28VL53L1X_GetInterruptPolarityEPh>
	status = VL53L1_RdByte(Device, GPIO__TIO_HV_STATUS, &Temp);
 23fa5ea:	2231      	movs	r2, #49	; 0x31
 23fa5ec:	4628      	mov	r0, r5
 23fa5ee:	69a9      	ldr	r1, [r5, #24]
 23fa5f0:	f10d 0306 	add.w	r3, sp, #6
 23fa5f4:	f7ff ffd5 	bl	23fa5a2 <_ZN7VL53L1X13VL53L1_RdByteEP12VL53L1_Dev_ttPh>
	if (status == 0)
 23fa5f8:	b950      	cbnz	r0, 23fa610 <_ZN7VL53L1X25VL53L1X_CheckForDataReadyEPh+0x34>
		if ((Temp & 1) == IntPol)
 23fa5fa:	f89d 3006 	ldrb.w	r3, [sp, #6]
 23fa5fe:	f89d 2007 	ldrb.w	r2, [sp, #7]
 23fa602:	f003 0301 	and.w	r3, r3, #1
 23fa606:	429a      	cmp	r2, r3
			*isDataReady = 1;
 23fa608:	bf0a      	itet	eq
 23fa60a:	2301      	moveq	r3, #1
			*isDataReady = 0;
 23fa60c:	7020      	strbne	r0, [r4, #0]
			*isDataReady = 1;
 23fa60e:	7023      	strbeq	r3, [r4, #0]
}
 23fa610:	b003      	add	sp, #12
 23fa612:	bd30      	pop	{r4, r5, pc}

023fa614 <_ZN7VL53L1X18VL53L1X_SensorInitEv>:
	uint8_t Addr = 0x00, dataReady = 0, timeout = 0;
 23fa614:	2300      	movs	r3, #0
{
 23fa616:	b573      	push	{r0, r1, r4, r5, r6, lr}
 23fa618:	4604      	mov	r4, r0
	uint8_t Addr = 0x00, dataReady = 0, timeout = 0;
 23fa61a:	252d      	movs	r5, #45	; 0x2d
 23fa61c:	4e1b      	ldr	r6, [pc, #108]	; (23fa68c <_ZN7VL53L1X18VL53L1X_SensorInitEv+0x78>)
 23fa61e:	f88d 3007 	strb.w	r3, [sp, #7]
		status = VL53L1_WrByte(Device, Addr, VL51L1X_DEFAULT_CONFIGURATION[Addr - 0x2D]);
 23fa622:	b2aa      	uxth	r2, r5
 23fa624:	4620      	mov	r0, r4
 23fa626:	f816 3b01 	ldrb.w	r3, [r6], #1
 23fa62a:	69a1      	ldr	r1, [r4, #24]
	for (Addr = 0x2D; Addr <= 0x87; Addr++)
 23fa62c:	3501      	adds	r5, #1
		status = VL53L1_WrByte(Device, Addr, VL51L1X_DEFAULT_CONFIGURATION[Addr - 0x2D]);
 23fa62e:	f7ff ff58 	bl	23fa4e2 <_ZN7VL53L1X13VL53L1_WrByteEP12VL53L1_Dev_tth>
	for (Addr = 0x2D; Addr <= 0x87; Addr++)
 23fa632:	2d88      	cmp	r5, #136	; 0x88
 23fa634:	d1f5      	bne.n	23fa622 <_ZN7VL53L1X18VL53L1X_SensorInitEv+0xe>
	status = VL53L1X_StartRanging();
 23fa636:	4620      	mov	r0, r4
 23fa638:	f7ff ff65 	bl	23fa506 <_ZN7VL53L1X20VL53L1X_StartRangingEv>
 23fa63c:	2598      	movs	r5, #152	; 0x98
	while (dataReady == 0)
 23fa63e:	f89d 3007 	ldrb.w	r3, [sp, #7]
 23fa642:	b963      	cbnz	r3, 23fa65e <_ZN7VL53L1X18VL53L1X_SensorInitEv+0x4a>
		status = VL53L1X_CheckForDataReady(&dataReady);
 23fa644:	4620      	mov	r0, r4
 23fa646:	f10d 0107 	add.w	r1, sp, #7
		if (timeout++ > 150)
 23fa64a:	3d01      	subs	r5, #1
		status = VL53L1X_CheckForDataReady(&dataReady);
 23fa64c:	f7ff ffc6 	bl	23fa5dc <_ZN7VL53L1X25VL53L1X_CheckForDataReadyEPh>
		if (timeout++ > 150)
 23fa650:	f015 05ff 	ands.w	r5, r5, #255	; 0xff
 23fa654:	d017      	beq.n	23fa686 <_ZN7VL53L1X18VL53L1X_SensorInitEv+0x72>
		delay(1);
 23fa656:	2001      	movs	r0, #1
 23fa658:	f002 fd82 	bl	23fd160 <delay>
	while (dataReady == 0)
 23fa65c:	e7ef      	b.n	23fa63e <_ZN7VL53L1X18VL53L1X_SensorInitEv+0x2a>
	status = VL53L1X_ClearInterrupt();
 23fa65e:	4620      	mov	r0, r4
 23fa660:	f7ff ff4c 	bl	23fa4fc <_ZN7VL53L1X22VL53L1X_ClearInterruptEv>
	status = VL53L1X_StopRanging();
 23fa664:	4620      	mov	r0, r4
 23fa666:	f7ff ff53 	bl	23fa510 <_ZN7VL53L1X19VL53L1X_StopRangingEv>
	status = VL53L1_WrByte(Device, VL53L1_VHV_CONFIG__TIMEOUT_MACROP_LOOP_BOUND, 0x09); /* two bounds VHV */
 23fa66a:	2309      	movs	r3, #9
 23fa66c:	2208      	movs	r2, #8
 23fa66e:	69a1      	ldr	r1, [r4, #24]
 23fa670:	4620      	mov	r0, r4
 23fa672:	f7ff ff36 	bl	23fa4e2 <_ZN7VL53L1X13VL53L1_WrByteEP12VL53L1_Dev_tth>
	status = VL53L1_WrByte(Device, 0x0B, 0);											/* start VHV from the previous temperature */
 23fa676:	2300      	movs	r3, #0
 23fa678:	220b      	movs	r2, #11
 23fa67a:	4620      	mov	r0, r4
 23fa67c:	69a1      	ldr	r1, [r4, #24]
 23fa67e:	f7ff ff30 	bl	23fa4e2 <_ZN7VL53L1X13VL53L1_WrByteEP12VL53L1_Dev_tth>
}
 23fa682:	b002      	add	sp, #8
 23fa684:	bd70      	pop	{r4, r5, r6, pc}
			return VL53L1_ERROR_TIME_OUT;
 23fa686:	f06f 0006 	mvn.w	r0, #6
 23fa68a:	e7fa      	b.n	23fa682 <_ZN7VL53L1X18VL53L1X_SensorInitEv+0x6e>
 23fa68c:	023ff9e9 	.word	0x023ff9e9

023fa690 <_ZN7VL53L1X23VL53L1X_GetDistanceModeEPt>:
{
 23fa690:	b513      	push	{r0, r1, r4, lr}
	status = VL53L1_RdByte(Device, PHASECAL_CONFIG__TIMEOUT_MACROP, &TempDM);
 23fa692:	224b      	movs	r2, #75	; 0x4b
 23fa694:	f10d 0307 	add.w	r3, sp, #7
{
 23fa698:	460c      	mov	r4, r1
	status = VL53L1_RdByte(Device, PHASECAL_CONFIG__TIMEOUT_MACROP, &TempDM);
 23fa69a:	6981      	ldr	r1, [r0, #24]
 23fa69c:	f7ff ff81 	bl	23fa5a2 <_ZN7VL53L1X13VL53L1_RdByteEP12VL53L1_Dev_ttPh>
	if (TempDM == 0x14)
 23fa6a0:	f89d 3007 	ldrb.w	r3, [sp, #7]
 23fa6a4:	2b14      	cmp	r3, #20
 23fa6a6:	d103      	bne.n	23fa6b0 <_ZN7VL53L1X23VL53L1X_GetDistanceModeEPt+0x20>
		*DM = 1;
 23fa6a8:	2301      	movs	r3, #1
		*DM = 2;
 23fa6aa:	8023      	strh	r3, [r4, #0]
}
 23fa6ac:	b002      	add	sp, #8
 23fa6ae:	bd10      	pop	{r4, pc}
	if (TempDM == 0x0A)
 23fa6b0:	2b0a      	cmp	r3, #10
 23fa6b2:	d1fb      	bne.n	23fa6ac <_ZN7VL53L1X23VL53L1X_GetDistanceModeEPt+0x1c>
		*DM = 2;
 23fa6b4:	2302      	movs	r3, #2
 23fa6b6:	e7f8      	b.n	23fa6aa <_ZN7VL53L1X23VL53L1X_GetDistanceModeEPt+0x1a>

023fa6b8 <_ZN7VL53L1X27VL53L1X_SetTimingBudgetInMsEt>:
{
 23fa6b8:	b573      	push	{r0, r1, r4, r5, r6, lr}
 23fa6ba:	460d      	mov	r5, r1
	status = VL53L1X_GetDistanceMode(&DM);
 23fa6bc:	f10d 0106 	add.w	r1, sp, #6
{
 23fa6c0:	4604      	mov	r4, r0
	status = VL53L1X_GetDistanceMode(&DM);
 23fa6c2:	f7ff ffe5 	bl	23fa690 <_ZN7VL53L1X23VL53L1X_GetDistanceModeEPt>
	if (DM == 0)
 23fa6c6:	f8bd 3006 	ldrh.w	r3, [sp, #6]
	status = VL53L1X_GetDistanceMode(&DM);
 23fa6ca:	4606      	mov	r6, r0
	if (DM == 0)
 23fa6cc:	b153      	cbz	r3, 23fa6e4 <_ZN7VL53L1X27VL53L1X_SetTimingBudgetInMsEt+0x2c>
	else if (DM == 1)
 23fa6ce:	2b01      	cmp	r3, #1
 23fa6d0:	d152      	bne.n	23fa778 <_ZN7VL53L1X27VL53L1X_SetTimingBudgetInMsEt+0xc0>
		switch (TimingBudgetInMs)
 23fa6d2:	2d32      	cmp	r5, #50	; 0x32
 23fa6d4:	d032      	beq.n	23fa73c <_ZN7VL53L1X27VL53L1X_SetTimingBudgetInMsEt+0x84>
 23fa6d6:	d807      	bhi.n	23fa6e8 <_ZN7VL53L1X27VL53L1X_SetTimingBudgetInMsEt+0x30>
 23fa6d8:	2d14      	cmp	r5, #20
 23fa6da:	d025      	beq.n	23fa728 <_ZN7VL53L1X27VL53L1X_SetTimingBudgetInMsEt+0x70>
 23fa6dc:	2d21      	cmp	r5, #33	; 0x21
 23fa6de:	d02b      	beq.n	23fa738 <_ZN7VL53L1X27VL53L1X_SetTimingBudgetInMsEt+0x80>
 23fa6e0:	2d0f      	cmp	r5, #15
 23fa6e2:	d012      	beq.n	23fa70a <_ZN7VL53L1X27VL53L1X_SetTimingBudgetInMsEt+0x52>
		return 1;
 23fa6e4:	2601      	movs	r6, #1
 23fa6e6:	e01c      	b.n	23fa722 <_ZN7VL53L1X27VL53L1X_SetTimingBudgetInMsEt+0x6a>
		switch (TimingBudgetInMs)
 23fa6e8:	2dc8      	cmp	r5, #200	; 0xc8
 23fa6ea:	d031      	beq.n	23fa750 <_ZN7VL53L1X27VL53L1X_SetTimingBudgetInMsEt+0x98>
 23fa6ec:	f5b5 7ffa 	cmp.w	r5, #500	; 0x1f4
 23fa6f0:	d038      	beq.n	23fa764 <_ZN7VL53L1X27VL53L1X_SetTimingBudgetInMsEt+0xac>
 23fa6f2:	2d64      	cmp	r5, #100	; 0x64
 23fa6f4:	d1f6      	bne.n	23fa6e4 <_ZN7VL53L1X27VL53L1X_SetTimingBudgetInMsEt+0x2c>
			VL53L1_WrWord(Device, RANGE_CONFIG__TIMEOUT_MACROP_A_HI,
 23fa6f6:	f240 23e1 	movw	r3, #737	; 0x2e1
 23fa6fa:	225e      	movs	r2, #94	; 0x5e
 23fa6fc:	4620      	mov	r0, r4
 23fa6fe:	69a1      	ldr	r1, [r4, #24]
 23fa700:	f7ff ff0b 	bl	23fa51a <_ZN7VL53L1X13VL53L1_WrWordEP12VL53L1_Dev_ttt>
			VL53L1_WrWord(Device, RANGE_CONFIG__TIMEOUT_MACROP_B_HI,
 23fa704:	f44f 7362 	mov.w	r3, #904	; 0x388
 23fa708:	e006      	b.n	23fa718 <_ZN7VL53L1X27VL53L1X_SetTimingBudgetInMsEt+0x60>
			VL53L1_WrWord(Device, RANGE_CONFIG__TIMEOUT_MACROP_A_HI,
 23fa70a:	231d      	movs	r3, #29
 23fa70c:	225e      	movs	r2, #94	; 0x5e
 23fa70e:	4620      	mov	r0, r4
 23fa710:	69a1      	ldr	r1, [r4, #24]
 23fa712:	f7ff ff02 	bl	23fa51a <_ZN7VL53L1X13VL53L1_WrWordEP12VL53L1_Dev_ttt>
			VL53L1_WrWord(Device, RANGE_CONFIG__TIMEOUT_MACROP_B_HI,
 23fa716:	2327      	movs	r3, #39	; 0x27
			VL53L1_WrWord(Device, RANGE_CONFIG__TIMEOUT_MACROP_B_HI,
 23fa718:	2261      	movs	r2, #97	; 0x61
 23fa71a:	4620      	mov	r0, r4
 23fa71c:	69a1      	ldr	r1, [r4, #24]
 23fa71e:	f7ff fefc 	bl	23fa51a <_ZN7VL53L1X13VL53L1_WrWordEP12VL53L1_Dev_ttt>
}
 23fa722:	4630      	mov	r0, r6
 23fa724:	b002      	add	sp, #8
 23fa726:	bd70      	pop	{r4, r5, r6, pc}
			VL53L1_WrWord(Device, RANGE_CONFIG__TIMEOUT_MACROP_A_HI,
 23fa728:	2351      	movs	r3, #81	; 0x51
			VL53L1_WrWord(Device, RANGE_CONFIG__TIMEOUT_MACROP_A_HI,
 23fa72a:	225e      	movs	r2, #94	; 0x5e
 23fa72c:	4620      	mov	r0, r4
 23fa72e:	69a1      	ldr	r1, [r4, #24]
 23fa730:	f7ff fef3 	bl	23fa51a <_ZN7VL53L1X13VL53L1_WrWordEP12VL53L1_Dev_ttt>
			VL53L1_WrWord(Device, RANGE_CONFIG__TIMEOUT_MACROP_B_HI,
 23fa734:	236e      	movs	r3, #110	; 0x6e
 23fa736:	e7ef      	b.n	23fa718 <_ZN7VL53L1X27VL53L1X_SetTimingBudgetInMsEt+0x60>
			VL53L1_WrWord(Device, RANGE_CONFIG__TIMEOUT_MACROP_A_HI,
 23fa738:	23d6      	movs	r3, #214	; 0xd6
 23fa73a:	e7f6      	b.n	23fa72a <_ZN7VL53L1X27VL53L1X_SetTimingBudgetInMsEt+0x72>
			VL53L1_WrWord(Device, RANGE_CONFIG__TIMEOUT_MACROP_A_HI,
 23fa73c:	f44f 73d7 	mov.w	r3, #430	; 0x1ae
 23fa740:	225e      	movs	r2, #94	; 0x5e
 23fa742:	4620      	mov	r0, r4
 23fa744:	69a1      	ldr	r1, [r4, #24]
 23fa746:	f7ff fee8 	bl	23fa51a <_ZN7VL53L1X13VL53L1_WrWordEP12VL53L1_Dev_ttt>
			VL53L1_WrWord(Device, RANGE_CONFIG__TIMEOUT_MACROP_B_HI,
 23fa74a:	f44f 73f4 	mov.w	r3, #488	; 0x1e8
 23fa74e:	e7e3      	b.n	23fa718 <_ZN7VL53L1X27VL53L1X_SetTimingBudgetInMsEt+0x60>
			VL53L1_WrWord(Device, RANGE_CONFIG__TIMEOUT_MACROP_A_HI,
 23fa750:	f240 33e1 	movw	r3, #993	; 0x3e1
 23fa754:	225e      	movs	r2, #94	; 0x5e
 23fa756:	4620      	mov	r0, r4
 23fa758:	69a1      	ldr	r1, [r4, #24]
 23fa75a:	f7ff fede 	bl	23fa51a <_ZN7VL53L1X13VL53L1_WrWordEP12VL53L1_Dev_ttt>
			VL53L1_WrWord(Device, RANGE_CONFIG__TIMEOUT_MACROP_B_HI,
 23fa75e:	f240 4396 	movw	r3, #1174	; 0x496
 23fa762:	e7d9      	b.n	23fa718 <_ZN7VL53L1X27VL53L1X_SetTimingBudgetInMsEt+0x60>
			VL53L1_WrWord(Device, RANGE_CONFIG__TIMEOUT_MACROP_A_HI,
 23fa764:	f240 5391 	movw	r3, #1425	; 0x591
 23fa768:	225e      	movs	r2, #94	; 0x5e
 23fa76a:	4620      	mov	r0, r4
 23fa76c:	69a1      	ldr	r1, [r4, #24]
 23fa76e:	f7ff fed4 	bl	23fa51a <_ZN7VL53L1X13VL53L1_WrWordEP12VL53L1_Dev_ttt>
			VL53L1_WrWord(Device, RANGE_CONFIG__TIMEOUT_MACROP_B_HI,
 23fa772:	f240 53c1 	movw	r3, #1473	; 0x5c1
 23fa776:	e7cf      	b.n	23fa718 <_ZN7VL53L1X27VL53L1X_SetTimingBudgetInMsEt+0x60>
		switch (TimingBudgetInMs)
 23fa778:	2d64      	cmp	r5, #100	; 0x64
 23fa77a:	d027      	beq.n	23fa7cc <_ZN7VL53L1X27VL53L1X_SetTimingBudgetInMsEt+0x114>
 23fa77c:	d80d      	bhi.n	23fa79a <_ZN7VL53L1X27VL53L1X_SetTimingBudgetInMsEt+0xe2>
 23fa77e:	2d21      	cmp	r5, #33	; 0x21
 23fa780:	d01a      	beq.n	23fa7b8 <_ZN7VL53L1X27VL53L1X_SetTimingBudgetInMsEt+0x100>
 23fa782:	2d32      	cmp	r5, #50	; 0x32
 23fa784:	d01a      	beq.n	23fa7bc <_ZN7VL53L1X27VL53L1X_SetTimingBudgetInMsEt+0x104>
 23fa786:	2d14      	cmp	r5, #20
 23fa788:	d1ac      	bne.n	23fa6e4 <_ZN7VL53L1X27VL53L1X_SetTimingBudgetInMsEt+0x2c>
			VL53L1_WrWord(Device, RANGE_CONFIG__TIMEOUT_MACROP_A_HI,
 23fa78a:	231e      	movs	r3, #30
 23fa78c:	225e      	movs	r2, #94	; 0x5e
 23fa78e:	4620      	mov	r0, r4
 23fa790:	69a1      	ldr	r1, [r4, #24]
 23fa792:	f7ff fec2 	bl	23fa51a <_ZN7VL53L1X13VL53L1_WrWordEP12VL53L1_Dev_ttt>
			VL53L1_WrWord(Device, RANGE_CONFIG__TIMEOUT_MACROP_B_HI,
 23fa796:	2322      	movs	r3, #34	; 0x22
 23fa798:	e7be      	b.n	23fa718 <_ZN7VL53L1X27VL53L1X_SetTimingBudgetInMsEt+0x60>
		switch (TimingBudgetInMs)
 23fa79a:	2dc8      	cmp	r5, #200	; 0xc8
 23fa79c:	d020      	beq.n	23fa7e0 <_ZN7VL53L1X27VL53L1X_SetTimingBudgetInMsEt+0x128>
 23fa79e:	f5b5 7ffa 	cmp.w	r5, #500	; 0x1f4
 23fa7a2:	d19f      	bne.n	23fa6e4 <_ZN7VL53L1X27VL53L1X_SetTimingBudgetInMsEt+0x2c>
			VL53L1_WrWord(Device, RANGE_CONFIG__TIMEOUT_MACROP_A_HI,
 23fa7a4:	f240 438f 	movw	r3, #1167	; 0x48f
 23fa7a8:	225e      	movs	r2, #94	; 0x5e
 23fa7aa:	4620      	mov	r0, r4
 23fa7ac:	69a1      	ldr	r1, [r4, #24]
 23fa7ae:	f7ff feb4 	bl	23fa51a <_ZN7VL53L1X13VL53L1_WrWordEP12VL53L1_Dev_ttt>
			VL53L1_WrWord(Device, RANGE_CONFIG__TIMEOUT_MACROP_B_HI,
 23fa7b2:	f240 43a4 	movw	r3, #1188	; 0x4a4
 23fa7b6:	e7af      	b.n	23fa718 <_ZN7VL53L1X27VL53L1X_SetTimingBudgetInMsEt+0x60>
			VL53L1_WrWord(Device, RANGE_CONFIG__TIMEOUT_MACROP_A_HI,
 23fa7b8:	2360      	movs	r3, #96	; 0x60
 23fa7ba:	e7b6      	b.n	23fa72a <_ZN7VL53L1X27VL53L1X_SetTimingBudgetInMsEt+0x72>
			VL53L1_WrWord(Device, RANGE_CONFIG__TIMEOUT_MACROP_A_HI,
 23fa7bc:	23ad      	movs	r3, #173	; 0xad
 23fa7be:	225e      	movs	r2, #94	; 0x5e
 23fa7c0:	4620      	mov	r0, r4
 23fa7c2:	69a1      	ldr	r1, [r4, #24]
 23fa7c4:	f7ff fea9 	bl	23fa51a <_ZN7VL53L1X13VL53L1_WrWordEP12VL53L1_Dev_ttt>
			VL53L1_WrWord(Device, RANGE_CONFIG__TIMEOUT_MACROP_B_HI,
 23fa7c8:	23c6      	movs	r3, #198	; 0xc6
 23fa7ca:	e7a5      	b.n	23fa718 <_ZN7VL53L1X27VL53L1X_SetTimingBudgetInMsEt+0x60>
			VL53L1_WrWord(Device, RANGE_CONFIG__TIMEOUT_MACROP_A_HI,
 23fa7cc:	f44f 73e6 	mov.w	r3, #460	; 0x1cc
 23fa7d0:	225e      	movs	r2, #94	; 0x5e
 23fa7d2:	4620      	mov	r0, r4
 23fa7d4:	69a1      	ldr	r1, [r4, #24]
 23fa7d6:	f7ff fea0 	bl	23fa51a <_ZN7VL53L1X13VL53L1_WrWordEP12VL53L1_Dev_ttt>
			VL53L1_WrWord(Device, RANGE_CONFIG__TIMEOUT_MACROP_B_HI,
 23fa7da:	f44f 73f5 	mov.w	r3, #490	; 0x1ea
 23fa7de:	e79b      	b.n	23fa718 <_ZN7VL53L1X27VL53L1X_SetTimingBudgetInMsEt+0x60>
			VL53L1_WrWord(Device, RANGE_CONFIG__TIMEOUT_MACROP_A_HI,
 23fa7e0:	f240 23d9 	movw	r3, #729	; 0x2d9
 23fa7e4:	225e      	movs	r2, #94	; 0x5e
 23fa7e6:	4620      	mov	r0, r4
 23fa7e8:	69a1      	ldr	r1, [r4, #24]
 23fa7ea:	f7ff fe96 	bl	23fa51a <_ZN7VL53L1X13VL53L1_WrWordEP12VL53L1_Dev_ttt>
			VL53L1_WrWord(Device, RANGE_CONFIG__TIMEOUT_MACROP_B_HI,
 23fa7ee:	f44f 733e 	mov.w	r3, #760	; 0x2f8
 23fa7f2:	e791      	b.n	23fa718 <_ZN7VL53L1X27VL53L1X_SetTimingBudgetInMsEt+0x60>

023fa7f4 <_ZN7VL53L1X13VL53L1_RdWordEP12VL53L1_Dev_ttPt>:
{
 23fa7f4:	b51f      	push	{r0, r1, r2, r3, r4, lr}
 23fa7f6:	461c      	mov	r4, r3
	uint8_t buffer[2] = {0, 0};
 23fa7f8:	2300      	movs	r3, #0
 23fa7fa:	f8ad 300c 	strh.w	r3, [sp, #12]
	status = VL53L1_I2CRead(Dev->I2cDevAddr, index, buffer, 2);
 23fa7fe:	2302      	movs	r3, #2
 23fa800:	7809      	ldrb	r1, [r1, #0]
 23fa802:	9300      	str	r3, [sp, #0]
 23fa804:	ab03      	add	r3, sp, #12
 23fa806:	f7ff fe96 	bl	23fa536 <_ZN7VL53L1X14VL53L1_I2CReadEhtPht>
	if (!status)
 23fa80a:	b930      	cbnz	r0, 23fa81a <_ZN7VL53L1X13VL53L1_RdWordEP12VL53L1_Dev_ttPt+0x26>
		*data = (buffer[0] << 8) + buffer[1];
 23fa80c:	f89d 200c 	ldrb.w	r2, [sp, #12]
 23fa810:	f89d 300d 	ldrb.w	r3, [sp, #13]
 23fa814:	eb03 2302 	add.w	r3, r3, r2, lsl #8
 23fa818:	8023      	strh	r3, [r4, #0]
}
 23fa81a:	b004      	add	sp, #16
 23fa81c:	bd10      	pop	{r4, pc}

023fa81e <_ZN7VL53L1X27VL53L1X_GetTimingBudgetInMsEPt>:
{
 23fa81e:	b513      	push	{r0, r1, r4, lr}
	status = VL53L1_RdWord(Device, RANGE_CONFIG__TIMEOUT_MACROP_A_HI, &Temp);
 23fa820:	225e      	movs	r2, #94	; 0x5e
 23fa822:	f10d 0306 	add.w	r3, sp, #6
{
 23fa826:	460c      	mov	r4, r1
	status = VL53L1_RdWord(Device, RANGE_CONFIG__TIMEOUT_MACROP_A_HI, &Temp);
 23fa828:	6981      	ldr	r1, [r0, #24]
 23fa82a:	f7ff ffe3 	bl	23fa7f4 <_ZN7VL53L1X13VL53L1_RdWordEP12VL53L1_Dev_ttPt>
	switch (Temp)
 23fa82e:	f8bd 3006 	ldrh.w	r3, [sp, #6]
 23fa832:	f5b3 7fd7 	cmp.w	r3, #430	; 0x1ae
 23fa836:	d034      	beq.n	23fa8a2 <_ZN7VL53L1X27VL53L1X_GetTimingBudgetInMsEPt+0x84>
 23fa838:	d810      	bhi.n	23fa85c <_ZN7VL53L1X27VL53L1X_GetTimingBudgetInMsEPt+0x3e>
 23fa83a:	2b51      	cmp	r3, #81	; 0x51
 23fa83c:	d02f      	beq.n	23fa89e <_ZN7VL53L1X27VL53L1X_GetTimingBudgetInMsEPt+0x80>
 23fa83e:	d805      	bhi.n	23fa84c <_ZN7VL53L1X27VL53L1X_GetTimingBudgetInMsEPt+0x2e>
 23fa840:	2b1d      	cmp	r3, #29
 23fa842:	d028      	beq.n	23fa896 <_ZN7VL53L1X27VL53L1X_GetTimingBudgetInMsEPt+0x78>
 23fa844:	2b1e      	cmp	r3, #30
 23fa846:	d02a      	beq.n	23fa89e <_ZN7VL53L1X27VL53L1X_GetTimingBudgetInMsEPt+0x80>
		*pTimingBudget = 0;
 23fa848:	2300      	movs	r3, #0
 23fa84a:	e025      	b.n	23fa898 <_ZN7VL53L1X27VL53L1X_GetTimingBudgetInMsEPt+0x7a>
	switch (Temp)
 23fa84c:	2bad      	cmp	r3, #173	; 0xad
 23fa84e:	d028      	beq.n	23fa8a2 <_ZN7VL53L1X27VL53L1X_GetTimingBudgetInMsEPt+0x84>
 23fa850:	2bd6      	cmp	r3, #214	; 0xd6
 23fa852:	d001      	beq.n	23fa858 <_ZN7VL53L1X27VL53L1X_GetTimingBudgetInMsEPt+0x3a>
 23fa854:	2b60      	cmp	r3, #96	; 0x60
 23fa856:	d1f7      	bne.n	23fa848 <_ZN7VL53L1X27VL53L1X_GetTimingBudgetInMsEPt+0x2a>
		*pTimingBudget = 33;
 23fa858:	2321      	movs	r3, #33	; 0x21
 23fa85a:	e01d      	b.n	23fa898 <_ZN7VL53L1X27VL53L1X_GetTimingBudgetInMsEPt+0x7a>
	switch (Temp)
 23fa85c:	f240 32e1 	movw	r2, #993	; 0x3e1
 23fa860:	4293      	cmp	r3, r2
 23fa862:	d020      	beq.n	23fa8a6 <_ZN7VL53L1X27VL53L1X_GetTimingBudgetInMsEPt+0x88>
 23fa864:	d80c      	bhi.n	23fa880 <_ZN7VL53L1X27VL53L1X_GetTimingBudgetInMsEPt+0x62>
 23fa866:	f240 22d9 	movw	r2, #729	; 0x2d9
 23fa86a:	4293      	cmp	r3, r2
 23fa86c:	d01b      	beq.n	23fa8a6 <_ZN7VL53L1X27VL53L1X_GetTimingBudgetInMsEPt+0x88>
 23fa86e:	f240 22e1 	movw	r2, #737	; 0x2e1
 23fa872:	4293      	cmp	r3, r2
 23fa874:	d002      	beq.n	23fa87c <_ZN7VL53L1X27VL53L1X_GetTimingBudgetInMsEPt+0x5e>
 23fa876:	f5b3 7fe6 	cmp.w	r3, #460	; 0x1cc
 23fa87a:	d1e5      	bne.n	23fa848 <_ZN7VL53L1X27VL53L1X_GetTimingBudgetInMsEPt+0x2a>
		*pTimingBudget = 100;
 23fa87c:	2364      	movs	r3, #100	; 0x64
 23fa87e:	e00b      	b.n	23fa898 <_ZN7VL53L1X27VL53L1X_GetTimingBudgetInMsEPt+0x7a>
	switch (Temp)
 23fa880:	f240 428f 	movw	r2, #1167	; 0x48f
 23fa884:	4293      	cmp	r3, r2
 23fa886:	d003      	beq.n	23fa890 <_ZN7VL53L1X27VL53L1X_GetTimingBudgetInMsEPt+0x72>
 23fa888:	f240 5291 	movw	r2, #1425	; 0x591
 23fa88c:	4293      	cmp	r3, r2
 23fa88e:	d1db      	bne.n	23fa848 <_ZN7VL53L1X27VL53L1X_GetTimingBudgetInMsEPt+0x2a>
		*pTimingBudget = 500;
 23fa890:	f44f 73fa 	mov.w	r3, #500	; 0x1f4
 23fa894:	e000      	b.n	23fa898 <_ZN7VL53L1X27VL53L1X_GetTimingBudgetInMsEPt+0x7a>
		*pTimingBudget = 15;
 23fa896:	230f      	movs	r3, #15
		*pTimingBudget = 0;
 23fa898:	8023      	strh	r3, [r4, #0]
}
 23fa89a:	b002      	add	sp, #8
 23fa89c:	bd10      	pop	{r4, pc}
		*pTimingBudget = 20;
 23fa89e:	2314      	movs	r3, #20
 23fa8a0:	e7fa      	b.n	23fa898 <_ZN7VL53L1X27VL53L1X_GetTimingBudgetInMsEPt+0x7a>
		*pTimingBudget = 50;
 23fa8a2:	2332      	movs	r3, #50	; 0x32
 23fa8a4:	e7f8      	b.n	23fa898 <_ZN7VL53L1X27VL53L1X_GetTimingBudgetInMsEPt+0x7a>
		*pTimingBudget = 200;
 23fa8a6:	23c8      	movs	r3, #200	; 0xc8
 23fa8a8:	e7f6      	b.n	23fa898 <_ZN7VL53L1X27VL53L1X_GetTimingBudgetInMsEPt+0x7a>

023fa8aa <_ZN7VL53L1X23VL53L1X_SetDistanceModeEt>:
{
 23fa8aa:	b537      	push	{r0, r1, r2, r4, r5, lr}
 23fa8ac:	460d      	mov	r5, r1
	status = VL53L1X_GetTimingBudgetInMs(&TB);
 23fa8ae:	f10d 0106 	add.w	r1, sp, #6
{
 23fa8b2:	4604      	mov	r4, r0
	status = VL53L1X_GetTimingBudgetInMs(&TB);
 23fa8b4:	f7ff ffb3 	bl	23fa81e <_ZN7VL53L1X27VL53L1X_GetTimingBudgetInMsEPt>
	switch (DM)
 23fa8b8:	2d01      	cmp	r5, #1
 23fa8ba:	d008      	beq.n	23fa8ce <_ZN7VL53L1X23VL53L1X_SetDistanceModeEt+0x24>
 23fa8bc:	2d02      	cmp	r5, #2
 23fa8be:	d02d      	beq.n	23fa91c <_ZN7VL53L1X23VL53L1X_SetDistanceModeEt+0x72>
	status = VL53L1X_SetTimingBudgetInMs(TB);
 23fa8c0:	4620      	mov	r0, r4
 23fa8c2:	f8bd 1006 	ldrh.w	r1, [sp, #6]
 23fa8c6:	f7ff fef7 	bl	23fa6b8 <_ZN7VL53L1X27VL53L1X_SetTimingBudgetInMsEt>
}
 23fa8ca:	b003      	add	sp, #12
 23fa8cc:	bd30      	pop	{r4, r5, pc}
		status = VL53L1_WrByte(Device, PHASECAL_CONFIG__TIMEOUT_MACROP, 0x14);
 23fa8ce:	2314      	movs	r3, #20
 23fa8d0:	224b      	movs	r2, #75	; 0x4b
 23fa8d2:	69a1      	ldr	r1, [r4, #24]
 23fa8d4:	4620      	mov	r0, r4
 23fa8d6:	f7ff fe04 	bl	23fa4e2 <_ZN7VL53L1X13VL53L1_WrByteEP12VL53L1_Dev_tth>
		status = VL53L1_WrByte(Device, RANGE_CONFIG__VCSEL_PERIOD_A, 0x07);
 23fa8da:	2307      	movs	r3, #7
 23fa8dc:	2260      	movs	r2, #96	; 0x60
 23fa8de:	69a1      	ldr	r1, [r4, #24]
 23fa8e0:	4620      	mov	r0, r4
 23fa8e2:	f7ff fdfe 	bl	23fa4e2 <_ZN7VL53L1X13VL53L1_WrByteEP12VL53L1_Dev_tth>
		status = VL53L1_WrByte(Device, RANGE_CONFIG__VCSEL_PERIOD_B, 0x05);
 23fa8e6:	2305      	movs	r3, #5
 23fa8e8:	2263      	movs	r2, #99	; 0x63
 23fa8ea:	69a1      	ldr	r1, [r4, #24]
 23fa8ec:	4620      	mov	r0, r4
 23fa8ee:	f7ff fdf8 	bl	23fa4e2 <_ZN7VL53L1X13VL53L1_WrByteEP12VL53L1_Dev_tth>
		status = VL53L1_WrByte(Device, RANGE_CONFIG__VALID_PHASE_HIGH, 0x38);
 23fa8f2:	2338      	movs	r3, #56	; 0x38
 23fa8f4:	2269      	movs	r2, #105	; 0x69
 23fa8f6:	69a1      	ldr	r1, [r4, #24]
 23fa8f8:	4620      	mov	r0, r4
 23fa8fa:	f7ff fdf2 	bl	23fa4e2 <_ZN7VL53L1X13VL53L1_WrByteEP12VL53L1_Dev_tth>
		status = VL53L1_WrWord(Device, SD_CONFIG__WOI_SD0, 0x0705);
 23fa8fe:	f240 7305 	movw	r3, #1797	; 0x705
 23fa902:	2278      	movs	r2, #120	; 0x78
 23fa904:	4620      	mov	r0, r4
 23fa906:	69a1      	ldr	r1, [r4, #24]
 23fa908:	f7ff fe07 	bl	23fa51a <_ZN7VL53L1X13VL53L1_WrWordEP12VL53L1_Dev_ttt>
		status = VL53L1_WrWord(Device, SD_CONFIG__INITIAL_PHASE_SD0, 0x0606);
 23fa90c:	f240 6306 	movw	r3, #1542	; 0x606
		status = VL53L1_WrWord(Device, SD_CONFIG__INITIAL_PHASE_SD0, 0x0E0E);
 23fa910:	227a      	movs	r2, #122	; 0x7a
 23fa912:	4620      	mov	r0, r4
 23fa914:	69a1      	ldr	r1, [r4, #24]
 23fa916:	f7ff fe00 	bl	23fa51a <_ZN7VL53L1X13VL53L1_WrWordEP12VL53L1_Dev_ttt>
		break;
 23fa91a:	e7d1      	b.n	23fa8c0 <_ZN7VL53L1X23VL53L1X_SetDistanceModeEt+0x16>
		status = VL53L1_WrByte(Device, PHASECAL_CONFIG__TIMEOUT_MACROP, 0x0A);
 23fa91c:	230a      	movs	r3, #10
 23fa91e:	224b      	movs	r2, #75	; 0x4b
 23fa920:	69a1      	ldr	r1, [r4, #24]
 23fa922:	4620      	mov	r0, r4
 23fa924:	f7ff fddd 	bl	23fa4e2 <_ZN7VL53L1X13VL53L1_WrByteEP12VL53L1_Dev_tth>
		status = VL53L1_WrByte(Device, RANGE_CONFIG__VCSEL_PERIOD_A, 0x0F);
 23fa928:	230f      	movs	r3, #15
 23fa92a:	2260      	movs	r2, #96	; 0x60
 23fa92c:	69a1      	ldr	r1, [r4, #24]
 23fa92e:	4620      	mov	r0, r4
 23fa930:	f7ff fdd7 	bl	23fa4e2 <_ZN7VL53L1X13VL53L1_WrByteEP12VL53L1_Dev_tth>
		status = VL53L1_WrByte(Device, RANGE_CONFIG__VCSEL_PERIOD_B, 0x0D);
 23fa934:	230d      	movs	r3, #13
 23fa936:	2263      	movs	r2, #99	; 0x63
 23fa938:	69a1      	ldr	r1, [r4, #24]
 23fa93a:	4620      	mov	r0, r4
 23fa93c:	f7ff fdd1 	bl	23fa4e2 <_ZN7VL53L1X13VL53L1_WrByteEP12VL53L1_Dev_tth>
		status = VL53L1_WrByte(Device, RANGE_CONFIG__VALID_PHASE_HIGH, 0xB8);
 23fa940:	23b8      	movs	r3, #184	; 0xb8
 23fa942:	2269      	movs	r2, #105	; 0x69
 23fa944:	69a1      	ldr	r1, [r4, #24]
 23fa946:	4620      	mov	r0, r4
 23fa948:	f7ff fdcb 	bl	23fa4e2 <_ZN7VL53L1X13VL53L1_WrByteEP12VL53L1_Dev_tth>
		status = VL53L1_WrWord(Device, SD_CONFIG__WOI_SD0, 0x0F0D);
 23fa94c:	f640 730d 	movw	r3, #3853	; 0xf0d
 23fa950:	2278      	movs	r2, #120	; 0x78
 23fa952:	4620      	mov	r0, r4
 23fa954:	69a1      	ldr	r1, [r4, #24]
 23fa956:	f7ff fde0 	bl	23fa51a <_ZN7VL53L1X13VL53L1_WrWordEP12VL53L1_Dev_ttt>
		status = VL53L1_WrWord(Device, SD_CONFIG__INITIAL_PHASE_SD0, 0x0E0E);
 23fa95a:	f640 630e 	movw	r3, #3598	; 0xe0e
 23fa95e:	e7d7      	b.n	23fa910 <_ZN7VL53L1X23VL53L1X_SetDistanceModeEt+0x66>

023fa960 <_ZN7VL53L1X19VL53L1X_GetSensorIdEPt>:
	uint16_t tmp = 0;
 23fa960:	2300      	movs	r3, #0
{
 23fa962:	b513      	push	{r0, r1, r4, lr}
	status = VL53L1_RdWord(Device, VL53L1_IDENTIFICATION__MODEL_ID, &tmp);
 23fa964:	f240 120f 	movw	r2, #271	; 0x10f
{
 23fa968:	460c      	mov	r4, r1
	uint16_t tmp = 0;
 23fa96a:	f8ad 3006 	strh.w	r3, [sp, #6]
	status = VL53L1_RdWord(Device, VL53L1_IDENTIFICATION__MODEL_ID, &tmp);
 23fa96e:	6981      	ldr	r1, [r0, #24]
 23fa970:	f10d 0306 	add.w	r3, sp, #6
 23fa974:	f7ff ff3e 	bl	23fa7f4 <_ZN7VL53L1X13VL53L1_RdWordEP12VL53L1_Dev_ttPt>
	*sensorId = tmp;
 23fa978:	f8bd 3006 	ldrh.w	r3, [sp, #6]
 23fa97c:	8023      	strh	r3, [r4, #0]
}
 23fa97e:	b002      	add	sp, #8
 23fa980:	bd10      	pop	{r4, pc}

023fa982 <_ZN7VL53L1X19VL53L1X_GetDistanceEPt>:
{
 23fa982:	b513      	push	{r0, r1, r4, lr}
	status = (VL53L1_RdWord(Device,
 23fa984:	2296      	movs	r2, #150	; 0x96
{
 23fa986:	460c      	mov	r4, r1
	status = (VL53L1_RdWord(Device,
 23fa988:	f10d 0306 	add.w	r3, sp, #6
 23fa98c:	6981      	ldr	r1, [r0, #24]
 23fa98e:	f7ff ff31 	bl	23fa7f4 <_ZN7VL53L1X13VL53L1_RdWordEP12VL53L1_Dev_ttPt>
	*distance = tmp;
 23fa992:	f8bd 3006 	ldrh.w	r3, [sp, #6]
 23fa996:	8023      	strh	r3, [r4, #0]
}
 23fa998:	b002      	add	sp, #8
 23fa99a:	bd10      	pop	{r4, pc}

023fa99c <_ZN7VL53L1XD1Ev>:
       }
    }
    
   /** Destructor
    */
    virtual ~VL53L1X(){}
 23fa99c:	4770      	bx	lr

023fa99e <_ZN7VL53L1X10VL53L1_OffEv>:
	/**
	 * @brief       PowerOff the sensor
	 * @return      void
	 */
    /* turns off the sensor */
    virtual void VL53L1_Off(void)
 23fa99e:	b508      	push	{r3, lr}
    {
       if(gpio0 >= 0)
 23fa9a0:	6880      	ldr	r0, [r0, #8]
 23fa9a2:	2800      	cmp	r0, #0
 23fa9a4:	db03      	blt.n	23fa9ae <_ZN7VL53L1X10VL53L1_OffEv+0x10>
       {
         digitalWrite(gpio0, LOW);
 23fa9a6:	2100      	movs	r1, #0
 23fa9a8:	b280      	uxth	r0, r0
 23fa9aa:	f003 fc5a 	bl	23fe262 <digitalWrite>
       }
       delay(10);
    }
 23fa9ae:	e8bd 4008 	ldmia.w	sp!, {r3, lr}
       delay(10);
 23fa9b2:	200a      	movs	r0, #10
 23fa9b4:	f002 bbd4 	b.w	23fd160 <delay>

023fa9b8 <_ZN7VL53L1X9VL53L1_OnEv>:
    virtual void VL53L1_On(void)
 23fa9b8:	b508      	push	{r3, lr}
       if(gpio0 >= 0)
 23fa9ba:	6880      	ldr	r0, [r0, #8]
 23fa9bc:	2800      	cmp	r0, #0
 23fa9be:	db03      	blt.n	23fa9c8 <_ZN7VL53L1X9VL53L1_OnEv+0x10>
         digitalWrite(gpio0, HIGH);
 23fa9c0:	2101      	movs	r1, #1
 23fa9c2:	b280      	uxth	r0, r0
 23fa9c4:	f003 fc4d 	bl	23fe262 <digitalWrite>
    }
 23fa9c8:	e8bd 4008 	ldmia.w	sp!, {r3, lr}
       delay(10);
 23fa9cc:	200a      	movs	r0, #10
 23fa9ce:	f002 bbc7 	b.w	23fd160 <delay>

023fa9d2 <_ZN7VL53L1XD0Ev>:
    virtual ~VL53L1X(){}
 23fa9d2:	b510      	push	{r4, lr}
 23fa9d4:	4604      	mov	r4, r0
 23fa9d6:	211c      	movs	r1, #28
 23fa9d8:	f7fe f86f 	bl	23f8aba <_ZdlPvj>
 23fa9dc:	4620      	mov	r0, r4
 23fa9de:	bd10      	pop	{r4, pc}

023fa9e0 <_ZN7VL53L1X11GetDistanceEPm>:
/**
 * @brief Get ranging result and only that
 * @param pRange_mm  Pointer to range distance
 * @return           0 on success
 */
	int GetDistance(uint32_t *piData)
 23fa9e0:	b513      	push	{r0, r1, r4, lr}
 23fa9e2:	460c      	mov	r4, r1
    {
	int status;
	uint16_t distance;
	status = VL53L1X_GetDistance(&distance);
 23fa9e4:	f10d 0106 	add.w	r1, sp, #6
 23fa9e8:	f7ff ffcb 	bl	23fa982 <_ZN7VL53L1X19VL53L1X_GetDistanceEPt>
	*piData = (uint32_t) distance;
 23fa9ec:	f8bd 3006 	ldrh.w	r3, [sp, #6]
 23fa9f0:	6023      	str	r3, [r4, #0]
	return status;
    }
 23fa9f2:	b002      	add	sp, #8
 23fa9f4:	bd10      	pop	{r4, pc}

023fa9f6 <_ZN7VL53L1X6ReadIDEv>:
    virtual int ReadID(){
 23fa9f6:	b507      	push	{r0, r1, r2, lr}
		VL53L1X_GetSensorId(&sensorId);
 23fa9f8:	f10d 0106 	add.w	r1, sp, #6
 23fa9fc:	f7ff ffb0 	bl	23fa960 <_ZN7VL53L1X19VL53L1X_GetSensorIdEPt>
	}
 23faa00:	f64e 63ac 	movw	r3, #61100	; 0xeeac
		if (sensorId == 0xEEAC)
 23faa04:	f8bd 0006 	ldrh.w	r0, [sp, #6]
	}
 23faa08:	1ac0      	subs	r0, r0, r3
 23faa0a:	bf18      	it	ne
 23faa0c:	f04f 30ff 	movne.w	r0, #4294967295
 23faa10:	b003      	add	sp, #12
 23faa12:	f85d fb04 	ldr.w	pc, [sp], #4

023faa16 <_ZN7VL53L1X4InitEv>:
    virtual int Init()
 23faa16:	b508      	push	{r3, lr}
       return VL53L1X_SensorInit();
 23faa18:	f7ff fdfc 	bl	23fa614 <_ZN7VL53L1X18VL53L1X_SensorInitEv>
    }
 23faa1c:	bd08      	pop	{r3, pc}
	...

023faa20 <_ZN10SFEVL53L1XC1ER7TwoWireii>:
#include <stdlib.h>
#include "Arduino.h"
#include "SparkFun_VL53L1X.h"
#include "vl53l1x_class.h"

SFEVL53L1X::SFEVL53L1X(TwoWire &i2cPort, int shutdownPin, int interruptPin)
 23faa20:	e92d 43f8 	stmdb	sp!, {r3, r4, r5, r6, r7, r8, r9, lr}
 23faa24:	f04f 0952 	mov.w	r9, #82	; 0x52
{
	_i2cPort = &i2cPort;
	_shutdownPin = shutdownPin;
 23faa28:	e9c0 1200 	strd	r1, r2, [r0]
SFEVL53L1X::SFEVL53L1X(TwoWire &i2cPort, int shutdownPin, int interruptPin)
 23faa2c:	f8c0 900c 	str.w	r9, [r0, #12]
	_interruptPin = interruptPin;
 23faa30:	6083      	str	r3, [r0, #8]
SFEVL53L1X::SFEVL53L1X(TwoWire &i2cPort, int shutdownPin, int interruptPin)
 23faa32:	4605      	mov	r5, r0
	_device = new VL53L1X(&i2cPort, shutdownPin, interruptPin);
 23faa34:	201c      	movs	r0, #28
SFEVL53L1X::SFEVL53L1X(TwoWire &i2cPort, int shutdownPin, int interruptPin)
 23faa36:	460f      	mov	r7, r1
 23faa38:	4616      	mov	r6, r2
 23faa3a:	4698      	mov	r8, r3
	_device = new VL53L1X(&i2cPort, shutdownPin, interruptPin);
 23faa3c:	f7fe f837 	bl	23f8aae <_Znwj>
 23faa40:	4604      	mov	r4, r0
 23faa42:	b180      	cbz	r0, 23faa66 <_ZN10SFEVL53L1XC1ER7TwoWireii+0x46>
    VL53L1X(TwoWire *i2c, int pin, int pin_gpio1) : RangeSensor(), dev_i2c(i2c), gpio0(pin), gpio1Int(pin_gpio1)
 23faa44:	4b0a      	ldr	r3, [pc, #40]	; (23faa70 <_ZN10SFEVL53L1XC1ER7TwoWireii+0x50>)
       if(gpio0 >= 0)
 23faa46:	2e00      	cmp	r6, #0
    VL53L1X(TwoWire *i2c, int pin, int pin_gpio1) : RangeSensor(), dev_i2c(i2c), gpio0(pin), gpio1Int(pin_gpio1)
 23faa48:	e9c0 3700 	strd	r3, r7, [r0]
       Device = &MyDevice;
 23faa4c:	f100 0310 	add.w	r3, r0, #16
    VL53L1X(TwoWire *i2c, int pin, int pin_gpio1) : RangeSensor(), dev_i2c(i2c), gpio0(pin), gpio1Int(pin_gpio1)
 23faa50:	e9c0 6802 	strd	r6, r8, [r0, #8]
       MyDevice.I2cDevAddr=VL53L1X_DEFAULT_DEVICE_ADDRESS;
 23faa54:	f880 9010 	strb.w	r9, [r0, #16]
       MyDevice.I2cHandle = i2c;
 23faa58:	6147      	str	r7, [r0, #20]
       Device = &MyDevice;
 23faa5a:	6183      	str	r3, [r0, #24]
       if(gpio0 >= 0)
 23faa5c:	db03      	blt.n	23faa66 <_ZN10SFEVL53L1XC1ER7TwoWireii+0x46>
         pinMode(gpio0, OUTPUT);
 23faa5e:	2101      	movs	r1, #1
 23faa60:	b2b0      	uxth	r0, r6
 23faa62:	f003 fbed 	bl	23fe240 <pinMode>
}
 23faa66:	4628      	mov	r0, r5
	_device = new VL53L1X(&i2cPort, shutdownPin, interruptPin);
 23faa68:	612c      	str	r4, [r5, #16]
}
 23faa6a:	e8bd 83f8 	ldmia.w	sp!, {r3, r4, r5, r6, r7, r8, r9, pc}
 23faa6e:	bf00      	nop
 23faa70:	023ffa4c 	.word	0x023ffa4c

023faa74 <_ZN10SFEVL53L1X7checkIDEv>:
}

/*Checks the ID of the device, returns true if ID is correct*/

bool SFEVL53L1X::checkID()
{
 23faa74:	b507      	push	{r0, r1, r2, lr}
	uint16_t sensorId;
	_device->VL53L1X_GetSensorId(&sensorId);
 23faa76:	f10d 0106 	add.w	r1, sp, #6
 23faa7a:	6900      	ldr	r0, [r0, #16]
 23faa7c:	f7ff ff70 	bl	23fa960 <_ZN7VL53L1X19VL53L1X_GetSensorIdEPt>
	if (sensorId == 0xEACC)
		return true;
	return false;
}
 23faa80:	f64e 23cc 	movw	r3, #60108	; 0xeacc
	if (sensorId == 0xEACC)
 23faa84:	f8bd 0006 	ldrh.w	r0, [sp, #6]
}
 23faa88:	1ac3      	subs	r3, r0, r3
 23faa8a:	4258      	negs	r0, r3
 23faa8c:	4158      	adcs	r0, r3
 23faa8e:	b003      	add	sp, #12
 23faa90:	f85d fb04 	ldr.w	pc, [sp], #4

023faa94 <_ZN10SFEVL53L1X5beginEv>:
{
 23faa94:	b510      	push	{r4, lr}
 23faa96:	4604      	mov	r4, r0
	if (checkID() == false)
 23faa98:	f7ff ffec 	bl	23faa74 <_ZN10SFEVL53L1X7checkIDEv>
 23faa9c:	b130      	cbz	r0, 23faaac <_ZN10SFEVL53L1X5beginEv+0x18>
	return _device->VL53L1X_SensorInit();
 23faa9e:	6920      	ldr	r0, [r4, #16]
 23faaa0:	f7ff fdb8 	bl	23fa614 <_ZN7VL53L1X18VL53L1X_SensorInitEv>
 23faaa4:	3800      	subs	r0, #0
 23faaa6:	bf18      	it	ne
 23faaa8:	2001      	movne	r0, #1
}
 23faaaa:	bd10      	pop	{r4, pc}
		return (VL53L1_ERROR_PLATFORM_SPECIFIC_START);
 23faaac:	2001      	movs	r0, #1
 23faaae:	e7fc      	b.n	23faaaa <_ZN10SFEVL53L1X5beginEv+0x16>

023faab0 <_ZN10SFEVL53L1X14clearInterruptEv>:
	return _i2cAddress;
}

void SFEVL53L1X::clearInterrupt()
{
	_device->VL53L1X_ClearInterrupt();
 23faab0:	6900      	ldr	r0, [r0, #16]
 23faab2:	f7ff bd23 	b.w	23fa4fc <_ZN7VL53L1X22VL53L1X_ClearInterruptEv>

023faab6 <_ZN10SFEVL53L1X12startRangingEv>:
	return tmp;
}

void SFEVL53L1X::startRanging()
{
	_device->VL53L1X_StartRanging();
 23faab6:	6900      	ldr	r0, [r0, #16]
 23faab8:	f7ff bd25 	b.w	23fa506 <_ZN7VL53L1X20VL53L1X_StartRangingEv>

023faabc <_ZN10SFEVL53L1X11stopRangingEv>:
}

void SFEVL53L1X::stopRanging()
{
	_device->VL53L1X_StopRanging();
 23faabc:	6900      	ldr	r0, [r0, #16]
 23faabe:	f7ff bd27 	b.w	23fa510 <_ZN7VL53L1X19VL53L1X_StopRangingEv>

023faac2 <_ZN10SFEVL53L1X17checkForDataReadyEv>:
}

bool SFEVL53L1X::checkForDataReady()
{
 23faac2:	b507      	push	{r0, r1, r2, lr}
	uint8_t dataReady;
	_device->VL53L1X_CheckForDataReady(&dataReady);
 23faac4:	f10d 0107 	add.w	r1, sp, #7
 23faac8:	6900      	ldr	r0, [r0, #16]
 23faaca:	f7ff fd87 	bl	23fa5dc <_ZN7VL53L1X25VL53L1X_CheckForDataReadyEPh>
	return (bool)dataReady;
 23faace:	f89d 0007 	ldrb.w	r0, [sp, #7]
}
 23faad2:	3800      	subs	r0, #0
 23faad4:	bf18      	it	ne
 23faad6:	2001      	movne	r0, #1
 23faad8:	b003      	add	sp, #12
 23faada:	f85d fb04 	ldr.w	pc, [sp], #4

023faade <_ZN10SFEVL53L1X19setDistanceModeLongEv>:
	return timingBudget;
}

void SFEVL53L1X::setDistanceModeLong()
{
	_device->VL53L1X_SetDistanceMode(2);
 23faade:	2102      	movs	r1, #2
 23faae0:	6900      	ldr	r0, [r0, #16]
 23faae2:	f7ff bee2 	b.w	23fa8aa <_ZN7VL53L1X23VL53L1X_SetDistanceModeEt>

023faae6 <_ZN10SFEVL53L1X11getDistanceEv>:
	_device->VL53L1X_GetSensorId(&id);
	return id;
}

uint16_t SFEVL53L1X::getDistance()
{
 23faae6:	b507      	push	{r0, r1, r2, lr}
	uint16_t distance;
	_device->VL53L1X_GetDistance(&distance);
 23faae8:	f10d 0106 	add.w	r1, sp, #6
 23faaec:	6900      	ldr	r0, [r0, #16]
 23faaee:	f7ff ff48 	bl	23fa982 <_ZN7VL53L1X19VL53L1X_GetDistanceEPt>
	return (int)distance;
}
 23faaf2:	f8bd 0006 	ldrh.w	r0, [sp, #6]
 23faaf6:	b003      	add	sp, #12
 23faaf8:	f85d fb04 	ldr.w	pc, [sp], #4

023faafc <netdb_freeaddrinfo>:

DYNALIB_BEGIN(hal_netdb)

DYNALIB_FN(0, hal_netdb, netdb_gethostbyname, struct hostent*(const char*))
DYNALIB_FN(1, hal_netdb, netdb_gethostbyname_r, int(const char*, struct hostent*, char*, size_t, struct hostent**, int*))
DYNALIB_FN(2, hal_netdb, netdb_freeaddrinfo, void(struct addrinfo*))
 23faafc:	b509      	push	{r0, r3, lr}
 23faafe:	4804      	ldr	r0, [pc, #16]	; (23fab10 <netdb_freeaddrinfo+0x14>)
 23fab00:	6800      	ldr	r0, [r0, #0]
 23fab02:	4b04      	ldr	r3, [pc, #16]	; (23fab14 <netdb_freeaddrinfo+0x18>)
 23fab04:	4403      	add	r3, r0
 23fab06:	681b      	ldr	r3, [r3, #0]
 23fab08:	689b      	ldr	r3, [r3, #8]
 23fab0a:	9302      	str	r3, [sp, #8]
 23fab0c:	bd09      	pop	{r0, r3, pc}
 23fab0e:	0000      	.short	0x0000
 23fab10:	1007ad3c 	.word	0x1007ad3c
 23fab14:	00000050 	.word	0x00000050

023fab18 <netdb_getaddrinfo>:
DYNALIB_FN(3, hal_netdb, netdb_getaddrinfo, int(const char*, const char*, const struct addrinfo*, struct addrinfo**))
 23fab18:	b509      	push	{r0, r3, lr}
 23fab1a:	4804      	ldr	r0, [pc, #16]	; (23fab2c <netdb_getaddrinfo+0x14>)
 23fab1c:	6800      	ldr	r0, [r0, #0]
 23fab1e:	4b04      	ldr	r3, [pc, #16]	; (23fab30 <netdb_getaddrinfo+0x18>)
 23fab20:	4403      	add	r3, r0
 23fab22:	681b      	ldr	r3, [r3, #0]
 23fab24:	68db      	ldr	r3, [r3, #12]
 23fab26:	9302      	str	r3, [sp, #8]
 23fab28:	bd09      	pop	{r0, r3, pc}
 23fab2a:	0000      	.short	0x0000
 23fab2c:	1007ad3c 	.word	0x1007ad3c
 23fab30:	00000050 	.word	0x00000050

023fab34 <hal_pin_map>:
// New HAL functions must be added to the end of this list.
// GNINRAW

DYNALIB_BEGIN(hal_gpio)

DYNALIB_FN(0, hal_gpio, hal_pin_map, hal_pin_info_t*(void))
 23fab34:	b509      	push	{r0, r3, lr}
 23fab36:	4804      	ldr	r0, [pc, #16]	; (23fab48 <hal_pin_map+0x14>)
 23fab38:	6800      	ldr	r0, [r0, #0]
 23fab3a:	4b04      	ldr	r3, [pc, #16]	; (23fab4c <hal_pin_map+0x18>)
 23fab3c:	4403      	add	r3, r0
 23fab3e:	681b      	ldr	r3, [r3, #0]
 23fab40:	681b      	ldr	r3, [r3, #0]
 23fab42:	9302      	str	r3, [sp, #8]
 23fab44:	bd09      	pop	{r0, r3, pc}
 23fab46:	0000      	.short	0x0000
 23fab48:	1007ad3c 	.word	0x1007ad3c
 23fab4c:	00000014 	.word	0x00000014

023fab50 <hal_gpio_mode>:
DYNALIB_FN(1, hal_gpio, hal_pin_validate_function, PinFunction(hal_pin_t, PinFunction))
DYNALIB_FN(2, hal_gpio, hal_gpio_mode, void(hal_pin_t, PinMode))
 23fab50:	b509      	push	{r0, r3, lr}
 23fab52:	4804      	ldr	r0, [pc, #16]	; (23fab64 <hal_gpio_mode+0x14>)
 23fab54:	6800      	ldr	r0, [r0, #0]
 23fab56:	4b04      	ldr	r3, [pc, #16]	; (23fab68 <hal_gpio_mode+0x18>)
 23fab58:	4403      	add	r3, r0
 23fab5a:	681b      	ldr	r3, [r3, #0]
 23fab5c:	689b      	ldr	r3, [r3, #8]
 23fab5e:	9302      	str	r3, [sp, #8]
 23fab60:	bd09      	pop	{r0, r3, pc}
 23fab62:	0000      	.short	0x0000
 23fab64:	1007ad3c 	.word	0x1007ad3c
 23fab68:	00000014 	.word	0x00000014

023fab6c <hal_gpio_get_mode>:
DYNALIB_FN(3, hal_gpio, hal_gpio_get_mode, PinMode(hal_pin_t))
 23fab6c:	b509      	push	{r0, r3, lr}
 23fab6e:	4804      	ldr	r0, [pc, #16]	; (23fab80 <hal_gpio_get_mode+0x14>)
 23fab70:	6800      	ldr	r0, [r0, #0]
 23fab72:	4b04      	ldr	r3, [pc, #16]	; (23fab84 <hal_gpio_get_mode+0x18>)
 23fab74:	4403      	add	r3, r0
 23fab76:	681b      	ldr	r3, [r3, #0]
 23fab78:	68db      	ldr	r3, [r3, #12]
 23fab7a:	9302      	str	r3, [sp, #8]
 23fab7c:	bd09      	pop	{r0, r3, pc}
 23fab7e:	0000      	.short	0x0000
 23fab80:	1007ad3c 	.word	0x1007ad3c
 23fab84:	00000014 	.word	0x00000014

023fab88 <hal_gpio_write>:
DYNALIB_FN(4, hal_gpio, hal_gpio_write, void(hal_pin_t, uint8_t))
 23fab88:	b509      	push	{r0, r3, lr}
 23fab8a:	4804      	ldr	r0, [pc, #16]	; (23fab9c <hal_gpio_write+0x14>)
 23fab8c:	6800      	ldr	r0, [r0, #0]
 23fab8e:	4b04      	ldr	r3, [pc, #16]	; (23faba0 <hal_gpio_write+0x18>)
 23fab90:	4403      	add	r3, r0
 23fab92:	681b      	ldr	r3, [r3, #0]
 23fab94:	691b      	ldr	r3, [r3, #16]
 23fab96:	9302      	str	r3, [sp, #8]
 23fab98:	bd09      	pop	{r0, r3, pc}
 23fab9a:	0000      	.short	0x0000
 23fab9c:	1007ad3c 	.word	0x1007ad3c
 23faba0:	00000014 	.word	0x00000014

023faba4 <hal_interrupt_attach>:
DYNALIB_FN(5, hal_gpio, hal_gpio_read, int32_t(hal_pin_t))
DYNALIB_FN(6, hal_gpio, hal_interrupt_attach, int(uint16_t, hal_interrupt_handler_t, void*, InterruptMode, hal_interrupt_extra_configuration_t*))
 23faba4:	b509      	push	{r0, r3, lr}
 23faba6:	4804      	ldr	r0, [pc, #16]	; (23fabb8 <hal_interrupt_attach+0x14>)
 23faba8:	6800      	ldr	r0, [r0, #0]
 23fabaa:	4b04      	ldr	r3, [pc, #16]	; (23fabbc <hal_interrupt_attach+0x18>)
 23fabac:	4403      	add	r3, r0
 23fabae:	681b      	ldr	r3, [r3, #0]
 23fabb0:	699b      	ldr	r3, [r3, #24]
 23fabb2:	9302      	str	r3, [sp, #8]
 23fabb4:	bd09      	pop	{r0, r3, pc}
 23fabb6:	0000      	.short	0x0000
 23fabb8:	1007ad3c 	.word	0x1007ad3c
 23fabbc:	00000014 	.word	0x00000014

023fabc0 <hal_interrupt_detach>:
DYNALIB_FN(7, hal_gpio, hal_interrupt_detach, int(uint16_t))
 23fabc0:	b509      	push	{r0, r3, lr}
 23fabc2:	4804      	ldr	r0, [pc, #16]	; (23fabd4 <hal_interrupt_detach+0x14>)
 23fabc4:	6800      	ldr	r0, [r0, #0]
 23fabc6:	4b04      	ldr	r3, [pc, #16]	; (23fabd8 <hal_interrupt_detach+0x18>)
 23fabc8:	4403      	add	r3, r0
 23fabca:	681b      	ldr	r3, [r3, #0]
 23fabcc:	69db      	ldr	r3, [r3, #28]
 23fabce:	9302      	str	r3, [sp, #8]
 23fabd0:	bd09      	pop	{r0, r3, pc}
 23fabd2:	0000      	.short	0x0000
 23fabd4:	1007ad3c 	.word	0x1007ad3c
 23fabd8:	00000014 	.word	0x00000014

023fabdc <HAL_RNG_GetRandomNumber>:

DYNALIB_BEGIN(hal)

#if PLATFORM_ID > PLATFORM_GCC
DYNALIB_FN(0, hal, HAL_RNG_Configuration, void(void))
DYNALIB_FN(1, hal, HAL_RNG_GetRandomNumber, uint32_t(void))
 23fabdc:	b509      	push	{r0, r3, lr}
 23fabde:	4804      	ldr	r0, [pc, #16]	; (23fabf0 <HAL_RNG_GetRandomNumber+0x14>)
 23fabe0:	6800      	ldr	r0, [r0, #0]
 23fabe2:	4b04      	ldr	r3, [pc, #16]	; (23fabf4 <HAL_RNG_GetRandomNumber+0x18>)
 23fabe4:	4403      	add	r3, r0
 23fabe6:	681b      	ldr	r3, [r3, #0]
 23fabe8:	685b      	ldr	r3, [r3, #4]
 23fabea:	9302      	str	r3, [sp, #8]
 23fabec:	bd09      	pop	{r0, r3, pc}
 23fabee:	0000      	.short	0x0000
 23fabf0:	1007ad3c 	.word	0x1007ad3c
 23fabf4:	00000000 	.word	0x00000000

023fabf8 <HAL_Delay_Microseconds>:
#else
#define BASE_IDX 0
#endif // PLATFORM_ID > PLATFORM_GCC

DYNALIB_FN(BASE_IDX + 0, hal, HAL_Delay_Milliseconds, void(uint32_t))
DYNALIB_FN(BASE_IDX + 1, hal, HAL_Delay_Microseconds, void(uint32_t))
 23fabf8:	b509      	push	{r0, r3, lr}
 23fabfa:	4804      	ldr	r0, [pc, #16]	; (23fac0c <HAL_Delay_Microseconds+0x14>)
 23fabfc:	6800      	ldr	r0, [r0, #0]
 23fabfe:	4b04      	ldr	r3, [pc, #16]	; (23fac10 <HAL_Delay_Microseconds+0x18>)
 23fac00:	4403      	add	r3, r0
 23fac02:	681b      	ldr	r3, [r3, #0]
 23fac04:	68db      	ldr	r3, [r3, #12]
 23fac06:	9302      	str	r3, [sp, #8]
 23fac08:	bd09      	pop	{r0, r3, pc}
 23fac0a:	0000      	.short	0x0000
 23fac0c:	1007ad3c 	.word	0x1007ad3c
 23fac10:	00000000 	.word	0x00000000

023fac14 <HAL_Timer_Get_Milli_Seconds>:
DYNALIB_FN(BASE_IDX + 2, hal, HAL_Timer_Get_Micro_Seconds, system_tick_t(void))
DYNALIB_FN(BASE_IDX + 3, hal, HAL_Timer_Get_Milli_Seconds, system_tick_t(void))
 23fac14:	b509      	push	{r0, r3, lr}
 23fac16:	4804      	ldr	r0, [pc, #16]	; (23fac28 <HAL_Timer_Get_Milli_Seconds+0x14>)
 23fac18:	6800      	ldr	r0, [r0, #0]
 23fac1a:	4b04      	ldr	r3, [pc, #16]	; (23fac2c <HAL_Timer_Get_Milli_Seconds+0x18>)
 23fac1c:	4403      	add	r3, r0
 23fac1e:	681b      	ldr	r3, [r3, #0]
 23fac20:	695b      	ldr	r3, [r3, #20]
 23fac22:	9302      	str	r3, [sp, #8]
 23fac24:	bd09      	pop	{r0, r3, pc}
 23fac26:	0000      	.short	0x0000
 23fac28:	1007ad3c 	.word	0x1007ad3c
 23fac2c:	00000000 	.word	0x00000000

023fac30 <hal_timer_millis>:
DYNALIB_FN(BASE_IDX + 17, hal, HAL_EEPROM_Clear, void(void))
DYNALIB_FN(BASE_IDX + 18, hal, HAL_EEPROM_Has_Pending_Erase, bool(void))
DYNALIB_FN(BASE_IDX + 19, hal, HAL_EEPROM_Perform_Pending_Erase, void(void))
DYNALIB_FN(BASE_IDX + 20, hal, hal_rtc_time_is_valid, bool(void*))

DYNALIB_FN(BASE_IDX + 21, hal, hal_timer_millis, uint64_t(void*))
 23fac30:	b509      	push	{r0, r3, lr}
 23fac32:	4804      	ldr	r0, [pc, #16]	; (23fac44 <hal_timer_millis+0x14>)
 23fac34:	6800      	ldr	r0, [r0, #0]
 23fac36:	4b04      	ldr	r3, [pc, #16]	; (23fac48 <hal_timer_millis+0x18>)
 23fac38:	4403      	add	r3, r0
 23fac3a:	681b      	ldr	r3, [r3, #0]
 23fac3c:	6ddb      	ldr	r3, [r3, #92]	; 0x5c
 23fac3e:	9302      	str	r3, [sp, #8]
 23fac40:	bd09      	pop	{r0, r3, pc}
 23fac42:	0000      	.short	0x0000
 23fac44:	1007ad3c 	.word	0x1007ad3c
 23fac48:	00000000 	.word	0x00000000

023fac4c <_open>:
// Function signatures shouldn't be changed other than changing pointer types.
// New HAL functions must be added to the end of this list.
// GNINRAW

DYNALIB_BEGIN(hal_posix_syscall)
DYNALIB_FN(0, hal_posix_syscall, _open, int(const char* pathname, int flags, ... /* arg */))
 23fac4c:	b509      	push	{r0, r3, lr}
 23fac4e:	4804      	ldr	r0, [pc, #16]	; (23fac60 <_open+0x14>)
 23fac50:	6800      	ldr	r0, [r0, #0]
 23fac52:	4b04      	ldr	r3, [pc, #16]	; (23fac64 <_open+0x18>)
 23fac54:	4403      	add	r3, r0
 23fac56:	681b      	ldr	r3, [r3, #0]
 23fac58:	681b      	ldr	r3, [r3, #0]
 23fac5a:	9302      	str	r3, [sp, #8]
 23fac5c:	bd09      	pop	{r0, r3, pc}
 23fac5e:	0000      	.short	0x0000
 23fac60:	1007ad3c 	.word	0x1007ad3c
 23fac64:	00000064 	.word	0x00000064

023fac68 <_write>:
DYNALIB_FN(1, hal_posix_syscall, _write, int(int fd, const void* buf, size_t count))
 23fac68:	b509      	push	{r0, r3, lr}
 23fac6a:	4804      	ldr	r0, [pc, #16]	; (23fac7c <_write+0x14>)
 23fac6c:	6800      	ldr	r0, [r0, #0]
 23fac6e:	4b04      	ldr	r3, [pc, #16]	; (23fac80 <_write+0x18>)
 23fac70:	4403      	add	r3, r0
 23fac72:	681b      	ldr	r3, [r3, #0]
 23fac74:	685b      	ldr	r3, [r3, #4]
 23fac76:	9302      	str	r3, [sp, #8]
 23fac78:	bd09      	pop	{r0, r3, pc}
 23fac7a:	0000      	.short	0x0000
 23fac7c:	1007ad3c 	.word	0x1007ad3c
 23fac80:	00000064 	.word	0x00000064

023fac84 <_read>:
DYNALIB_FN(2, hal_posix_syscall, _read, int(int fd, void* buf, size_t count))
 23fac84:	b509      	push	{r0, r3, lr}
 23fac86:	4804      	ldr	r0, [pc, #16]	; (23fac98 <_read+0x14>)
 23fac88:	6800      	ldr	r0, [r0, #0]
 23fac8a:	4b04      	ldr	r3, [pc, #16]	; (23fac9c <_read+0x18>)
 23fac8c:	4403      	add	r3, r0
 23fac8e:	681b      	ldr	r3, [r3, #0]
 23fac90:	689b      	ldr	r3, [r3, #8]
 23fac92:	9302      	str	r3, [sp, #8]
 23fac94:	bd09      	pop	{r0, r3, pc}
 23fac96:	0000      	.short	0x0000
 23fac98:	1007ad3c 	.word	0x1007ad3c
 23fac9c:	00000064 	.word	0x00000064

023faca0 <_close>:
DYNALIB_FN(3, hal_posix_syscall, _close, int(int fd))
 23faca0:	b509      	push	{r0, r3, lr}
 23faca2:	4804      	ldr	r0, [pc, #16]	; (23facb4 <_close+0x14>)
 23faca4:	6800      	ldr	r0, [r0, #0]
 23faca6:	4b04      	ldr	r3, [pc, #16]	; (23facb8 <_close+0x18>)
 23faca8:	4403      	add	r3, r0
 23facaa:	681b      	ldr	r3, [r3, #0]
 23facac:	68db      	ldr	r3, [r3, #12]
 23facae:	9302      	str	r3, [sp, #8]
 23facb0:	bd09      	pop	{r0, r3, pc}
 23facb2:	0000      	.short	0x0000
 23facb4:	1007ad3c 	.word	0x1007ad3c
 23facb8:	00000064 	.word	0x00000064

023facbc <_lseek>:
DYNALIB_FN(4, hal_posix_syscall, fsync, int(int fd))
DYNALIB_FN(5, hal_posix_syscall, _fstat, int(int fd, struct stat* buf))
DYNALIB_FN(6, hal_posix_syscall, _fcntl, int(int fd, int cmd, ... /* arg */))
DYNALIB_FN(7, hal_posix_syscall, _isatty, int(int fd))
DYNALIB_FN(8, hal_posix_syscall, _lseek, off_t(int fd, off_t offset, int whence))
 23facbc:	b509      	push	{r0, r3, lr}
 23facbe:	4804      	ldr	r0, [pc, #16]	; (23facd0 <_lseek+0x14>)
 23facc0:	6800      	ldr	r0, [r0, #0]
 23facc2:	4b04      	ldr	r3, [pc, #16]	; (23facd4 <_lseek+0x18>)
 23facc4:	4403      	add	r3, r0
 23facc6:	681b      	ldr	r3, [r3, #0]
 23facc8:	6a1b      	ldr	r3, [r3, #32]
 23facca:	9302      	str	r3, [sp, #8]
 23faccc:	bd09      	pop	{r0, r3, pc}
 23facce:	0000      	.short	0x0000
 23facd0:	1007ad3c 	.word	0x1007ad3c
 23facd4:	00000064 	.word	0x00000064

023facd8 <_unlink>:
DYNALIB_FN(9, hal_posix_syscall, stat, int(const char* pathname, struct stat* buf))
DYNALIB_FN(10, hal_posix_syscall, mkdir, int(const char* pathname, mode_t mode))
DYNALIB_FN(11, hal_posix_syscall, rmdir, int(const char* pathname))
DYNALIB_FN(12, hal_posix_syscall, _unlink, int(const char* pathname))
 23facd8:	b509      	push	{r0, r3, lr}
 23facda:	4804      	ldr	r0, [pc, #16]	; (23facec <_unlink+0x14>)
 23facdc:	6800      	ldr	r0, [r0, #0]
 23facde:	4b04      	ldr	r3, [pc, #16]	; (23facf0 <_unlink+0x18>)
 23face0:	4403      	add	r3, r0
 23face2:	681b      	ldr	r3, [r3, #0]
 23face4:	6b1b      	ldr	r3, [r3, #48]	; 0x30
 23face6:	9302      	str	r3, [sp, #8]
 23face8:	bd09      	pop	{r0, r3, pc}
 23facea:	0000      	.short	0x0000
 23facec:	1007ad3c 	.word	0x1007ad3c
 23facf0:	00000064 	.word	0x00000064

023facf4 <opendir>:
DYNALIB_FN(13, hal_posix_syscall, _link, int(const char* oldpath, const char* newpath))
DYNALIB_FN(14, hal_posix_syscall, _rename, int(const char* oldpath, const char* newpath))
DYNALIB_FN(15, hal_posix_syscall, opendir, DIR*(const char* name))
 23facf4:	b509      	push	{r0, r3, lr}
 23facf6:	4804      	ldr	r0, [pc, #16]	; (23fad08 <opendir+0x14>)
 23facf8:	6800      	ldr	r0, [r0, #0]
 23facfa:	4b04      	ldr	r3, [pc, #16]	; (23fad0c <opendir+0x18>)
 23facfc:	4403      	add	r3, r0
 23facfe:	681b      	ldr	r3, [r3, #0]
 23fad00:	6bdb      	ldr	r3, [r3, #60]	; 0x3c
 23fad02:	9302      	str	r3, [sp, #8]
 23fad04:	bd09      	pop	{r0, r3, pc}
 23fad06:	0000      	.short	0x0000
 23fad08:	1007ad3c 	.word	0x1007ad3c
 23fad0c:	00000064 	.word	0x00000064

023fad10 <readdir>:
DYNALIB_FN(16, hal_posix_syscall, readdir, struct dirent*(DIR* pdir))
 23fad10:	b509      	push	{r0, r3, lr}
 23fad12:	4804      	ldr	r0, [pc, #16]	; (23fad24 <readdir+0x14>)
 23fad14:	6800      	ldr	r0, [r0, #0]
 23fad16:	4b04      	ldr	r3, [pc, #16]	; (23fad28 <readdir+0x18>)
 23fad18:	4403      	add	r3, r0
 23fad1a:	681b      	ldr	r3, [r3, #0]
 23fad1c:	6c1b      	ldr	r3, [r3, #64]	; 0x40
 23fad1e:	9302      	str	r3, [sp, #8]
 23fad20:	bd09      	pop	{r0, r3, pc}
 23fad22:	0000      	.short	0x0000
 23fad24:	1007ad3c 	.word	0x1007ad3c
 23fad28:	00000064 	.word	0x00000064

023fad2c <closedir>:
DYNALIB_FN(17, hal_posix_syscall, telldir, long(DIR* pdir))
DYNALIB_FN(18, hal_posix_syscall, seekdir, void(DIR* pdir, long loc))
DYNALIB_FN(19, hal_posix_syscall, rewinddir, void(DIR* pdir))
DYNALIB_FN(20, hal_posix_syscall, readdir_r, int(DIR* pdir, struct dirent* entry, struct dirent** out_dirent))
DYNALIB_FN(21, hal_posix_syscall, closedir, int(DIR* pdir))
 23fad2c:	b509      	push	{r0, r3, lr}
 23fad2e:	4804      	ldr	r0, [pc, #16]	; (23fad40 <closedir+0x14>)
 23fad30:	6800      	ldr	r0, [r0, #0]
 23fad32:	4b04      	ldr	r3, [pc, #16]	; (23fad44 <closedir+0x18>)
 23fad34:	4403      	add	r3, r0
 23fad36:	681b      	ldr	r3, [r3, #0]
 23fad38:	6d5b      	ldr	r3, [r3, #84]	; 0x54
 23fad3a:	9302      	str	r3, [sp, #8]
 23fad3c:	bd09      	pop	{r0, r3, pc}
 23fad3e:	0000      	.short	0x0000
 23fad40:	1007ad3c 	.word	0x1007ad3c
 23fad44:	00000064 	.word	0x00000064

023fad48 <os_mutex_recursive_create>:
DYNALIB_FN(13, hal_concurrent, os_mutex_destroy, int(os_mutex_t))
DYNALIB_FN(14, hal_concurrent, os_mutex_lock, int(os_mutex_t))
DYNALIB_FN(15, hal_concurrent, os_mutex_trylock, int(os_mutex_t))
DYNALIB_FN(16, hal_concurrent, os_mutex_unlock, int(os_mutex_t))

DYNALIB_FN(17, hal_concurrent, os_mutex_recursive_create, int(os_mutex_recursive_t*))
 23fad48:	b509      	push	{r0, r3, lr}
 23fad4a:	4804      	ldr	r0, [pc, #16]	; (23fad5c <os_mutex_recursive_create+0x14>)
 23fad4c:	6800      	ldr	r0, [r0, #0]
 23fad4e:	4b04      	ldr	r3, [pc, #16]	; (23fad60 <os_mutex_recursive_create+0x18>)
 23fad50:	4403      	add	r3, r0
 23fad52:	681b      	ldr	r3, [r3, #0]
 23fad54:	6c5b      	ldr	r3, [r3, #68]	; 0x44
 23fad56:	9302      	str	r3, [sp, #8]
 23fad58:	bd09      	pop	{r0, r3, pc}
 23fad5a:	0000      	.short	0x0000
 23fad5c:	1007ad3c 	.word	0x1007ad3c
 23fad60:	00000030 	.word	0x00000030

023fad64 <os_mutex_recursive_destroy>:
DYNALIB_FN(18, hal_concurrent, os_mutex_recursive_destroy, int(os_mutex_recursive_t))
 23fad64:	b509      	push	{r0, r3, lr}
 23fad66:	4804      	ldr	r0, [pc, #16]	; (23fad78 <os_mutex_recursive_destroy+0x14>)
 23fad68:	6800      	ldr	r0, [r0, #0]
 23fad6a:	4b04      	ldr	r3, [pc, #16]	; (23fad7c <os_mutex_recursive_destroy+0x18>)
 23fad6c:	4403      	add	r3, r0
 23fad6e:	681b      	ldr	r3, [r3, #0]
 23fad70:	6c9b      	ldr	r3, [r3, #72]	; 0x48
 23fad72:	9302      	str	r3, [sp, #8]
 23fad74:	bd09      	pop	{r0, r3, pc}
 23fad76:	0000      	.short	0x0000
 23fad78:	1007ad3c 	.word	0x1007ad3c
 23fad7c:	00000030 	.word	0x00000030

023fad80 <os_mutex_recursive_lock>:
DYNALIB_FN(19, hal_concurrent, os_mutex_recursive_lock, int(os_mutex_recursive_t))
 23fad80:	b509      	push	{r0, r3, lr}
 23fad82:	4804      	ldr	r0, [pc, #16]	; (23fad94 <os_mutex_recursive_lock+0x14>)
 23fad84:	6800      	ldr	r0, [r0, #0]
 23fad86:	4b04      	ldr	r3, [pc, #16]	; (23fad98 <os_mutex_recursive_lock+0x18>)
 23fad88:	4403      	add	r3, r0
 23fad8a:	681b      	ldr	r3, [r3, #0]
 23fad8c:	6cdb      	ldr	r3, [r3, #76]	; 0x4c
 23fad8e:	9302      	str	r3, [sp, #8]
 23fad90:	bd09      	pop	{r0, r3, pc}
 23fad92:	0000      	.short	0x0000
 23fad94:	1007ad3c 	.word	0x1007ad3c
 23fad98:	00000030 	.word	0x00000030

023fad9c <os_mutex_recursive_unlock>:
DYNALIB_FN(20, hal_concurrent, os_mutex_recursive_trylock, int(os_mutex_recursive_t))
DYNALIB_FN(21, hal_concurrent, os_mutex_recursive_unlock, int(os_mutex_recursive_t))
 23fad9c:	b509      	push	{r0, r3, lr}
 23fad9e:	4804      	ldr	r0, [pc, #16]	; (23fadb0 <os_mutex_recursive_unlock+0x14>)
 23fada0:	6800      	ldr	r0, [r0, #0]
 23fada2:	4b04      	ldr	r3, [pc, #16]	; (23fadb4 <os_mutex_recursive_unlock+0x18>)
 23fada4:	4403      	add	r3, r0
 23fada6:	681b      	ldr	r3, [r3, #0]
 23fada8:	6d5b      	ldr	r3, [r3, #84]	; 0x54
 23fadaa:	9302      	str	r3, [sp, #8]
 23fadac:	bd09      	pop	{r0, r3, pc}
 23fadae:	0000      	.short	0x0000
 23fadb0:	1007ad3c 	.word	0x1007ad3c
 23fadb4:	00000030 	.word	0x00000030

023fadb8 <inet_inet_ntop>:
DYNALIB_FN(0, hal_inet, inet_inet_addr, in_addr_t(const char*))
DYNALIB_FN(1, hal_inet, inet_inet_aton, int(const char*, struct in_addr*))
DYNALIB_FN(2, hal_inet, inet_inet_network, in_addr_t(const char*))
DYNALIB_FN(3, hal_inet, inet_inet_ntoa, char*(struct in_addr))
DYNALIB_FN(4, hal_inet, inet_inet_ntoa_r, char*(struct in_addr, char*, socklen_t))
DYNALIB_FN(5, hal_inet, inet_inet_ntop, const char*(int, const void*, char*, socklen_t))
 23fadb8:	b509      	push	{r0, r3, lr}
 23fadba:	4804      	ldr	r0, [pc, #16]	; (23fadcc <inet_inet_ntop+0x14>)
 23fadbc:	6800      	ldr	r0, [r0, #0]
 23fadbe:	4b04      	ldr	r3, [pc, #16]	; (23fadd0 <inet_inet_ntop+0x18>)
 23fadc0:	4403      	add	r3, r0
 23fadc2:	681b      	ldr	r3, [r3, #0]
 23fadc4:	695b      	ldr	r3, [r3, #20]
 23fadc6:	9302      	str	r3, [sp, #8]
 23fadc8:	bd09      	pop	{r0, r3, pc}
 23fadca:	0000      	.short	0x0000
 23fadcc:	1007ad3c 	.word	0x1007ad3c
 23fadd0:	0000004c 	.word	0x0000004c

023fadd4 <hal_usart_end>:
#define BASE_IDX 0
#endif

DYNALIB_FN(BASE_IDX + 0, hal_usart, hal_usart_init, void(hal_usart_interface_t, hal_usart_ring_buffer_t*, hal_usart_ring_buffer_t*))
DYNALIB_FN(BASE_IDX + 1, hal_usart, hal_usart_begin, void(hal_usart_interface_t, uint32_t))
DYNALIB_FN(BASE_IDX + 2, hal_usart, hal_usart_end, void(hal_usart_interface_t))
 23fadd4:	b509      	push	{r0, r3, lr}
 23fadd6:	4804      	ldr	r0, [pc, #16]	; (23fade8 <hal_usart_end+0x14>)
 23fadd8:	6800      	ldr	r0, [r0, #0]
 23fadda:	4b04      	ldr	r3, [pc, #16]	; (23fadec <hal_usart_end+0x18>)
 23faddc:	4403      	add	r3, r0
 23fadde:	681b      	ldr	r3, [r3, #0]
 23fade0:	689b      	ldr	r3, [r3, #8]
 23fade2:	9302      	str	r3, [sp, #8]
 23fade4:	bd09      	pop	{r0, r3, pc}
 23fade6:	0000      	.short	0x0000
 23fade8:	1007ad3c 	.word	0x1007ad3c
 23fadec:	00000024 	.word	0x00000024

023fadf0 <hal_usart_write>:
DYNALIB_FN(BASE_IDX + 3, hal_usart, hal_usart_write, uint32_t(hal_usart_interface_t, uint8_t))
 23fadf0:	b509      	push	{r0, r3, lr}
 23fadf2:	4804      	ldr	r0, [pc, #16]	; (23fae04 <hal_usart_write+0x14>)
 23fadf4:	6800      	ldr	r0, [r0, #0]
 23fadf6:	4b04      	ldr	r3, [pc, #16]	; (23fae08 <hal_usart_write+0x18>)
 23fadf8:	4403      	add	r3, r0
 23fadfa:	681b      	ldr	r3, [r3, #0]
 23fadfc:	68db      	ldr	r3, [r3, #12]
 23fadfe:	9302      	str	r3, [sp, #8]
 23fae00:	bd09      	pop	{r0, r3, pc}
 23fae02:	0000      	.short	0x0000
 23fae04:	1007ad3c 	.word	0x1007ad3c
 23fae08:	00000024 	.word	0x00000024

023fae0c <hal_usart_available>:
DYNALIB_FN(BASE_IDX + 4, hal_usart, hal_usart_available, int32_t(hal_usart_interface_t))
 23fae0c:	b509      	push	{r0, r3, lr}
 23fae0e:	4804      	ldr	r0, [pc, #16]	; (23fae20 <hal_usart_available+0x14>)
 23fae10:	6800      	ldr	r0, [r0, #0]
 23fae12:	4b04      	ldr	r3, [pc, #16]	; (23fae24 <hal_usart_available+0x18>)
 23fae14:	4403      	add	r3, r0
 23fae16:	681b      	ldr	r3, [r3, #0]
 23fae18:	691b      	ldr	r3, [r3, #16]
 23fae1a:	9302      	str	r3, [sp, #8]
 23fae1c:	bd09      	pop	{r0, r3, pc}
 23fae1e:	0000      	.short	0x0000
 23fae20:	1007ad3c 	.word	0x1007ad3c
 23fae24:	00000024 	.word	0x00000024

023fae28 <hal_usart_read>:
DYNALIB_FN(BASE_IDX + 5, hal_usart, hal_usart_read, int32_t(hal_usart_interface_t))
 23fae28:	b509      	push	{r0, r3, lr}
 23fae2a:	4804      	ldr	r0, [pc, #16]	; (23fae3c <hal_usart_read+0x14>)
 23fae2c:	6800      	ldr	r0, [r0, #0]
 23fae2e:	4b04      	ldr	r3, [pc, #16]	; (23fae40 <hal_usart_read+0x18>)
 23fae30:	4403      	add	r3, r0
 23fae32:	681b      	ldr	r3, [r3, #0]
 23fae34:	695b      	ldr	r3, [r3, #20]
 23fae36:	9302      	str	r3, [sp, #8]
 23fae38:	bd09      	pop	{r0, r3, pc}
 23fae3a:	0000      	.short	0x0000
 23fae3c:	1007ad3c 	.word	0x1007ad3c
 23fae40:	00000024 	.word	0x00000024

023fae44 <hal_usart_peek>:
DYNALIB_FN(BASE_IDX + 6, hal_usart, hal_usart_peek, int32_t(hal_usart_interface_t))
 23fae44:	b509      	push	{r0, r3, lr}
 23fae46:	4804      	ldr	r0, [pc, #16]	; (23fae58 <hal_usart_peek+0x14>)
 23fae48:	6800      	ldr	r0, [r0, #0]
 23fae4a:	4b04      	ldr	r3, [pc, #16]	; (23fae5c <hal_usart_peek+0x18>)
 23fae4c:	4403      	add	r3, r0
 23fae4e:	681b      	ldr	r3, [r3, #0]
 23fae50:	699b      	ldr	r3, [r3, #24]
 23fae52:	9302      	str	r3, [sp, #8]
 23fae54:	bd09      	pop	{r0, r3, pc}
 23fae56:	0000      	.short	0x0000
 23fae58:	1007ad3c 	.word	0x1007ad3c
 23fae5c:	00000024 	.word	0x00000024

023fae60 <hal_usart_flush>:
DYNALIB_FN(BASE_IDX + 7, hal_usart, hal_usart_flush, void(hal_usart_interface_t))
 23fae60:	b509      	push	{r0, r3, lr}
 23fae62:	4804      	ldr	r0, [pc, #16]	; (23fae74 <hal_usart_flush+0x14>)
 23fae64:	6800      	ldr	r0, [r0, #0]
 23fae66:	4b04      	ldr	r3, [pc, #16]	; (23fae78 <hal_usart_flush+0x18>)
 23fae68:	4403      	add	r3, r0
 23fae6a:	681b      	ldr	r3, [r3, #0]
 23fae6c:	69db      	ldr	r3, [r3, #28]
 23fae6e:	9302      	str	r3, [sp, #8]
 23fae70:	bd09      	pop	{r0, r3, pc}
 23fae72:	0000      	.short	0x0000
 23fae74:	1007ad3c 	.word	0x1007ad3c
 23fae78:	00000024 	.word	0x00000024

023fae7c <hal_usart_is_enabled>:
DYNALIB_FN(BASE_IDX + 8, hal_usart, hal_usart_is_enabled, bool(hal_usart_interface_t))
 23fae7c:	b509      	push	{r0, r3, lr}
 23fae7e:	4804      	ldr	r0, [pc, #16]	; (23fae90 <hal_usart_is_enabled+0x14>)
 23fae80:	6800      	ldr	r0, [r0, #0]
 23fae82:	4b04      	ldr	r3, [pc, #16]	; (23fae94 <hal_usart_is_enabled+0x18>)
 23fae84:	4403      	add	r3, r0
 23fae86:	681b      	ldr	r3, [r3, #0]
 23fae88:	6a1b      	ldr	r3, [r3, #32]
 23fae8a:	9302      	str	r3, [sp, #8]
 23fae8c:	bd09      	pop	{r0, r3, pc}
 23fae8e:	0000      	.short	0x0000
 23fae90:	1007ad3c 	.word	0x1007ad3c
 23fae94:	00000024 	.word	0x00000024

023fae98 <hal_usart_available_data_for_write>:
DYNALIB_FN(BASE_IDX + 9, hal_usart, hal_usart_half_duplex, void(hal_usart_interface_t, bool))
DYNALIB_FN(BASE_IDX + 10, hal_usart, hal_usart_available_data_for_write, int32_t(hal_usart_interface_t))
 23fae98:	b509      	push	{r0, r3, lr}
 23fae9a:	4804      	ldr	r0, [pc, #16]	; (23faeac <hal_usart_available_data_for_write+0x14>)
 23fae9c:	6800      	ldr	r0, [r0, #0]
 23fae9e:	4b04      	ldr	r3, [pc, #16]	; (23faeb0 <hal_usart_available_data_for_write+0x18>)
 23faea0:	4403      	add	r3, r0
 23faea2:	681b      	ldr	r3, [r3, #0]
 23faea4:	6a9b      	ldr	r3, [r3, #40]	; 0x28
 23faea6:	9302      	str	r3, [sp, #8]
 23faea8:	bd09      	pop	{r0, r3, pc}
 23faeaa:	0000      	.short	0x0000
 23faeac:	1007ad3c 	.word	0x1007ad3c
 23faeb0:	00000024 	.word	0x00000024

023faeb4 <hal_usart_begin_config>:
#define BASE_IDX2 (BASE_IDX+13)
#else
#define BASE_IDX2 (BASE_IDX+11)
#endif

DYNALIB_FN(BASE_IDX2 + 0, hal_usart, hal_usart_begin_config, void(hal_usart_interface_t serial, uint32_t baud, uint32_t config, void *ptr))
 23faeb4:	b509      	push	{r0, r3, lr}
 23faeb6:	4804      	ldr	r0, [pc, #16]	; (23faec8 <hal_usart_begin_config+0x14>)
 23faeb8:	6800      	ldr	r0, [r0, #0]
 23faeba:	4b04      	ldr	r3, [pc, #16]	; (23faecc <hal_usart_begin_config+0x18>)
 23faebc:	4403      	add	r3, r0
 23faebe:	681b      	ldr	r3, [r3, #0]
 23faec0:	6adb      	ldr	r3, [r3, #44]	; 0x2c
 23faec2:	9302      	str	r3, [sp, #8]
 23faec4:	bd09      	pop	{r0, r3, pc}
 23faec6:	0000      	.short	0x0000
 23faec8:	1007ad3c 	.word	0x1007ad3c
 23faecc:	00000024 	.word	0x00000024

023faed0 <hal_usart_init_ex>:
DYNALIB_FN(BASE_IDX2 + 1, hal_usart, hal_usart_write_nine_bits, uint32_t(hal_usart_interface_t serial, uint16_t data))
DYNALIB_FN(BASE_IDX2 + 2, hal_usart, hal_usart_send_break, void(hal_usart_interface_t, void*))
DYNALIB_FN(BASE_IDX2 + 3, hal_usart, hal_usart_break_detected, uint8_t(hal_usart_interface_t))
DYNALIB_FN(BASE_IDX2 + 4, hal_usart, hal_usart_sleep, int(hal_usart_interface_t serial, bool, void*))
DYNALIB_FN(BASE_IDX2 + 5, hal_usart, hal_usart_init_ex, int(hal_usart_interface_t, const hal_usart_buffer_config_t*, void*))
 23faed0:	b509      	push	{r0, r3, lr}
 23faed2:	4804      	ldr	r0, [pc, #16]	; (23faee4 <hal_usart_init_ex+0x14>)
 23faed4:	6800      	ldr	r0, [r0, #0]
 23faed6:	4b04      	ldr	r3, [pc, #16]	; (23faee8 <hal_usart_init_ex+0x18>)
 23faed8:	4403      	add	r3, r0
 23faeda:	681b      	ldr	r3, [r3, #0]
 23faedc:	6c1b      	ldr	r3, [r3, #64]	; 0x40
 23faede:	9302      	str	r3, [sp, #8]
 23faee0:	bd09      	pop	{r0, r3, pc}
 23faee2:	0000      	.short	0x0000
 23faee4:	1007ad3c 	.word	0x1007ad3c
 23faee8:	00000024 	.word	0x00000024

023faeec <hal_i2c_begin>:
DYNALIB_BEGIN(hal_i2c)

DYNALIB_FN(0, hal_i2c, hal_i2c_set_speed, void(hal_i2c_interface_t, uint32_t, void*))
DYNALIB_FN(1, hal_i2c, hal_i2c_enable_dma_mode, void(hal_i2c_interface_t, bool, void*))
DYNALIB_FN(2, hal_i2c, hal_i2c_stretch_clock, void(hal_i2c_interface_t, bool, void*))
DYNALIB_FN(3, hal_i2c, hal_i2c_begin, void(hal_i2c_interface_t, hal_i2c_mode_t, uint8_t, void*))
 23faeec:	b509      	push	{r0, r3, lr}
 23faeee:	4804      	ldr	r0, [pc, #16]	; (23faf00 <hal_i2c_begin+0x14>)
 23faef0:	6800      	ldr	r0, [r0, #0]
 23faef2:	4b04      	ldr	r3, [pc, #16]	; (23faf04 <hal_i2c_begin+0x18>)
 23faef4:	4403      	add	r3, r0
 23faef6:	681b      	ldr	r3, [r3, #0]
 23faef8:	68db      	ldr	r3, [r3, #12]
 23faefa:	9302      	str	r3, [sp, #8]
 23faefc:	bd09      	pop	{r0, r3, pc}
 23faefe:	0000      	.short	0x0000
 23faf00:	1007ad3c 	.word	0x1007ad3c
 23faf04:	00000010 	.word	0x00000010

023faf08 <hal_i2c_begin_transmission>:
DYNALIB_FN(4, hal_i2c, hal_i2c_end, void(hal_i2c_interface_t, void*))
DYNALIB_FN(5, hal_i2c, hal_i2c_request, uint32_t(hal_i2c_interface_t, uint8_t, uint8_t, uint8_t, void*))
DYNALIB_FN(6, hal_i2c, hal_i2c_begin_transmission, void(hal_i2c_interface_t, uint8_t, const hal_i2c_transmission_config_t*))
 23faf08:	b509      	push	{r0, r3, lr}
 23faf0a:	4804      	ldr	r0, [pc, #16]	; (23faf1c <hal_i2c_begin_transmission+0x14>)
 23faf0c:	6800      	ldr	r0, [r0, #0]
 23faf0e:	4b04      	ldr	r3, [pc, #16]	; (23faf20 <hal_i2c_begin_transmission+0x18>)
 23faf10:	4403      	add	r3, r0
 23faf12:	681b      	ldr	r3, [r3, #0]
 23faf14:	699b      	ldr	r3, [r3, #24]
 23faf16:	9302      	str	r3, [sp, #8]
 23faf18:	bd09      	pop	{r0, r3, pc}
 23faf1a:	0000      	.short	0x0000
 23faf1c:	1007ad3c 	.word	0x1007ad3c
 23faf20:	00000010 	.word	0x00000010

023faf24 <hal_i2c_end_transmission>:
DYNALIB_FN(7, hal_i2c, hal_i2c_end_transmission, uint8_t(hal_i2c_interface_t, uint8_t, void*))
 23faf24:	b509      	push	{r0, r3, lr}
 23faf26:	4804      	ldr	r0, [pc, #16]	; (23faf38 <hal_i2c_end_transmission+0x14>)
 23faf28:	6800      	ldr	r0, [r0, #0]
 23faf2a:	4b04      	ldr	r3, [pc, #16]	; (23faf3c <hal_i2c_end_transmission+0x18>)
 23faf2c:	4403      	add	r3, r0
 23faf2e:	681b      	ldr	r3, [r3, #0]
 23faf30:	69db      	ldr	r3, [r3, #28]
 23faf32:	9302      	str	r3, [sp, #8]
 23faf34:	bd09      	pop	{r0, r3, pc}
 23faf36:	0000      	.short	0x0000
 23faf38:	1007ad3c 	.word	0x1007ad3c
 23faf3c:	00000010 	.word	0x00000010

023faf40 <hal_i2c_write>:
DYNALIB_FN(8, hal_i2c, hal_i2c_write, uint32_t(hal_i2c_interface_t, uint8_t, void*))
 23faf40:	b509      	push	{r0, r3, lr}
 23faf42:	4804      	ldr	r0, [pc, #16]	; (23faf54 <hal_i2c_write+0x14>)
 23faf44:	6800      	ldr	r0, [r0, #0]
 23faf46:	4b04      	ldr	r3, [pc, #16]	; (23faf58 <hal_i2c_write+0x18>)
 23faf48:	4403      	add	r3, r0
 23faf4a:	681b      	ldr	r3, [r3, #0]
 23faf4c:	6a1b      	ldr	r3, [r3, #32]
 23faf4e:	9302      	str	r3, [sp, #8]
 23faf50:	bd09      	pop	{r0, r3, pc}
 23faf52:	0000      	.short	0x0000
 23faf54:	1007ad3c 	.word	0x1007ad3c
 23faf58:	00000010 	.word	0x00000010

023faf5c <hal_i2c_available>:
DYNALIB_FN(9, hal_i2c, hal_i2c_available, int32_t(hal_i2c_interface_t, void*))
 23faf5c:	b509      	push	{r0, r3, lr}
 23faf5e:	4804      	ldr	r0, [pc, #16]	; (23faf70 <hal_i2c_available+0x14>)
 23faf60:	6800      	ldr	r0, [r0, #0]
 23faf62:	4b04      	ldr	r3, [pc, #16]	; (23faf74 <hal_i2c_available+0x18>)
 23faf64:	4403      	add	r3, r0
 23faf66:	681b      	ldr	r3, [r3, #0]
 23faf68:	6a5b      	ldr	r3, [r3, #36]	; 0x24
 23faf6a:	9302      	str	r3, [sp, #8]
 23faf6c:	bd09      	pop	{r0, r3, pc}
 23faf6e:	0000      	.short	0x0000
 23faf70:	1007ad3c 	.word	0x1007ad3c
 23faf74:	00000010 	.word	0x00000010

023faf78 <hal_i2c_read>:
DYNALIB_FN(10, hal_i2c, hal_i2c_read, int32_t(hal_i2c_interface_t, void*))
 23faf78:	b509      	push	{r0, r3, lr}
 23faf7a:	4804      	ldr	r0, [pc, #16]	; (23faf8c <hal_i2c_read+0x14>)
 23faf7c:	6800      	ldr	r0, [r0, #0]
 23faf7e:	4b04      	ldr	r3, [pc, #16]	; (23faf90 <hal_i2c_read+0x18>)
 23faf80:	4403      	add	r3, r0
 23faf82:	681b      	ldr	r3, [r3, #0]
 23faf84:	6a9b      	ldr	r3, [r3, #40]	; 0x28
 23faf86:	9302      	str	r3, [sp, #8]
 23faf88:	bd09      	pop	{r0, r3, pc}
 23faf8a:	0000      	.short	0x0000
 23faf8c:	1007ad3c 	.word	0x1007ad3c
 23faf90:	00000010 	.word	0x00000010

023faf94 <hal_i2c_peek>:
DYNALIB_FN(11, hal_i2c, hal_i2c_peek, int32_t(hal_i2c_interface_t, void*))
 23faf94:	b509      	push	{r0, r3, lr}
 23faf96:	4804      	ldr	r0, [pc, #16]	; (23fafa8 <hal_i2c_peek+0x14>)
 23faf98:	6800      	ldr	r0, [r0, #0]
 23faf9a:	4b04      	ldr	r3, [pc, #16]	; (23fafac <hal_i2c_peek+0x18>)
 23faf9c:	4403      	add	r3, r0
 23faf9e:	681b      	ldr	r3, [r3, #0]
 23fafa0:	6adb      	ldr	r3, [r3, #44]	; 0x2c
 23fafa2:	9302      	str	r3, [sp, #8]
 23fafa4:	bd09      	pop	{r0, r3, pc}
 23fafa6:	0000      	.short	0x0000
 23fafa8:	1007ad3c 	.word	0x1007ad3c
 23fafac:	00000010 	.word	0x00000010

023fafb0 <hal_i2c_flush>:
DYNALIB_FN(12, hal_i2c, hal_i2c_flush, void(hal_i2c_interface_t, void*))
 23fafb0:	b509      	push	{r0, r3, lr}
 23fafb2:	4804      	ldr	r0, [pc, #16]	; (23fafc4 <hal_i2c_flush+0x14>)
 23fafb4:	6800      	ldr	r0, [r0, #0]
 23fafb6:	4b04      	ldr	r3, [pc, #16]	; (23fafc8 <hal_i2c_flush+0x18>)
 23fafb8:	4403      	add	r3, r0
 23fafba:	681b      	ldr	r3, [r3, #0]
 23fafbc:	6b1b      	ldr	r3, [r3, #48]	; 0x30
 23fafbe:	9302      	str	r3, [sp, #8]
 23fafc0:	bd09      	pop	{r0, r3, pc}
 23fafc2:	0000      	.short	0x0000
 23fafc4:	1007ad3c 	.word	0x1007ad3c
 23fafc8:	00000010 	.word	0x00000010

023fafcc <hal_i2c_is_enabled>:
DYNALIB_FN(13, hal_i2c, hal_i2c_is_enabled, bool(hal_i2c_interface_t, void*))
 23fafcc:	b509      	push	{r0, r3, lr}
 23fafce:	4804      	ldr	r0, [pc, #16]	; (23fafe0 <hal_i2c_is_enabled+0x14>)
 23fafd0:	6800      	ldr	r0, [r0, #0]
 23fafd2:	4b04      	ldr	r3, [pc, #16]	; (23fafe4 <hal_i2c_is_enabled+0x18>)
 23fafd4:	4403      	add	r3, r0
 23fafd6:	681b      	ldr	r3, [r3, #0]
 23fafd8:	6b5b      	ldr	r3, [r3, #52]	; 0x34
 23fafda:	9302      	str	r3, [sp, #8]
 23fafdc:	bd09      	pop	{r0, r3, pc}
 23fafde:	0000      	.short	0x0000
 23fafe0:	1007ad3c 	.word	0x1007ad3c
 23fafe4:	00000010 	.word	0x00000010

023fafe8 <hal_i2c_init>:
DYNALIB_FN(14, hal_i2c, hal_i2c_set_callback_on_received, void(hal_i2c_interface_t, void(*)(int), void*))
DYNALIB_FN(15, hal_i2c, hal_i2c_set_callback_on_requested, void(hal_i2c_interface_t, void(*)(void), void*))
DYNALIB_FN(16, hal_i2c, hal_i2c_init, int(hal_i2c_interface_t, const hal_i2c_config_t*))
 23fafe8:	b509      	push	{r0, r3, lr}
 23fafea:	4804      	ldr	r0, [pc, #16]	; (23faffc <hal_i2c_init+0x14>)
 23fafec:	6800      	ldr	r0, [r0, #0]
 23fafee:	4b04      	ldr	r3, [pc, #16]	; (23fb000 <hal_i2c_init+0x18>)
 23faff0:	4403      	add	r3, r0
 23faff2:	681b      	ldr	r3, [r3, #0]
 23faff4:	6c1b      	ldr	r3, [r3, #64]	; 0x40
 23faff6:	9302      	str	r3, [sp, #8]
 23faff8:	bd09      	pop	{r0, r3, pc}
 23faffa:	0000      	.short	0x0000
 23faffc:	1007ad3c 	.word	0x1007ad3c
 23fb000:	00000010 	.word	0x00000010

023fb004 <hal_i2c_request_ex>:
DYNALIB_FN(17, hal_i2c, hal_i2c_reset, int(hal_i2c_interface_t, uint32_t, void*))
DYNALIB_FN(18, hal_i2c, hal_i2c_lock, int32_t(hal_i2c_interface_t, void*))
DYNALIB_FN(19, hal_i2c, hal_i2c_unlock, int32_t(hal_i2c_interface_t, void*))
DYNALIB_FN(20, hal_i2c, hal_i2c_request_ex, int32_t(hal_i2c_interface_t, const hal_i2c_transmission_config_t*, void*))
 23fb004:	b509      	push	{r0, r3, lr}
 23fb006:	4804      	ldr	r0, [pc, #16]	; (23fb018 <hal_i2c_request_ex+0x14>)
 23fb008:	6800      	ldr	r0, [r0, #0]
 23fb00a:	4b04      	ldr	r3, [pc, #16]	; (23fb01c <hal_i2c_request_ex+0x18>)
 23fb00c:	4403      	add	r3, r0
 23fb00e:	681b      	ldr	r3, [r3, #0]
 23fb010:	6d1b      	ldr	r3, [r3, #80]	; 0x50
 23fb012:	9302      	str	r3, [sp, #8]
 23fb014:	bd09      	pop	{r0, r3, pc}
 23fb016:	0000      	.short	0x0000
 23fb018:	1007ad3c 	.word	0x1007ad3c
 23fb01c:	00000010 	.word	0x00000010

023fb020 <hal_spi_begin>:
// New HAL functions must be added to the end of this list.
// GNINRAW

DYNALIB_BEGIN(hal_spi)

DYNALIB_FN(0, hal_spi, hal_spi_begin, void(hal_spi_interface_t, uint16_t))
 23fb020:	b509      	push	{r0, r3, lr}
 23fb022:	4804      	ldr	r0, [pc, #16]	; (23fb034 <hal_spi_begin+0x14>)
 23fb024:	6800      	ldr	r0, [r0, #0]
 23fb026:	4b04      	ldr	r3, [pc, #16]	; (23fb038 <hal_spi_begin+0x18>)
 23fb028:	4403      	add	r3, r0
 23fb02a:	681b      	ldr	r3, [r3, #0]
 23fb02c:	681b      	ldr	r3, [r3, #0]
 23fb02e:	9302      	str	r3, [sp, #8]
 23fb030:	bd09      	pop	{r0, r3, pc}
 23fb032:	0000      	.short	0x0000
 23fb034:	1007ad3c 	.word	0x1007ad3c
 23fb038:	00000018 	.word	0x00000018

023fb03c <hal_spi_set_data_mode>:
DYNALIB_FN(1, hal_spi, hal_spi_end, void(hal_spi_interface_t))
DYNALIB_FN(2, hal_spi, hal_spi_set_bit_order, void(hal_spi_interface_t, uint8_t))
DYNALIB_FN(3, hal_spi, hal_spi_set_data_mode, void(hal_spi_interface_t, uint8_t))
 23fb03c:	b509      	push	{r0, r3, lr}
 23fb03e:	4804      	ldr	r0, [pc, #16]	; (23fb050 <hal_spi_set_data_mode+0x14>)
 23fb040:	6800      	ldr	r0, [r0, #0]
 23fb042:	4b04      	ldr	r3, [pc, #16]	; (23fb054 <hal_spi_set_data_mode+0x18>)
 23fb044:	4403      	add	r3, r0
 23fb046:	681b      	ldr	r3, [r3, #0]
 23fb048:	68db      	ldr	r3, [r3, #12]
 23fb04a:	9302      	str	r3, [sp, #8]
 23fb04c:	bd09      	pop	{r0, r3, pc}
 23fb04e:	0000      	.short	0x0000
 23fb050:	1007ad3c 	.word	0x1007ad3c
 23fb054:	00000018 	.word	0x00000018

023fb058 <hal_spi_set_clock_divider>:
DYNALIB_FN(4, hal_spi, hal_spi_set_clock_divider, void(hal_spi_interface_t, uint8_t))
 23fb058:	b509      	push	{r0, r3, lr}
 23fb05a:	4804      	ldr	r0, [pc, #16]	; (23fb06c <hal_spi_set_clock_divider+0x14>)
 23fb05c:	6800      	ldr	r0, [r0, #0]
 23fb05e:	4b04      	ldr	r3, [pc, #16]	; (23fb070 <hal_spi_set_clock_divider+0x18>)
 23fb060:	4403      	add	r3, r0
 23fb062:	681b      	ldr	r3, [r3, #0]
 23fb064:	691b      	ldr	r3, [r3, #16]
 23fb066:	9302      	str	r3, [sp, #8]
 23fb068:	bd09      	pop	{r0, r3, pc}
 23fb06a:	0000      	.short	0x0000
 23fb06c:	1007ad3c 	.word	0x1007ad3c
 23fb070:	00000018 	.word	0x00000018

023fb074 <hal_spi_transfer>:
DYNALIB_FN(5, hal_spi, hal_spi_transfer, uint16_t(hal_spi_interface_t, uint16_t))
 23fb074:	b509      	push	{r0, r3, lr}
 23fb076:	4804      	ldr	r0, [pc, #16]	; (23fb088 <hal_spi_transfer+0x14>)
 23fb078:	6800      	ldr	r0, [r0, #0]
 23fb07a:	4b04      	ldr	r3, [pc, #16]	; (23fb08c <hal_spi_transfer+0x18>)
 23fb07c:	4403      	add	r3, r0
 23fb07e:	681b      	ldr	r3, [r3, #0]
 23fb080:	695b      	ldr	r3, [r3, #20]
 23fb082:	9302      	str	r3, [sp, #8]
 23fb084:	bd09      	pop	{r0, r3, pc}
 23fb086:	0000      	.short	0x0000
 23fb088:	1007ad3c 	.word	0x1007ad3c
 23fb08c:	00000018 	.word	0x00000018

023fb090 <hal_spi_init>:
DYNALIB_FN(6, hal_spi, hal_spi_is_enabled_deprecated, bool(void))
DYNALIB_FN(7, hal_spi, hal_spi_init, void(hal_spi_interface_t))
 23fb090:	b509      	push	{r0, r3, lr}
 23fb092:	4804      	ldr	r0, [pc, #16]	; (23fb0a4 <hal_spi_init+0x14>)
 23fb094:	6800      	ldr	r0, [r0, #0]
 23fb096:	4b04      	ldr	r3, [pc, #16]	; (23fb0a8 <hal_spi_init+0x18>)
 23fb098:	4403      	add	r3, r0
 23fb09a:	681b      	ldr	r3, [r3, #0]
 23fb09c:	69db      	ldr	r3, [r3, #28]
 23fb09e:	9302      	str	r3, [sp, #8]
 23fb0a0:	bd09      	pop	{r0, r3, pc}
 23fb0a2:	0000      	.short	0x0000
 23fb0a4:	1007ad3c 	.word	0x1007ad3c
 23fb0a8:	00000018 	.word	0x00000018

023fb0ac <hal_spi_is_enabled>:
DYNALIB_FN(8, hal_spi, hal_spi_is_enabled, bool(hal_spi_interface_t))
 23fb0ac:	b509      	push	{r0, r3, lr}
 23fb0ae:	4804      	ldr	r0, [pc, #16]	; (23fb0c0 <hal_spi_is_enabled+0x14>)
 23fb0b0:	6800      	ldr	r0, [r0, #0]
 23fb0b2:	4b04      	ldr	r3, [pc, #16]	; (23fb0c4 <hal_spi_is_enabled+0x18>)
 23fb0b4:	4403      	add	r3, r0
 23fb0b6:	681b      	ldr	r3, [r3, #0]
 23fb0b8:	6a1b      	ldr	r3, [r3, #32]
 23fb0ba:	9302      	str	r3, [sp, #8]
 23fb0bc:	bd09      	pop	{r0, r3, pc}
 23fb0be:	0000      	.short	0x0000
 23fb0c0:	1007ad3c 	.word	0x1007ad3c
 23fb0c4:	00000018 	.word	0x00000018

023fb0c8 <hal_spi_info>:
DYNALIB_FN(9, hal_spi, hal_spi_info, void(hal_spi_interface_t, hal_spi_info_t*, void*))
 23fb0c8:	b509      	push	{r0, r3, lr}
 23fb0ca:	4804      	ldr	r0, [pc, #16]	; (23fb0dc <hal_spi_info+0x14>)
 23fb0cc:	6800      	ldr	r0, [r0, #0]
 23fb0ce:	4b04      	ldr	r3, [pc, #16]	; (23fb0e0 <hal_spi_info+0x18>)
 23fb0d0:	4403      	add	r3, r0
 23fb0d2:	681b      	ldr	r3, [r3, #0]
 23fb0d4:	6a5b      	ldr	r3, [r3, #36]	; 0x24
 23fb0d6:	9302      	str	r3, [sp, #8]
 23fb0d8:	bd09      	pop	{r0, r3, pc}
 23fb0da:	0000      	.short	0x0000
 23fb0dc:	1007ad3c 	.word	0x1007ad3c
 23fb0e0:	00000018 	.word	0x00000018

023fb0e4 <hal_spi_acquire>:
DYNALIB_FN(12, hal_spi, hal_spi_set_callback_on_selected, void(hal_spi_interface_t, hal_spi_select_user_callback, void*))
DYNALIB_FN(13, hal_spi, hal_spi_transfer_dma_cancel, void(hal_spi_interface_t))
DYNALIB_FN(14, hal_spi, hal_spi_transfer_dma_status, int32_t(hal_spi_interface_t, hal_spi_transfer_status_t*))
DYNALIB_FN(15, hal_spi, hal_spi_set_settings, int32_t(hal_spi_interface_t, uint8_t, uint8_t, uint8_t, uint8_t, void*))
#if HAL_PLATFORM_SPI_HAL_THREAD_SAFETY
DYNALIB_FN(16, hal_spi, hal_spi_acquire, int32_t(hal_spi_interface_t, const hal_spi_acquire_config_t*))
 23fb0e4:	b509      	push	{r0, r3, lr}
 23fb0e6:	4804      	ldr	r0, [pc, #16]	; (23fb0f8 <hal_spi_acquire+0x14>)
 23fb0e8:	6800      	ldr	r0, [r0, #0]
 23fb0ea:	4b04      	ldr	r3, [pc, #16]	; (23fb0fc <hal_spi_acquire+0x18>)
 23fb0ec:	4403      	add	r3, r0
 23fb0ee:	681b      	ldr	r3, [r3, #0]
 23fb0f0:	6c1b      	ldr	r3, [r3, #64]	; 0x40
 23fb0f2:	9302      	str	r3, [sp, #8]
 23fb0f4:	bd09      	pop	{r0, r3, pc}
 23fb0f6:	0000      	.short	0x0000
 23fb0f8:	1007ad3c 	.word	0x1007ad3c
 23fb0fc:	00000018 	.word	0x00000018

023fb100 <hal_spi_release>:
DYNALIB_FN(17, hal_spi, hal_spi_release, int32_t(hal_spi_interface_t, void*))
 23fb100:	b509      	push	{r0, r3, lr}
 23fb102:	4804      	ldr	r0, [pc, #16]	; (23fb114 <hal_spi_release+0x14>)
 23fb104:	6800      	ldr	r0, [r0, #0]
 23fb106:	4b04      	ldr	r3, [pc, #16]	; (23fb118 <hal_spi_release+0x18>)
 23fb108:	4403      	add	r3, r0
 23fb10a:	681b      	ldr	r3, [r3, #0]
 23fb10c:	6c5b      	ldr	r3, [r3, #68]	; 0x44
 23fb10e:	9302      	str	r3, [sp, #8]
 23fb110:	bd09      	pop	{r0, r3, pc}
 23fb112:	0000      	.short	0x0000
 23fb114:	1007ad3c 	.word	0x1007ad3c
 23fb118:	00000018 	.word	0x00000018

023fb11c <HAL_USB_USART_Init>:
// GNINRAW

DYNALIB_BEGIN(hal_usb)

#ifdef USB_CDC_ENABLE
DYNALIB_FN(0, hal_usb, HAL_USB_USART_Init, void(HAL_USB_USART_Serial, const HAL_USB_USART_Config*))
 23fb11c:	b509      	push	{r0, r3, lr}
 23fb11e:	4804      	ldr	r0, [pc, #16]	; (23fb130 <HAL_USB_USART_Init+0x14>)
 23fb120:	6800      	ldr	r0, [r0, #0]
 23fb122:	4b04      	ldr	r3, [pc, #16]	; (23fb134 <HAL_USB_USART_Init+0x18>)
 23fb124:	4403      	add	r3, r0
 23fb126:	681b      	ldr	r3, [r3, #0]
 23fb128:	681b      	ldr	r3, [r3, #0]
 23fb12a:	9302      	str	r3, [sp, #8]
 23fb12c:	bd09      	pop	{r0, r3, pc}
 23fb12e:	0000      	.short	0x0000
 23fb130:	1007ad3c 	.word	0x1007ad3c
 23fb134:	00000034 	.word	0x00000034

023fb138 <HAL_USB_USART_Begin>:
DYNALIB_FN(1, hal_usb, HAL_USB_USART_Begin, void(HAL_USB_USART_Serial, uint32_t, void *))
 23fb138:	b509      	push	{r0, r3, lr}
 23fb13a:	4804      	ldr	r0, [pc, #16]	; (23fb14c <HAL_USB_USART_Begin+0x14>)
 23fb13c:	6800      	ldr	r0, [r0, #0]
 23fb13e:	4b04      	ldr	r3, [pc, #16]	; (23fb150 <HAL_USB_USART_Begin+0x18>)
 23fb140:	4403      	add	r3, r0
 23fb142:	681b      	ldr	r3, [r3, #0]
 23fb144:	685b      	ldr	r3, [r3, #4]
 23fb146:	9302      	str	r3, [sp, #8]
 23fb148:	bd09      	pop	{r0, r3, pc}
 23fb14a:	0000      	.short	0x0000
 23fb14c:	1007ad3c 	.word	0x1007ad3c
 23fb150:	00000034 	.word	0x00000034

023fb154 <HAL_USB_USART_End>:
DYNALIB_FN(2, hal_usb, HAL_USB_USART_End, void(HAL_USB_USART_Serial))
 23fb154:	b509      	push	{r0, r3, lr}
 23fb156:	4804      	ldr	r0, [pc, #16]	; (23fb168 <HAL_USB_USART_End+0x14>)
 23fb158:	6800      	ldr	r0, [r0, #0]
 23fb15a:	4b04      	ldr	r3, [pc, #16]	; (23fb16c <HAL_USB_USART_End+0x18>)
 23fb15c:	4403      	add	r3, r0
 23fb15e:	681b      	ldr	r3, [r3, #0]
 23fb160:	689b      	ldr	r3, [r3, #8]
 23fb162:	9302      	str	r3, [sp, #8]
 23fb164:	bd09      	pop	{r0, r3, pc}
 23fb166:	0000      	.short	0x0000
 23fb168:	1007ad3c 	.word	0x1007ad3c
 23fb16c:	00000034 	.word	0x00000034

023fb170 <HAL_USB_USART_Available_Data>:
DYNALIB_FN(3, hal_usb, HAL_USB_USART_Baud_Rate, unsigned int(HAL_USB_USART_Serial))
DYNALIB_FN(4, hal_usb, HAL_USB_USART_Available_Data, int32_t(HAL_USB_USART_Serial))
 23fb170:	b509      	push	{r0, r3, lr}
 23fb172:	4804      	ldr	r0, [pc, #16]	; (23fb184 <HAL_USB_USART_Available_Data+0x14>)
 23fb174:	6800      	ldr	r0, [r0, #0]
 23fb176:	4b04      	ldr	r3, [pc, #16]	; (23fb188 <HAL_USB_USART_Available_Data+0x18>)
 23fb178:	4403      	add	r3, r0
 23fb17a:	681b      	ldr	r3, [r3, #0]
 23fb17c:	691b      	ldr	r3, [r3, #16]
 23fb17e:	9302      	str	r3, [sp, #8]
 23fb180:	bd09      	pop	{r0, r3, pc}
 23fb182:	0000      	.short	0x0000
 23fb184:	1007ad3c 	.word	0x1007ad3c
 23fb188:	00000034 	.word	0x00000034

023fb18c <HAL_USB_USART_Available_Data_For_Write>:
DYNALIB_FN(5, hal_usb, HAL_USB_USART_Available_Data_For_Write, int32_t(HAL_USB_USART_Serial))
 23fb18c:	b509      	push	{r0, r3, lr}
 23fb18e:	4804      	ldr	r0, [pc, #16]	; (23fb1a0 <HAL_USB_USART_Available_Data_For_Write+0x14>)
 23fb190:	6800      	ldr	r0, [r0, #0]
 23fb192:	4b04      	ldr	r3, [pc, #16]	; (23fb1a4 <HAL_USB_USART_Available_Data_For_Write+0x18>)
 23fb194:	4403      	add	r3, r0
 23fb196:	681b      	ldr	r3, [r3, #0]
 23fb198:	695b      	ldr	r3, [r3, #20]
 23fb19a:	9302      	str	r3, [sp, #8]
 23fb19c:	bd09      	pop	{r0, r3, pc}
 23fb19e:	0000      	.short	0x0000
 23fb1a0:	1007ad3c 	.word	0x1007ad3c
 23fb1a4:	00000034 	.word	0x00000034

023fb1a8 <HAL_USB_USART_Receive_Data>:
DYNALIB_FN(6, hal_usb, HAL_USB_USART_Receive_Data, int32_t(HAL_USB_USART_Serial, uint8_t))
 23fb1a8:	b509      	push	{r0, r3, lr}
 23fb1aa:	4804      	ldr	r0, [pc, #16]	; (23fb1bc <HAL_USB_USART_Receive_Data+0x14>)
 23fb1ac:	6800      	ldr	r0, [r0, #0]
 23fb1ae:	4b04      	ldr	r3, [pc, #16]	; (23fb1c0 <HAL_USB_USART_Receive_Data+0x18>)
 23fb1b0:	4403      	add	r3, r0
 23fb1b2:	681b      	ldr	r3, [r3, #0]
 23fb1b4:	699b      	ldr	r3, [r3, #24]
 23fb1b6:	9302      	str	r3, [sp, #8]
 23fb1b8:	bd09      	pop	{r0, r3, pc}
 23fb1ba:	0000      	.short	0x0000
 23fb1bc:	1007ad3c 	.word	0x1007ad3c
 23fb1c0:	00000034 	.word	0x00000034

023fb1c4 <HAL_USB_USART_Send_Data>:
DYNALIB_FN(7, hal_usb, HAL_USB_USART_Send_Data, int32_t(HAL_USB_USART_Serial, uint8_t))
 23fb1c4:	b509      	push	{r0, r3, lr}
 23fb1c6:	4804      	ldr	r0, [pc, #16]	; (23fb1d8 <HAL_USB_USART_Send_Data+0x14>)
 23fb1c8:	6800      	ldr	r0, [r0, #0]
 23fb1ca:	4b04      	ldr	r3, [pc, #16]	; (23fb1dc <HAL_USB_USART_Send_Data+0x18>)
 23fb1cc:	4403      	add	r3, r0
 23fb1ce:	681b      	ldr	r3, [r3, #0]
 23fb1d0:	69db      	ldr	r3, [r3, #28]
 23fb1d2:	9302      	str	r3, [sp, #8]
 23fb1d4:	bd09      	pop	{r0, r3, pc}
 23fb1d6:	0000      	.short	0x0000
 23fb1d8:	1007ad3c 	.word	0x1007ad3c
 23fb1dc:	00000034 	.word	0x00000034

023fb1e0 <HAL_USB_USART_Flush_Data>:
DYNALIB_FN(8, hal_usb, HAL_USB_USART_Flush_Data, void(HAL_USB_USART_Serial))
 23fb1e0:	b509      	push	{r0, r3, lr}
 23fb1e2:	4804      	ldr	r0, [pc, #16]	; (23fb1f4 <HAL_USB_USART_Flush_Data+0x14>)
 23fb1e4:	6800      	ldr	r0, [r0, #0]
 23fb1e6:	4b04      	ldr	r3, [pc, #16]	; (23fb1f8 <HAL_USB_USART_Flush_Data+0x18>)
 23fb1e8:	4403      	add	r3, r0
 23fb1ea:	681b      	ldr	r3, [r3, #0]
 23fb1ec:	6a1b      	ldr	r3, [r3, #32]
 23fb1ee:	9302      	str	r3, [sp, #8]
 23fb1f0:	bd09      	pop	{r0, r3, pc}
 23fb1f2:	0000      	.short	0x0000
 23fb1f4:	1007ad3c 	.word	0x1007ad3c
 23fb1f8:	00000034 	.word	0x00000034

023fb1fc <HAL_USB_USART_Is_Connected>:
DYNALIB_FN(9, hal_usb, HAL_USB_USART_Is_Enabled, bool(HAL_USB_USART_Serial))
DYNALIB_FN(10, hal_usb, HAL_USB_USART_Is_Connected, bool(HAL_USB_USART_Serial))
 23fb1fc:	b509      	push	{r0, r3, lr}
 23fb1fe:	4804      	ldr	r0, [pc, #16]	; (23fb210 <HAL_USB_USART_Is_Connected+0x14>)
 23fb200:	6800      	ldr	r0, [r0, #0]
 23fb202:	4b04      	ldr	r3, [pc, #16]	; (23fb214 <HAL_USB_USART_Is_Connected+0x18>)
 23fb204:	4403      	add	r3, r0
 23fb206:	681b      	ldr	r3, [r3, #0]
 23fb208:	6a9b      	ldr	r3, [r3, #40]	; 0x28
 23fb20a:	9302      	str	r3, [sp, #8]
 23fb20c:	bd09      	pop	{r0, r3, pc}
 23fb20e:	0000      	.short	0x0000
 23fb210:	1007ad3c 	.word	0x1007ad3c
 23fb214:	00000034 	.word	0x00000034

023fb218 <panic_>:
DYNALIB_FN(9, services, LED_Toggle, void(Led_TypeDef))
DYNALIB_FN(10, services, LED_Fade, void(Led_TypeDef))
DYNALIB_FN(11, services, Get_LED_Brightness, uint8_t(void))

DYNALIB_FN(12, services, set_logger_output, void(debug_output_fn, LoggerOutputLevel)) // Deprecated
DYNALIB_FN(13, services, panic_, void(ePanicCode, void*, void(*)(uint32_t)))
 23fb218:	b509      	push	{r0, r3, lr}
 23fb21a:	4804      	ldr	r0, [pc, #16]	; (23fb22c <panic_+0x14>)
 23fb21c:	6800      	ldr	r0, [r0, #0]
 23fb21e:	4b04      	ldr	r3, [pc, #16]	; (23fb230 <panic_+0x18>)
 23fb220:	4403      	add	r3, r0
 23fb222:	681b      	ldr	r3, [r3, #0]
 23fb224:	6b5b      	ldr	r3, [r3, #52]	; 0x34
 23fb226:	9302      	str	r3, [sp, #8]
 23fb228:	bd09      	pop	{r0, r3, pc}
 23fb22a:	0000      	.short	0x0000
 23fb22c:	1007ad3c 	.word	0x1007ad3c
 23fb230:	00000048 	.word	0x00000048

023fb234 <log_message_v>:
DYNALIB_FN(17, services, LED_RGB_SetChangeHandler, void(led_update_handler_fn, void*))
DYNALIB_FN(18, services, log_print_direct_, void(int, void*, const char*, ...)) // Deprecated
DYNALIB_FN(19, services, LED_GetColor, uint32_t(uint32_t, void*))

DYNALIB_FN(20, services, log_message, void(int, const char*, LogAttributes*, void*, const char*, ...))
DYNALIB_FN(21, services, log_message_v, void(int, const char*, LogAttributes*, void*, const char*, va_list))
 23fb234:	b509      	push	{r0, r3, lr}
 23fb236:	4804      	ldr	r0, [pc, #16]	; (23fb248 <log_message_v+0x14>)
 23fb238:	6800      	ldr	r0, [r0, #0]
 23fb23a:	4b04      	ldr	r3, [pc, #16]	; (23fb24c <log_message_v+0x18>)
 23fb23c:	4403      	add	r3, r0
 23fb23e:	681b      	ldr	r3, [r3, #0]
 23fb240:	6d5b      	ldr	r3, [r3, #84]	; 0x54
 23fb242:	9302      	str	r3, [sp, #8]
 23fb244:	bd09      	pop	{r0, r3, pc}
 23fb246:	0000      	.short	0x0000
 23fb248:	1007ad3c 	.word	0x1007ad3c
 23fb24c:	00000048 	.word	0x00000048

023fb250 <log_level_name>:
DYNALIB_FN(22, services, log_write, void(int, const char*, const char*, size_t, void*))
DYNALIB_FN(23, services, log_printf, void(int, const char*, void*, const char*, ...))
DYNALIB_FN(24, services, log_printf_v, void(int, const char*, void*, const char*, va_list))
DYNALIB_FN(25, services, log_dump, void(int, const char*, const void*, size_t, int, void*))
DYNALIB_FN(26, services, log_enabled, int(int, const char*, void*))
DYNALIB_FN(27, services, log_level_name, const char*(int, void*))
 23fb250:	b509      	push	{r0, r3, lr}
 23fb252:	4804      	ldr	r0, [pc, #16]	; (23fb264 <log_level_name+0x14>)
 23fb254:	6800      	ldr	r0, [r0, #0]
 23fb256:	4b04      	ldr	r3, [pc, #16]	; (23fb268 <log_level_name+0x18>)
 23fb258:	4403      	add	r3, r0
 23fb25a:	681b      	ldr	r3, [r3, #0]
 23fb25c:	6edb      	ldr	r3, [r3, #108]	; 0x6c
 23fb25e:	9302      	str	r3, [sp, #8]
 23fb260:	bd09      	pop	{r0, r3, pc}
 23fb262:	0000      	.short	0x0000
 23fb264:	1007ad3c 	.word	0x1007ad3c
 23fb268:	00000048 	.word	0x00000048

023fb26c <log_set_callbacks>:
DYNALIB_FN(28, services, log_set_callbacks, void(log_message_callback_type, log_write_callback_type, log_enabled_callback_type, void*))
 23fb26c:	b509      	push	{r0, r3, lr}
 23fb26e:	4804      	ldr	r0, [pc, #16]	; (23fb280 <log_set_callbacks+0x14>)
 23fb270:	6800      	ldr	r0, [r0, #0]
 23fb272:	4b04      	ldr	r3, [pc, #16]	; (23fb284 <log_set_callbacks+0x18>)
 23fb274:	4403      	add	r3, r0
 23fb276:	681b      	ldr	r3, [r3, #0]
 23fb278:	6f1b      	ldr	r3, [r3, #112]	; 0x70
 23fb27a:	9302      	str	r3, [sp, #8]
 23fb27c:	bd09      	pop	{r0, r3, pc}
 23fb27e:	0000      	.short	0x0000
 23fb280:	1007ad3c 	.word	0x1007ad3c
 23fb284:	00000048 	.word	0x00000048

023fb288 <set_system_mode>:
#endif

DYNALIB_BEGIN(system)

DYNALIB_FN(0, system, system_mode, System_Mode_TypeDef(void))
DYNALIB_FN(1, system, set_system_mode, void(System_Mode_TypeDef))
 23fb288:	b509      	push	{r0, r3, lr}
 23fb28a:	4804      	ldr	r0, [pc, #16]	; (23fb29c <set_system_mode+0x14>)
 23fb28c:	6800      	ldr	r0, [r0, #0]
 23fb28e:	4b04      	ldr	r3, [pc, #16]	; (23fb2a0 <set_system_mode+0x18>)
 23fb290:	4403      	add	r3, r0
 23fb292:	681b      	ldr	r3, [r3, #0]
 23fb294:	685b      	ldr	r3, [r3, #4]
 23fb296:	9302      	str	r3, [sp, #8]
 23fb298:	bd09      	pop	{r0, r3, pc}
 23fb29a:	0000      	.short	0x0000
 23fb29c:	1007ad3c 	.word	0x1007ad3c
 23fb2a0:	00000008 	.word	0x00000008

023fb2a4 <system_delay_ms>:

DYNALIB_FN(2, system, set_ymodem_serial_flash_update_handler, void(ymodem_serial_flash_update_handler))
DYNALIB_FN(3, system, system_firmwareUpdate, bool(Stream*, void*))
DYNALIB_FN(4, system, system_fileTransfer, bool(system_file_transfer_t*, void*))

DYNALIB_FN(5, system, system_delay_ms, void(unsigned long, bool))
 23fb2a4:	b509      	push	{r0, r3, lr}
 23fb2a6:	4804      	ldr	r0, [pc, #16]	; (23fb2b8 <system_delay_ms+0x14>)
 23fb2a8:	6800      	ldr	r0, [r0, #0]
 23fb2aa:	4b04      	ldr	r3, [pc, #16]	; (23fb2bc <system_delay_ms+0x18>)
 23fb2ac:	4403      	add	r3, r0
 23fb2ae:	681b      	ldr	r3, [r3, #0]
 23fb2b0:	695b      	ldr	r3, [r3, #20]
 23fb2b2:	9302      	str	r3, [sp, #8]
 23fb2b4:	bd09      	pop	{r0, r3, pc}
 23fb2b6:	0000      	.short	0x0000
 23fb2b8:	1007ad3c 	.word	0x1007ad3c
 23fb2bc:	00000008 	.word	0x00000008

023fb2c0 <application_thread_current>:
DYNALIB_FN(15, system, system_get_flag, int(system_flag_t, uint8_t*, void*))
DYNALIB_FN(16, system, Spark_Prepare_For_Firmware_Update, int(FileTransfer::Descriptor&, uint32_t, void*))
DYNALIB_FN(17, system, Spark_Save_Firmware_Chunk, int(FileTransfer::Descriptor&, const uint8_t*, void*))
DYNALIB_FN(18, system, Spark_Finish_Firmware_Update, int(FileTransfer::Descriptor&, uint32_t, void*))

DYNALIB_FN(19, system, application_thread_current, uint8_t(void*))
 23fb2c0:	b509      	push	{r0, r3, lr}
 23fb2c2:	4804      	ldr	r0, [pc, #16]	; (23fb2d4 <application_thread_current+0x14>)
 23fb2c4:	6800      	ldr	r0, [r0, #0]
 23fb2c6:	4b04      	ldr	r3, [pc, #16]	; (23fb2d8 <application_thread_current+0x18>)
 23fb2c8:	4403      	add	r3, r0
 23fb2ca:	681b      	ldr	r3, [r3, #0]
 23fb2cc:	6cdb      	ldr	r3, [r3, #76]	; 0x4c
 23fb2ce:	9302      	str	r3, [sp, #8]
 23fb2d0:	bd09      	pop	{r0, r3, pc}
 23fb2d2:	0000      	.short	0x0000
 23fb2d4:	1007ad3c 	.word	0x1007ad3c
 23fb2d8:	00000008 	.word	0x00000008

023fb2dc <application_thread_invoke>:
DYNALIB_FN(20, system, system_thread_current, uint8_t(void*))
DYNALIB_FN(21, system, application_thread_invoke, uint8_t(void(*)(void*), void*, void*))
 23fb2dc:	b509      	push	{r0, r3, lr}
 23fb2de:	4804      	ldr	r0, [pc, #16]	; (23fb2f0 <application_thread_invoke+0x14>)
 23fb2e0:	6800      	ldr	r0, [r0, #0]
 23fb2e2:	4b04      	ldr	r3, [pc, #16]	; (23fb2f4 <application_thread_invoke+0x18>)
 23fb2e4:	4403      	add	r3, r0
 23fb2e6:	681b      	ldr	r3, [r3, #0]
 23fb2e8:	6d5b      	ldr	r3, [r3, #84]	; 0x54
 23fb2ea:	9302      	str	r3, [sp, #8]
 23fb2ec:	bd09      	pop	{r0, r3, pc}
 23fb2ee:	0000      	.short	0x0000
 23fb2f0:	1007ad3c 	.word	0x1007ad3c
 23fb2f4:	00000008 	.word	0x00000008

023fb2f8 <system_ctrl_set_app_request_handler>:
DYNALIB_FN(BASE_IDX + 6, system, led_pattern_period, uint16_t(int, int, void*))
DYNALIB_FN(BASE_IDX + 7, system, system_set_tester_handlers, int(system_tester_handlers_t*, void*))
DYNALIB_FN(BASE_IDX + 8, system, system_format_diag_data, int(const uint16_t*, size_t, unsigned, appender_fn, void*, void*))

// Control requests
DYNALIB_FN(BASE_IDX + 9, system, system_ctrl_set_app_request_handler, int(ctrl_request_handler_fn, void*))
 23fb2f8:	b509      	push	{r0, r3, lr}
 23fb2fa:	4804      	ldr	r0, [pc, #16]	; (23fb30c <system_ctrl_set_app_request_handler+0x14>)
 23fb2fc:	6800      	ldr	r0, [r0, #0]
 23fb2fe:	4b04      	ldr	r3, [pc, #16]	; (23fb310 <system_ctrl_set_app_request_handler+0x18>)
 23fb300:	4403      	add	r3, r0
 23fb302:	681b      	ldr	r3, [r3, #0]
 23fb304:	f8d3 3088 	ldr.w	r3, [r3, #136]	; 0x88
 23fb308:	9302      	str	r3, [sp, #8]
 23fb30a:	bd09      	pop	{r0, r3, pc}
 23fb30c:	1007ad3c 	.word	0x1007ad3c
 23fb310:	00000008 	.word	0x00000008

023fb314 <system_ctrl_set_result>:
DYNALIB_FN(BASE_IDX + 10, system, system_ctrl_alloc_reply_data, int(ctrl_request*, size_t, void*))
DYNALIB_FN(BASE_IDX + 11, system, system_ctrl_free_request_data, void(ctrl_request*, void*))
DYNALIB_FN(BASE_IDX + 12, system, system_ctrl_set_result, void(ctrl_request*, int, ctrl_completion_handler_fn, void*, void*))
 23fb314:	b509      	push	{r0, r3, lr}
 23fb316:	4804      	ldr	r0, [pc, #16]	; (23fb328 <system_ctrl_set_result+0x14>)
 23fb318:	6800      	ldr	r0, [r0, #0]
 23fb31a:	4b04      	ldr	r3, [pc, #16]	; (23fb32c <system_ctrl_set_result+0x18>)
 23fb31c:	4403      	add	r3, r0
 23fb31e:	681b      	ldr	r3, [r3, #0]
 23fb320:	f8d3 3094 	ldr.w	r3, [r3, #148]	; 0x94
 23fb324:	9302      	str	r3, [sp, #8]
 23fb326:	bd09      	pop	{r0, r3, pc}
 23fb328:	1007ad3c 	.word	0x1007ad3c
 23fb32c:	00000008 	.word	0x00000008

023fb330 <network_connect>:
#endif

DYNALIB_BEGIN(system_net)

DYNALIB_FN(0, system_net, network_config, const void*(network_handle_t, uint32_t, void*))
DYNALIB_FN(1, system_net, network_connect, void(network_handle_t, uint32_t, uint32_t, void*))
 23fb330:	b509      	push	{r0, r3, lr}
 23fb332:	4804      	ldr	r0, [pc, #16]	; (23fb344 <network_connect+0x14>)
 23fb334:	6800      	ldr	r0, [r0, #0]
 23fb336:	4b04      	ldr	r3, [pc, #16]	; (23fb348 <network_connect+0x18>)
 23fb338:	4403      	add	r3, r0
 23fb33a:	681b      	ldr	r3, [r3, #0]
 23fb33c:	685b      	ldr	r3, [r3, #4]
 23fb33e:	9302      	str	r3, [sp, #8]
 23fb340:	bd09      	pop	{r0, r3, pc}
 23fb342:	0000      	.short	0x0000
 23fb344:	1007ad3c 	.word	0x1007ad3c
 23fb348:	00000028 	.word	0x00000028

023fb34c <network_connecting>:
DYNALIB_FN(2, system_net, network_connecting, bool(network_handle_t, uint32_t, void*))
 23fb34c:	b509      	push	{r0, r3, lr}
 23fb34e:	4804      	ldr	r0, [pc, #16]	; (23fb360 <network_connecting+0x14>)
 23fb350:	6800      	ldr	r0, [r0, #0]
 23fb352:	4b04      	ldr	r3, [pc, #16]	; (23fb364 <network_connecting+0x18>)
 23fb354:	4403      	add	r3, r0
 23fb356:	681b      	ldr	r3, [r3, #0]
 23fb358:	689b      	ldr	r3, [r3, #8]
 23fb35a:	9302      	str	r3, [sp, #8]
 23fb35c:	bd09      	pop	{r0, r3, pc}
 23fb35e:	0000      	.short	0x0000
 23fb360:	1007ad3c 	.word	0x1007ad3c
 23fb364:	00000028 	.word	0x00000028

023fb368 <network_disconnect>:
DYNALIB_FN(3, system_net, network_disconnect, void(network_handle_t, uint32_t, void*))
 23fb368:	b509      	push	{r0, r3, lr}
 23fb36a:	4804      	ldr	r0, [pc, #16]	; (23fb37c <network_disconnect+0x14>)
 23fb36c:	6800      	ldr	r0, [r0, #0]
 23fb36e:	4b04      	ldr	r3, [pc, #16]	; (23fb380 <network_disconnect+0x18>)
 23fb370:	4403      	add	r3, r0
 23fb372:	681b      	ldr	r3, [r3, #0]
 23fb374:	68db      	ldr	r3, [r3, #12]
 23fb376:	9302      	str	r3, [sp, #8]
 23fb378:	bd09      	pop	{r0, r3, pc}
 23fb37a:	0000      	.short	0x0000
 23fb37c:	1007ad3c 	.word	0x1007ad3c
 23fb380:	00000028 	.word	0x00000028

023fb384 <network_ready>:
DYNALIB_FN(4, system_net, network_ready, bool(network_handle_t, uint32_t, void*))
 23fb384:	b509      	push	{r0, r3, lr}
 23fb386:	4804      	ldr	r0, [pc, #16]	; (23fb398 <network_ready+0x14>)
 23fb388:	6800      	ldr	r0, [r0, #0]
 23fb38a:	4b04      	ldr	r3, [pc, #16]	; (23fb39c <network_ready+0x18>)
 23fb38c:	4403      	add	r3, r0
 23fb38e:	681b      	ldr	r3, [r3, #0]
 23fb390:	691b      	ldr	r3, [r3, #16]
 23fb392:	9302      	str	r3, [sp, #8]
 23fb394:	bd09      	pop	{r0, r3, pc}
 23fb396:	0000      	.short	0x0000
 23fb398:	1007ad3c 	.word	0x1007ad3c
 23fb39c:	00000028 	.word	0x00000028

023fb3a0 <network_on>:
DYNALIB_FN(5, system_net, network_on, void(network_handle_t, uint32_t, uint32_t, void*))
 23fb3a0:	b509      	push	{r0, r3, lr}
 23fb3a2:	4804      	ldr	r0, [pc, #16]	; (23fb3b4 <network_on+0x14>)
 23fb3a4:	6800      	ldr	r0, [r0, #0]
 23fb3a6:	4b04      	ldr	r3, [pc, #16]	; (23fb3b8 <network_on+0x18>)
 23fb3a8:	4403      	add	r3, r0
 23fb3aa:	681b      	ldr	r3, [r3, #0]
 23fb3ac:	695b      	ldr	r3, [r3, #20]
 23fb3ae:	9302      	str	r3, [sp, #8]
 23fb3b0:	bd09      	pop	{r0, r3, pc}
 23fb3b2:	0000      	.short	0x0000
 23fb3b4:	1007ad3c 	.word	0x1007ad3c
 23fb3b8:	00000028 	.word	0x00000028

023fb3bc <network_off>:
DYNALIB_FN(6, system_net, network_off, void(network_handle_t, uint32_t, uint32_t, void*))
 23fb3bc:	b509      	push	{r0, r3, lr}
 23fb3be:	4804      	ldr	r0, [pc, #16]	; (23fb3d0 <network_off+0x14>)
 23fb3c0:	6800      	ldr	r0, [r0, #0]
 23fb3c2:	4b04      	ldr	r3, [pc, #16]	; (23fb3d4 <network_off+0x18>)
 23fb3c4:	4403      	add	r3, r0
 23fb3c6:	681b      	ldr	r3, [r3, #0]
 23fb3c8:	699b      	ldr	r3, [r3, #24]
 23fb3ca:	9302      	str	r3, [sp, #8]
 23fb3cc:	bd09      	pop	{r0, r3, pc}
 23fb3ce:	0000      	.short	0x0000
 23fb3d0:	1007ad3c 	.word	0x1007ad3c
 23fb3d4:	00000028 	.word	0x00000028

023fb3d8 <network_listen>:
DYNALIB_FN(7, system_net, network_listen, void(network_handle_t, uint32_t, void*))
 23fb3d8:	b509      	push	{r0, r3, lr}
 23fb3da:	4804      	ldr	r0, [pc, #16]	; (23fb3ec <network_listen+0x14>)
 23fb3dc:	6800      	ldr	r0, [r0, #0]
 23fb3de:	4b04      	ldr	r3, [pc, #16]	; (23fb3f0 <network_listen+0x18>)
 23fb3e0:	4403      	add	r3, r0
 23fb3e2:	681b      	ldr	r3, [r3, #0]
 23fb3e4:	69db      	ldr	r3, [r3, #28]
 23fb3e6:	9302      	str	r3, [sp, #8]
 23fb3e8:	bd09      	pop	{r0, r3, pc}
 23fb3ea:	0000      	.short	0x0000
 23fb3ec:	1007ad3c 	.word	0x1007ad3c
 23fb3f0:	00000028 	.word	0x00000028

023fb3f4 <network_listening>:
DYNALIB_FN(8, system_net, network_listening, bool(network_handle_t, uint32_t, void*))
 23fb3f4:	b509      	push	{r0, r3, lr}
 23fb3f6:	4804      	ldr	r0, [pc, #16]	; (23fb408 <network_listening+0x14>)
 23fb3f8:	6800      	ldr	r0, [r0, #0]
 23fb3fa:	4b04      	ldr	r3, [pc, #16]	; (23fb40c <network_listening+0x18>)
 23fb3fc:	4403      	add	r3, r0
 23fb3fe:	681b      	ldr	r3, [r3, #0]
 23fb400:	6a1b      	ldr	r3, [r3, #32]
 23fb402:	9302      	str	r3, [sp, #8]
 23fb404:	bd09      	pop	{r0, r3, pc}
 23fb406:	0000      	.short	0x0000
 23fb408:	1007ad3c 	.word	0x1007ad3c
 23fb40c:	00000028 	.word	0x00000028

023fb410 <network_set_listen_timeout>:
DYNALIB_FN(9, system_net, network_has_credentials, bool(network_handle_t, uint32_t, void*))
DYNALIB_FN(10, system_net, network_set_credentials, int(network_handle_t, uint32_t, NetworkCredentials*, void*))
DYNALIB_FN(11, system_net, network_clear_credentials, bool(network_handle_t, uint32_t, NetworkCredentials*, void*))
DYNALIB_FN(12, system_net, network_set_listen_timeout, void(network_handle_t, uint16_t, void*))
 23fb410:	b509      	push	{r0, r3, lr}
 23fb412:	4804      	ldr	r0, [pc, #16]	; (23fb424 <network_set_listen_timeout+0x14>)
 23fb414:	6800      	ldr	r0, [r0, #0]
 23fb416:	4b04      	ldr	r3, [pc, #16]	; (23fb428 <network_set_listen_timeout+0x18>)
 23fb418:	4403      	add	r3, r0
 23fb41a:	681b      	ldr	r3, [r3, #0]
 23fb41c:	6b1b      	ldr	r3, [r3, #48]	; 0x30
 23fb41e:	9302      	str	r3, [sp, #8]
 23fb420:	bd09      	pop	{r0, r3, pc}
 23fb422:	0000      	.short	0x0000
 23fb424:	1007ad3c 	.word	0x1007ad3c
 23fb428:	00000028 	.word	0x00000028

023fb42c <network_get_listen_timeout>:
DYNALIB_FN(13, system_net, network_get_listen_timeout, uint16_t(network_handle_t, uint32_t, void*))
 23fb42c:	b509      	push	{r0, r3, lr}
 23fb42e:	4804      	ldr	r0, [pc, #16]	; (23fb440 <network_get_listen_timeout+0x14>)
 23fb430:	6800      	ldr	r0, [r0, #0]
 23fb432:	4b04      	ldr	r3, [pc, #16]	; (23fb444 <network_get_listen_timeout+0x18>)
 23fb434:	4403      	add	r3, r0
 23fb436:	681b      	ldr	r3, [r3, #0]
 23fb438:	6b5b      	ldr	r3, [r3, #52]	; 0x34
 23fb43a:	9302      	str	r3, [sp, #8]
 23fb43c:	bd09      	pop	{r0, r3, pc}
 23fb43e:	0000      	.short	0x0000
 23fb440:	1007ad3c 	.word	0x1007ad3c
 23fb444:	00000028 	.word	0x00000028

023fb448 <network_is_on>:
DYNALIB_FN(14, system_net, network_set_hostname, int(network_handle_t, uint32_t, const char*, void*))
DYNALIB_FN(15, system_net, network_get_hostname, int(network_handle_t, uint32_t, char*, size_t, void*))
DYNALIB_FN(16, system_net, network_is_on, bool(network_handle_t, void*))
 23fb448:	b509      	push	{r0, r3, lr}
 23fb44a:	4804      	ldr	r0, [pc, #16]	; (23fb45c <network_is_on+0x14>)
 23fb44c:	6800      	ldr	r0, [r0, #0]
 23fb44e:	4b04      	ldr	r3, [pc, #16]	; (23fb460 <network_is_on+0x18>)
 23fb450:	4403      	add	r3, r0
 23fb452:	681b      	ldr	r3, [r3, #0]
 23fb454:	6c1b      	ldr	r3, [r3, #64]	; 0x40
 23fb456:	9302      	str	r3, [sp, #8]
 23fb458:	bd09      	pop	{r0, r3, pc}
 23fb45a:	0000      	.short	0x0000
 23fb45c:	1007ad3c 	.word	0x1007ad3c
 23fb460:	00000028 	.word	0x00000028

023fb464 <network_is_off>:
DYNALIB_FN(17, system_net, network_is_off, bool(network_handle_t, void*))
 23fb464:	b509      	push	{r0, r3, lr}
 23fb466:	4804      	ldr	r0, [pc, #16]	; (23fb478 <network_is_off+0x14>)
 23fb468:	6800      	ldr	r0, [r0, #0]
 23fb46a:	4b04      	ldr	r3, [pc, #16]	; (23fb47c <network_is_off+0x18>)
 23fb46c:	4403      	add	r3, r0
 23fb46e:	681b      	ldr	r3, [r3, #0]
 23fb470:	6c5b      	ldr	r3, [r3, #68]	; 0x44
 23fb472:	9302      	str	r3, [sp, #8]
 23fb474:	bd09      	pop	{r0, r3, pc}
 23fb476:	0000      	.short	0x0000
 23fb478:	1007ad3c 	.word	0x1007ad3c
 23fb47c:	00000028 	.word	0x00000028

023fb480 <spark_process>:

DYNALIB_BEGIN(system_cloud)

DYNALIB_FN(0, system_cloud, spark_variable, bool(const char*, const void*, Spark_Data_TypeDef, spark_variable_t*))
DYNALIB_FN(1, system_cloud, spark_function, bool(const char*, p_user_function_int_str_t, void*))
DYNALIB_FN(2, system_cloud, spark_process, bool(void))
 23fb480:	b509      	push	{r0, r3, lr}
 23fb482:	4804      	ldr	r0, [pc, #16]	; (23fb494 <spark_process+0x14>)
 23fb484:	6800      	ldr	r0, [r0, #0]
 23fb486:	4b04      	ldr	r3, [pc, #16]	; (23fb498 <spark_process+0x18>)
 23fb488:	4403      	add	r3, r0
 23fb48a:	681b      	ldr	r3, [r3, #0]
 23fb48c:	689b      	ldr	r3, [r3, #8]
 23fb48e:	9302      	str	r3, [sp, #8]
 23fb490:	bd09      	pop	{r0, r3, pc}
 23fb492:	0000      	.short	0x0000
 23fb494:	1007ad3c 	.word	0x1007ad3c
 23fb498:	0000002c 	.word	0x0000002c

023fb49c <spark_cloud_flag_connected>:
DYNALIB_FN(3, system_cloud, spark_cloud_flag_connect, void(void))
DYNALIB_FN(4, system_cloud, spark_cloud_flag_disconnect, void(void))
DYNALIB_FN(5, system_cloud, spark_cloud_flag_connected, bool(void))
 23fb49c:	b509      	push	{r0, r3, lr}
 23fb49e:	4804      	ldr	r0, [pc, #16]	; (23fb4b0 <spark_cloud_flag_connected+0x14>)
 23fb4a0:	6800      	ldr	r0, [r0, #0]
 23fb4a2:	4b04      	ldr	r3, [pc, #16]	; (23fb4b4 <spark_cloud_flag_connected+0x18>)
 23fb4a4:	4403      	add	r3, r0
 23fb4a6:	681b      	ldr	r3, [r3, #0]
 23fb4a8:	695b      	ldr	r3, [r3, #20]
 23fb4aa:	9302      	str	r3, [sp, #8]
 23fb4ac:	bd09      	pop	{r0, r3, pc}
 23fb4ae:	0000      	.short	0x0000
 23fb4b0:	1007ad3c 	.word	0x1007ad3c
 23fb4b4:	0000002c 	.word	0x0000002c

023fb4b8 <spark_send_event>:
DYNALIB_FN(6, system_cloud, system_cloud_protocol_instance, ProtocolFacade*(void))
DYNALIB_FN(7, system_cloud, spark_deviceID, String(void))
DYNALIB_FN(8, system_cloud, spark_send_event, bool(const char*, const char*, int, uint32_t, void*))
 23fb4b8:	b509      	push	{r0, r3, lr}
 23fb4ba:	4804      	ldr	r0, [pc, #16]	; (23fb4cc <spark_send_event+0x14>)
 23fb4bc:	6800      	ldr	r0, [r0, #0]
 23fb4be:	4b04      	ldr	r3, [pc, #16]	; (23fb4d0 <spark_send_event+0x18>)
 23fb4c0:	4403      	add	r3, r0
 23fb4c2:	681b      	ldr	r3, [r3, #0]
 23fb4c4:	6a1b      	ldr	r3, [r3, #32]
 23fb4c6:	9302      	str	r3, [sp, #8]
 23fb4c8:	bd09      	pop	{r0, r3, pc}
 23fb4ca:	0000      	.short	0x0000
 23fb4cc:	1007ad3c 	.word	0x1007ad3c
 23fb4d0:	0000002c 	.word	0x0000002c

023fb4d4 <spark_set_random_seed_from_cloud_handler>:
DYNALIB_FN(10, system_cloud, spark_unsubscribe, void(void*))
DYNALIB_FN(11, system_cloud, spark_sync_time, bool(void*))
DYNALIB_FN(12, system_cloud, spark_sync_time_pending, bool(void*))
DYNALIB_FN(13, system_cloud, spark_sync_time_last, system_tick_t(time32_t*, time_t*))
DYNALIB_FN(14, system_cloud, spark_set_connection_property, int(unsigned, unsigned, const void*, void*))
DYNALIB_FN(15, system_cloud, spark_set_random_seed_from_cloud_handler, int(void (*handler)(unsigned int), void*))
 23fb4d4:	b509      	push	{r0, r3, lr}
 23fb4d6:	4804      	ldr	r0, [pc, #16]	; (23fb4e8 <spark_set_random_seed_from_cloud_handler+0x14>)
 23fb4d8:	6800      	ldr	r0, [r0, #0]
 23fb4da:	4b04      	ldr	r3, [pc, #16]	; (23fb4ec <spark_set_random_seed_from_cloud_handler+0x18>)
 23fb4dc:	4403      	add	r3, r0
 23fb4de:	681b      	ldr	r3, [r3, #0]
 23fb4e0:	6bdb      	ldr	r3, [r3, #60]	; 0x3c
 23fb4e2:	9302      	str	r3, [sp, #8]
 23fb4e4:	bd09      	pop	{r0, r3, pc}
 23fb4e6:	0000      	.short	0x0000
 23fb4e8:	1007ad3c 	.word	0x1007ad3c
 23fb4ec:	0000002c 	.word	0x0000002c

023fb4f0 <asset_manager_get_info>:
#endif // DYNALIB_EXPORT

DYNALIB_BEGIN(system_asset_manager)

DYNALIB_FN(0, system_asset_manager, asset_manager_set_notify_hook, int(asset_manager_notify_hook, void*, void*))
DYNALIB_FN(1, system_asset_manager, asset_manager_get_info, int(asset_manager_info*, void*))
 23fb4f0:	b509      	push	{r0, r3, lr}
 23fb4f2:	4804      	ldr	r0, [pc, #16]	; (23fb504 <asset_manager_get_info+0x14>)
 23fb4f4:	6800      	ldr	r0, [r0, #0]
 23fb4f6:	4b04      	ldr	r3, [pc, #16]	; (23fb508 <asset_manager_get_info+0x18>)
 23fb4f8:	4403      	add	r3, r0
 23fb4fa:	681b      	ldr	r3, [r3, #0]
 23fb4fc:	685b      	ldr	r3, [r3, #4]
 23fb4fe:	9302      	str	r3, [sp, #8]
 23fb500:	bd09      	pop	{r0, r3, pc}
 23fb502:	0000      	.short	0x0000
 23fb504:	1007ad3c 	.word	0x1007ad3c
 23fb508:	00000074 	.word	0x00000074

023fb50c <asset_manager_free_info>:
DYNALIB_FN(2, system_asset_manager, asset_manager_free_info, void(asset_manager_info*, void*))
 23fb50c:	b509      	push	{r0, r3, lr}
 23fb50e:	4804      	ldr	r0, [pc, #16]	; (23fb520 <asset_manager_free_info+0x14>)
 23fb510:	6800      	ldr	r0, [r0, #0]
 23fb512:	4b04      	ldr	r3, [pc, #16]	; (23fb524 <asset_manager_free_info+0x18>)
 23fb514:	4403      	add	r3, r0
 23fb516:	681b      	ldr	r3, [r3, #0]
 23fb518:	689b      	ldr	r3, [r3, #8]
 23fb51a:	9302      	str	r3, [sp, #8]
 23fb51c:	bd09      	pop	{r0, r3, pc}
 23fb51e:	0000      	.short	0x0000
 23fb520:	1007ad3c 	.word	0x1007ad3c
 23fb524:	00000074 	.word	0x00000074

023fb528 <asset_manager_set_consumer_state>:
DYNALIB_FN(3, system_asset_manager, asset_manager_set_consumer_state, int(asset_manager_consumer_state, void*))
 23fb528:	b509      	push	{r0, r3, lr}
 23fb52a:	4804      	ldr	r0, [pc, #16]	; (23fb53c <asset_manager_set_consumer_state+0x14>)
 23fb52c:	6800      	ldr	r0, [r0, #0]
 23fb52e:	4b04      	ldr	r3, [pc, #16]	; (23fb540 <asset_manager_set_consumer_state+0x18>)
 23fb530:	4403      	add	r3, r0
 23fb532:	681b      	ldr	r3, [r3, #0]
 23fb534:	68db      	ldr	r3, [r3, #12]
 23fb536:	9302      	str	r3, [sp, #8]
 23fb538:	bd09      	pop	{r0, r3, pc}
 23fb53a:	0000      	.short	0x0000
 23fb53c:	1007ad3c 	.word	0x1007ad3c
 23fb540:	00000074 	.word	0x00000074

023fb544 <asset_manager_open>:
DYNALIB_FN(4, system_asset_manager, asset_manager_open, int(asset_manager_stream**, const asset_manager_asset*, void*))
 23fb544:	b509      	push	{r0, r3, lr}
 23fb546:	4804      	ldr	r0, [pc, #16]	; (23fb558 <asset_manager_open+0x14>)
 23fb548:	6800      	ldr	r0, [r0, #0]
 23fb54a:	4b04      	ldr	r3, [pc, #16]	; (23fb55c <asset_manager_open+0x18>)
 23fb54c:	4403      	add	r3, r0
 23fb54e:	681b      	ldr	r3, [r3, #0]
 23fb550:	691b      	ldr	r3, [r3, #16]
 23fb552:	9302      	str	r3, [sp, #8]
 23fb554:	bd09      	pop	{r0, r3, pc}
 23fb556:	0000      	.short	0x0000
 23fb558:	1007ad3c 	.word	0x1007ad3c
 23fb55c:	00000074 	.word	0x00000074

023fb560 <asset_manager_available>:
DYNALIB_FN(5, system_asset_manager, asset_manager_available, int(asset_manager_stream*, void*))
 23fb560:	b509      	push	{r0, r3, lr}
 23fb562:	4804      	ldr	r0, [pc, #16]	; (23fb574 <asset_manager_available+0x14>)
 23fb564:	6800      	ldr	r0, [r0, #0]
 23fb566:	4b04      	ldr	r3, [pc, #16]	; (23fb578 <asset_manager_available+0x18>)
 23fb568:	4403      	add	r3, r0
 23fb56a:	681b      	ldr	r3, [r3, #0]
 23fb56c:	695b      	ldr	r3, [r3, #20]
 23fb56e:	9302      	str	r3, [sp, #8]
 23fb570:	bd09      	pop	{r0, r3, pc}
 23fb572:	0000      	.short	0x0000
 23fb574:	1007ad3c 	.word	0x1007ad3c
 23fb578:	00000074 	.word	0x00000074

023fb57c <asset_manager_read>:
DYNALIB_FN(6, system_asset_manager, asset_manager_read, int(asset_manager_stream*, char*, size_t, void*))
 23fb57c:	b509      	push	{r0, r3, lr}
 23fb57e:	4804      	ldr	r0, [pc, #16]	; (23fb590 <asset_manager_read+0x14>)
 23fb580:	6800      	ldr	r0, [r0, #0]
 23fb582:	4b04      	ldr	r3, [pc, #16]	; (23fb594 <asset_manager_read+0x18>)
 23fb584:	4403      	add	r3, r0
 23fb586:	681b      	ldr	r3, [r3, #0]
 23fb588:	699b      	ldr	r3, [r3, #24]
 23fb58a:	9302      	str	r3, [sp, #8]
 23fb58c:	bd09      	pop	{r0, r3, pc}
 23fb58e:	0000      	.short	0x0000
 23fb590:	1007ad3c 	.word	0x1007ad3c
 23fb594:	00000074 	.word	0x00000074

023fb598 <asset_manager_peek>:
DYNALIB_FN(7, system_asset_manager, asset_manager_peek, int(asset_manager_stream*, char*, size_t, void*))
 23fb598:	b509      	push	{r0, r3, lr}
 23fb59a:	4804      	ldr	r0, [pc, #16]	; (23fb5ac <asset_manager_peek+0x14>)
 23fb59c:	6800      	ldr	r0, [r0, #0]
 23fb59e:	4b04      	ldr	r3, [pc, #16]	; (23fb5b0 <asset_manager_peek+0x18>)
 23fb5a0:	4403      	add	r3, r0
 23fb5a2:	681b      	ldr	r3, [r3, #0]
 23fb5a4:	69db      	ldr	r3, [r3, #28]
 23fb5a6:	9302      	str	r3, [sp, #8]
 23fb5a8:	bd09      	pop	{r0, r3, pc}
 23fb5aa:	0000      	.short	0x0000
 23fb5ac:	1007ad3c 	.word	0x1007ad3c
 23fb5b0:	00000074 	.word	0x00000074

023fb5b4 <asset_manager_skip>:
DYNALIB_FN(8, system_asset_manager, asset_manager_skip, int(asset_manager_stream*, size_t, void*))
 23fb5b4:	b509      	push	{r0, r3, lr}
 23fb5b6:	4804      	ldr	r0, [pc, #16]	; (23fb5c8 <asset_manager_skip+0x14>)
 23fb5b8:	6800      	ldr	r0, [r0, #0]
 23fb5ba:	4b04      	ldr	r3, [pc, #16]	; (23fb5cc <asset_manager_skip+0x18>)
 23fb5bc:	4403      	add	r3, r0
 23fb5be:	681b      	ldr	r3, [r3, #0]
 23fb5c0:	6a1b      	ldr	r3, [r3, #32]
 23fb5c2:	9302      	str	r3, [sp, #8]
 23fb5c4:	bd09      	pop	{r0, r3, pc}
 23fb5c6:	0000      	.short	0x0000
 23fb5c8:	1007ad3c 	.word	0x1007ad3c
 23fb5cc:	00000074 	.word	0x00000074

023fb5d0 <asset_manager_close>:
DYNALIB_FN(9, system_asset_manager, asset_manager_seek, int(asset_manager_stream*, size_t, void*))
DYNALIB_FN(10, system_asset_manager, asset_manager_close, void(asset_manager_stream*, void*))
 23fb5d0:	b509      	push	{r0, r3, lr}
 23fb5d2:	4804      	ldr	r0, [pc, #16]	; (23fb5e4 <asset_manager_close+0x14>)
 23fb5d4:	6800      	ldr	r0, [r0, #0]
 23fb5d6:	4b04      	ldr	r3, [pc, #16]	; (23fb5e8 <asset_manager_close+0x18>)
 23fb5d8:	4403      	add	r3, r0
 23fb5da:	681b      	ldr	r3, [r3, #0]
 23fb5dc:	6a9b      	ldr	r3, [r3, #40]	; 0x28
 23fb5de:	9302      	str	r3, [sp, #8]
 23fb5e0:	bd09      	pop	{r0, r3, pc}
 23fb5e2:	0000      	.short	0x0000
 23fb5e4:	1007ad3c 	.word	0x1007ad3c
 23fb5e8:	00000074 	.word	0x00000074

023fb5ec <malloc>:
#include "hal_platform.h"
#endif // defined(DYNALIB_EXPORT) || (defined(DYNALIB_IMPORT) && !defined(RT_DYNALIB_NO_DEPENDENCY_BREAKING_IMPORTS))

DYNALIB_BEGIN(rt)

DYNALIB_FN(0, rt, malloc, void*(size_t))
 23fb5ec:	b509      	push	{r0, r3, lr}
 23fb5ee:	4804      	ldr	r0, [pc, #16]	; (23fb600 <malloc+0x14>)
 23fb5f0:	6800      	ldr	r0, [r0, #0]
 23fb5f2:	4b04      	ldr	r3, [pc, #16]	; (23fb604 <malloc+0x18>)
 23fb5f4:	4403      	add	r3, r0
 23fb5f6:	681b      	ldr	r3, [r3, #0]
 23fb5f8:	681b      	ldr	r3, [r3, #0]
 23fb5fa:	9302      	str	r3, [sp, #8]
 23fb5fc:	bd09      	pop	{r0, r3, pc}
 23fb5fe:	0000      	.short	0x0000
 23fb600:	1007ad3c 	.word	0x1007ad3c
 23fb604:	00000004 	.word	0x00000004

023fb608 <free>:
DYNALIB_FN(1, rt, free, void(void*))
 23fb608:	b509      	push	{r0, r3, lr}
 23fb60a:	4804      	ldr	r0, [pc, #16]	; (23fb61c <free+0x14>)
 23fb60c:	6800      	ldr	r0, [r0, #0]
 23fb60e:	4b04      	ldr	r3, [pc, #16]	; (23fb620 <free+0x18>)
 23fb610:	4403      	add	r3, r0
 23fb612:	681b      	ldr	r3, [r3, #0]
 23fb614:	685b      	ldr	r3, [r3, #4]
 23fb616:	9302      	str	r3, [sp, #8]
 23fb618:	bd09      	pop	{r0, r3, pc}
 23fb61a:	0000      	.short	0x0000
 23fb61c:	1007ad3c 	.word	0x1007ad3c
 23fb620:	00000004 	.word	0x00000004

023fb624 <realloc>:
DYNALIB_FN(2, rt, realloc, void*(void*, size_t))
 23fb624:	b509      	push	{r0, r3, lr}
 23fb626:	4804      	ldr	r0, [pc, #16]	; (23fb638 <realloc+0x14>)
 23fb628:	6800      	ldr	r0, [r0, #0]
 23fb62a:	4b04      	ldr	r3, [pc, #16]	; (23fb63c <realloc+0x18>)
 23fb62c:	4403      	add	r3, r0
 23fb62e:	681b      	ldr	r3, [r3, #0]
 23fb630:	689b      	ldr	r3, [r3, #8]
 23fb632:	9302      	str	r3, [sp, #8]
 23fb634:	bd09      	pop	{r0, r3, pc}
 23fb636:	0000      	.short	0x0000
 23fb638:	1007ad3c 	.word	0x1007ad3c
 23fb63c:	00000004 	.word	0x00000004

023fb640 <vsnprintf>:
DYNALIB_FN(4, rt, siprintf, int(char*, const char*, ...))
DYNALIB_FN(5, rt, sscanf, int(const char*, const char*, ...))
DYNALIB_FN(6, rt, siscanf, int(const char*, const char*, ...))
DYNALIB_FN(7, rt, snprintf, int(char*, size_t, const char*, ...))
DYNALIB_FN(8, rt, sniprintf, int(char*, size_t, const char*, ...))
DYNALIB_FN(9, rt, vsnprintf, int(char*, size_t, const char*, va_list))
 23fb640:	b509      	push	{r0, r3, lr}
 23fb642:	4804      	ldr	r0, [pc, #16]	; (23fb654 <vsnprintf+0x14>)
 23fb644:	6800      	ldr	r0, [r0, #0]
 23fb646:	4b04      	ldr	r3, [pc, #16]	; (23fb658 <vsnprintf+0x18>)
 23fb648:	4403      	add	r3, r0
 23fb64a:	681b      	ldr	r3, [r3, #0]
 23fb64c:	6a5b      	ldr	r3, [r3, #36]	; 0x24
 23fb64e:	9302      	str	r3, [sp, #8]
 23fb650:	bd09      	pop	{r0, r3, pc}
 23fb652:	0000      	.short	0x0000
 23fb654:	1007ad3c 	.word	0x1007ad3c
 23fb658:	00000004 	.word	0x00000004

023fb65c <abort>:
DYNALIB_FN(10, rt, vsniprintf, int(char*, size_t, const char*, va_list))
DYNALIB_FN(11, rt, abort, void(void))
 23fb65c:	b509      	push	{r0, r3, lr}
 23fb65e:	4804      	ldr	r0, [pc, #16]	; (23fb670 <abort+0x14>)
 23fb660:	6800      	ldr	r0, [r0, #0]
 23fb662:	4b04      	ldr	r3, [pc, #16]	; (23fb674 <abort+0x18>)
 23fb664:	4403      	add	r3, r0
 23fb666:	681b      	ldr	r3, [r3, #0]
 23fb668:	6adb      	ldr	r3, [r3, #44]	; 0x2c
 23fb66a:	9302      	str	r3, [sp, #8]
 23fb66c:	bd09      	pop	{r0, r3, pc}
 23fb66e:	0000      	.short	0x0000
 23fb670:	1007ad3c 	.word	0x1007ad3c
 23fb674:	00000004 	.word	0x00000004

023fb678 <_malloc_r>:
DYNALIB_FN(12, rt, _malloc_r, void*(struct _reent*, size_t))
 23fb678:	b509      	push	{r0, r3, lr}
 23fb67a:	4804      	ldr	r0, [pc, #16]	; (23fb68c <_malloc_r+0x14>)
 23fb67c:	6800      	ldr	r0, [r0, #0]
 23fb67e:	4b04      	ldr	r3, [pc, #16]	; (23fb690 <_malloc_r+0x18>)
 23fb680:	4403      	add	r3, r0
 23fb682:	681b      	ldr	r3, [r3, #0]
 23fb684:	6b1b      	ldr	r3, [r3, #48]	; 0x30
 23fb686:	9302      	str	r3, [sp, #8]
 23fb688:	bd09      	pop	{r0, r3, pc}
 23fb68a:	0000      	.short	0x0000
 23fb68c:	1007ad3c 	.word	0x1007ad3c
 23fb690:	00000004 	.word	0x00000004

023fb694 <__errno>:
DYNALIB_FN(13, rt, _free_r, void(struct _reent*, void*))
DYNALIB_FN(14, rt, _realloc_r, void*(struct _reent*, void*, size_t))
DYNALIB_FN(15, rt, __errno, int*())
 23fb694:	b509      	push	{r0, r3, lr}
 23fb696:	4804      	ldr	r0, [pc, #16]	; (23fb6a8 <__errno+0x14>)
 23fb698:	6800      	ldr	r0, [r0, #0]
 23fb69a:	4b04      	ldr	r3, [pc, #16]	; (23fb6ac <__errno+0x18>)
 23fb69c:	4403      	add	r3, r0
 23fb69e:	681b      	ldr	r3, [r3, #0]
 23fb6a0:	6bdb      	ldr	r3, [r3, #60]	; 0x3c
 23fb6a2:	9302      	str	r3, [sp, #8]
 23fb6a4:	bd09      	pop	{r0, r3, pc}
 23fb6a6:	0000      	.short	0x0000
 23fb6a8:	1007ad3c 	.word	0x1007ad3c
 23fb6ac:	00000004 	.word	0x00000004

023fb6b0 <__assert_func>:

#if defined(DYNALIB_EXPORT) || (defined(DYNALIB_IMPORT) && !defined(RT_DYNALIB_NO_DEPENDENCY_BREAKING_IMPORTS))
DYNALIB_FN(16, rt, __assert_func, void(const char*, int, const char*, const char*))
 23fb6b0:	b509      	push	{r0, r3, lr}
 23fb6b2:	4804      	ldr	r0, [pc, #16]	; (23fb6c4 <__assert_func+0x14>)
 23fb6b4:	6800      	ldr	r0, [r0, #0]
 23fb6b6:	4b04      	ldr	r3, [pc, #16]	; (23fb6c8 <__assert_func+0x18>)
 23fb6b8:	4403      	add	r3, r0
 23fb6ba:	681b      	ldr	r3, [r3, #0]
 23fb6bc:	6c1b      	ldr	r3, [r3, #64]	; 0x40
 23fb6be:	9302      	str	r3, [sp, #8]
 23fb6c0:	bd09      	pop	{r0, r3, pc}
 23fb6c2:	0000      	.short	0x0000
 23fb6c4:	1007ad3c 	.word	0x1007ad3c
 23fb6c8:	00000004 	.word	0x00000004

023fb6cc <newlib_impure_ptr_callback>:
DYNALIB_FN(17, rt, newlib_impure_ptr_callback, void(void (*)(struct _reent*, size_t, uint32_t, void*), void*))
 23fb6cc:	b509      	push	{r0, r3, lr}
 23fb6ce:	4804      	ldr	r0, [pc, #16]	; (23fb6e0 <newlib_impure_ptr_callback+0x14>)
 23fb6d0:	6800      	ldr	r0, [r0, #0]
 23fb6d2:	4b04      	ldr	r3, [pc, #16]	; (23fb6e4 <newlib_impure_ptr_callback+0x18>)
 23fb6d4:	4403      	add	r3, r0
 23fb6d6:	681b      	ldr	r3, [r3, #0]
 23fb6d8:	6c5b      	ldr	r3, [r3, #68]	; 0x44
 23fb6da:	9302      	str	r3, [sp, #8]
 23fb6dc:	bd09      	pop	{r0, r3, pc}
 23fb6de:	0000      	.short	0x0000
 23fb6e0:	1007ad3c 	.word	0x1007ad3c
 23fb6e4:	00000004 	.word	0x00000004

023fb6e8 <_ZN5spark13EthernetClass9listeningEv>:
    uint16_t getListenTimeout(void) {
        return network_get_listen_timeout(*this, 0, NULL);
    }

    bool listening(void) {
        return network_listening(*this, 0, NULL);
 23fb6e8:	2200      	movs	r2, #0
 23fb6ea:	6840      	ldr	r0, [r0, #4]
 23fb6ec:	4611      	mov	r1, r2
 23fb6ee:	f7ff be81 	b.w	23fb3f4 <network_listening>

023fb6f2 <_ZN5spark13EthernetClass16getListenTimeoutEv>:
        return network_get_listen_timeout(*this, 0, NULL);
 23fb6f2:	2200      	movs	r2, #0
 23fb6f4:	6840      	ldr	r0, [r0, #4]
 23fb6f6:	4611      	mov	r1, r2
 23fb6f8:	f7ff be98 	b.w	23fb42c <network_get_listen_timeout>

023fb6fc <_ZN5spark13EthernetClass16setListenTimeoutEt>:
        network_set_listen_timeout(*this, timeout, NULL);
 23fb6fc:	2200      	movs	r2, #0
 23fb6fe:	6840      	ldr	r0, [r0, #4]
 23fb700:	f7ff be86 	b.w	23fb410 <network_set_listen_timeout>

023fb704 <_ZN5spark13EthernetClass6listenEb>:
        network_listen(*this, begin ? 0 : 1, NULL);
 23fb704:	2200      	movs	r2, #0
 23fb706:	6840      	ldr	r0, [r0, #4]
 23fb708:	f081 0101 	eor.w	r1, r1, #1
 23fb70c:	f7ff be64 	b.w	23fb3d8 <network_listen>

023fb710 <_ZN5spark13EthernetClass3offEv>:
        network_off(*this, 0, 0, NULL);
 23fb710:	2300      	movs	r3, #0
 23fb712:	6840      	ldr	r0, [r0, #4]
 23fb714:	461a      	mov	r2, r3
 23fb716:	4619      	mov	r1, r3
 23fb718:	f7ff be50 	b.w	23fb3bc <network_off>

023fb71c <_ZN5spark13EthernetClass2onEv>:
        network_on(*this, 0, 0, NULL);
 23fb71c:	2300      	movs	r3, #0
 23fb71e:	6840      	ldr	r0, [r0, #4]
 23fb720:	461a      	mov	r2, r3
 23fb722:	4619      	mov	r1, r3
 23fb724:	f7ff be3c 	b.w	23fb3a0 <network_on>

023fb728 <_ZN5spark13EthernetClass5readyEv>:
    }

    bool ready() {
        return network_ready(*this, 0,  NULL);
 23fb728:	2200      	movs	r2, #0
 23fb72a:	6840      	ldr	r0, [r0, #4]
 23fb72c:	4611      	mov	r1, r2
 23fb72e:	f7ff be29 	b.w	23fb384 <network_ready>

023fb732 <_ZN5spark13EthernetClass10connectingEv>:
        return network_connecting(*this, 0, NULL);
 23fb732:	2200      	movs	r2, #0
 23fb734:	6840      	ldr	r0, [r0, #4]
 23fb736:	4611      	mov	r1, r2
 23fb738:	f7ff be08 	b.w	23fb34c <network_connecting>

023fb73c <_ZN5spark13EthernetClass10disconnectEv>:
        network_disconnect(*this, NETWORK_DISCONNECT_REASON_USER, NULL);
 23fb73c:	2200      	movs	r2, #0
 23fb73e:	2102      	movs	r1, #2
 23fb740:	6840      	ldr	r0, [r0, #4]
 23fb742:	f7ff be11 	b.w	23fb368 <network_disconnect>

023fb746 <_ZN5spark13EthernetClass7connectEj>:
        network_connect(*this, flags, 0, NULL);
 23fb746:	2300      	movs	r3, #0
 23fb748:	6840      	ldr	r0, [r0, #4]
 23fb74a:	461a      	mov	r2, r3
 23fb74c:	f7ff bdf0 	b.w	23fb330 <network_connect>

023fb750 <_GLOBAL__sub_I__ZN5spark8EthernetE>:
    static NetworkClass& from(network_interface_t nif);

    virtual IPAddress resolve(const char* name);

    explicit NetworkClass(network_interface_t iface)
            : iface_(iface) {
 23fb750:	2203      	movs	r2, #3
 23fb752:	4b02      	ldr	r3, [pc, #8]	; (23fb75c <_GLOBAL__sub_I__ZN5spark8EthernetE+0xc>)
 23fb754:	605a      	str	r2, [r3, #4]
            NetworkClass(NETWORK_INTERFACE_ETHERNET) {
 23fb756:	4a02      	ldr	r2, [pc, #8]	; (23fb760 <_GLOBAL__sub_I__ZN5spark8EthernetE+0x10>)
 23fb758:	601a      	str	r2, [r3, #0]

namespace spark {

EthernetClass Ethernet;

} // spark
 23fb75a:	4770      	bx	lr
 23fb75c:	1007ae54 	.word	0x1007ae54
 23fb760:	023ffa70 	.word	0x023ffa70

023fb764 <_ZN8SPIClass6unlockEv.isra.0>:
  }

  void unlock()
  {
#if HAL_PLATFORM_SPI_HAL_THREAD_SAFETY
    hal_spi_release(_spi, nullptr);
 23fb764:	2100      	movs	r1, #0
 23fb766:	f7ff bccb 	b.w	23fb100 <hal_spi_release>

023fb76a <_ZN8SPIClass4lockEv.isra.0>:
    return hal_spi_acquire(_spi, nullptr);
 23fb76a:	2100      	movs	r1, #0
 23fb76c:	f7ff bcba 	b.w	23fb0e4 <hal_spi_acquire>

023fb770 <_ZN8SPIClassC1E19hal_spi_interface_t>:
    }
    return particle::SPISettings(info->clock, info->bit_order, info->data_mode);
}
} // namespace

SPIClass::SPIClass(hal_spi_interface_t spi)
 23fb770:	b510      	push	{r4, lr}
 23fb772:	4604      	mov	r4, r0
 23fb774:	4608      	mov	r0, r1
{
    _spi = spi;
 23fb776:	7021      	strb	r1, [r4, #0]
    hal_spi_init(_spi);
 23fb778:	f7ff fc8a 	bl	23fb090 <hal_spi_init>
    _dividerReference = SPI_CLK_SYSTEM; // 0 indicates the system clock
 23fb77c:	2300      	movs	r3, #0
}
 23fb77e:	4620      	mov	r0, r4
    _dividerReference = SPI_CLK_SYSTEM; // 0 indicates the system clock
 23fb780:	6063      	str	r3, [r4, #4]
}
 23fb782:	bd10      	pop	{r4, pc}

023fb784 <_ZN8SPIClass5beginEv>:

void SPIClass::begin()
{
 23fb784:	b513      	push	{r0, r1, r4, lr}
 23fb786:	4604      	mov	r4, r0
    // TODO: Fetch default pin from HAL
    if (!lock())
 23fb788:	7800      	ldrb	r0, [r0, #0]
 23fb78a:	f7ff ffee 	bl	23fb76a <_ZN8SPIClass4lockEv.isra.0>
 23fb78e:	b958      	cbnz	r0, 23fb7a8 <_ZN8SPIClass5beginEv+0x24>
 23fb790:	7820      	ldrb	r0, [r4, #0]
    {
        hal_spi_begin(_spi, SPI_DEFAULT_SS);
 23fb792:	f64f 71ff 	movw	r1, #65535	; 0xffff
 23fb796:	9001      	str	r0, [sp, #4]
 23fb798:	f7ff fc42 	bl	23fb020 <hal_spi_begin>
        unlock();
 23fb79c:	9801      	ldr	r0, [sp, #4]
    }
}
 23fb79e:	b002      	add	sp, #8
 23fb7a0:	e8bd 4010 	ldmia.w	sp!, {r4, lr}
 23fb7a4:	f7ff bfde 	b.w	23fb764 <_ZN8SPIClass6unlockEv.isra.0>
 23fb7a8:	b002      	add	sp, #8
 23fb7aa:	bd10      	pop	{r4, pc}

023fb7ac <_ZN8SPIClass11setDataModeEh>:
        unlock();
    }
}

void SPIClass::setDataMode(uint8_t mode)
{
 23fb7ac:	b513      	push	{r0, r1, r4, lr}
 23fb7ae:	4604      	mov	r4, r0
    if (!lock())
 23fb7b0:	7800      	ldrb	r0, [r0, #0]
{
 23fb7b2:	9101      	str	r1, [sp, #4]
    if (!lock())
 23fb7b4:	f7ff ffd9 	bl	23fb76a <_ZN8SPIClass4lockEv.isra.0>
 23fb7b8:	9901      	ldr	r1, [sp, #4]
 23fb7ba:	b948      	cbnz	r0, 23fb7d0 <_ZN8SPIClass11setDataModeEh+0x24>
 23fb7bc:	7820      	ldrb	r0, [r4, #0]
    {
        hal_spi_set_data_mode(_spi, mode);
 23fb7be:	9001      	str	r0, [sp, #4]
 23fb7c0:	f7ff fc3c 	bl	23fb03c <hal_spi_set_data_mode>
        unlock();
 23fb7c4:	9801      	ldr	r0, [sp, #4]
    }
}
 23fb7c6:	b002      	add	sp, #8
 23fb7c8:	e8bd 4010 	ldmia.w	sp!, {r4, lr}
 23fb7cc:	f7ff bfca 	b.w	23fb764 <_ZN8SPIClass6unlockEv.isra.0>
 23fb7d0:	b002      	add	sp, #8
 23fb7d2:	bd10      	pop	{r4, pc}

023fb7d4 <_ZN8SPIClass19computeClockDividerEjjRhRj>:
    }
}

void SPIClass::computeClockDivider(unsigned reference, unsigned targetSpeed, uint8_t& divider,
                                   unsigned& clock)
{
 23fb7d4:	b530      	push	{r4, r5, lr}
    clock = reference;
    uint8_t scale = 0;
    clock >>= 1; // div2 is the first
 23fb7d6:	2400      	movs	r4, #0
 23fb7d8:	0840      	lsrs	r0, r0, #1
 23fb7da:	6018      	str	r0, [r3, #0]
    while (clock > targetSpeed && scale < 7)
 23fb7dc:	6818      	ldr	r0, [r3, #0]
 23fb7de:	b2e5      	uxtb	r5, r4
 23fb7e0:	4288      	cmp	r0, r1
 23fb7e2:	d906      	bls.n	23fb7f2 <_ZN8SPIClass19computeClockDividerEjjRhRj+0x1e>
 23fb7e4:	3401      	adds	r4, #1
 23fb7e6:	2c08      	cmp	r4, #8
 23fb7e8:	d002      	beq.n	23fb7f0 <_ZN8SPIClass19computeClockDividerEjjRhRj+0x1c>
    {
        clock >>= 1;
 23fb7ea:	0840      	lsrs	r0, r0, #1
 23fb7ec:	6018      	str	r0, [r3, #0]
    while (clock > targetSpeed && scale < 7)
 23fb7ee:	e7f5      	b.n	23fb7dc <_ZN8SPIClass19computeClockDividerEjjRhRj+0x8>
 23fb7f0:	2507      	movs	r5, #7
        scale++;
    }
    divider = clock_divisors[scale];
 23fb7f2:	4b02      	ldr	r3, [pc, #8]	; (23fb7fc <_ZN8SPIClass19computeClockDividerEjjRhRj+0x28>)
 23fb7f4:	5d5b      	ldrb	r3, [r3, r5]
 23fb7f6:	7013      	strb	r3, [r2, #0]
}
 23fb7f8:	bd30      	pop	{r4, r5, pc}
 23fb7fa:	bf00      	nop
 23fb7fc:	023ffaa4 	.word	0x023ffaa4

023fb800 <_ZN8SPIClass13setClockSpeedEjj>:

unsigned SPIClass::setClockSpeed(unsigned value, unsigned value_scale)
{
    unsigned clock = 0;
 23fb800:	2300      	movs	r3, #0
{
 23fb802:	e92d 41f0 	stmdb	sp!, {r4, r5, r6, r7, r8, lr}
 23fb806:	4604      	mov	r4, r0
 23fb808:	b088      	sub	sp, #32

    // actual speed is the system clock divided by some scalar
    unsigned targetSpeed = value * value_scale;

    if (!lock())
 23fb80a:	7800      	ldrb	r0, [r0, #0]
{
 23fb80c:	460e      	mov	r6, r1
 23fb80e:	4617      	mov	r7, r2
    unsigned clock = 0;
 23fb810:	9302      	str	r3, [sp, #8]
    if (!lock())
 23fb812:	f7ff ffaa 	bl	23fb76a <_ZN8SPIClass4lockEv.isra.0>
 23fb816:	4605      	mov	r5, r0
 23fb818:	bb00      	cbnz	r0, 23fb85c <_ZN8SPIClass13setClockSpeedEjj+0x5c>
    memset(info, 0, sizeof(hal_spi_info_t));
 23fb81a:	4601      	mov	r1, r0
 23fb81c:	2214      	movs	r2, #20
 23fb81e:	a803      	add	r0, sp, #12
    {
        // Query SPI info
        hal_spi_info_t info;
        querySpiInfo(_spi, &info);
 23fb820:	f894 8000 	ldrb.w	r8, [r4]
    memset(info, 0, sizeof(hal_spi_info_t));
 23fb824:	f002 ff87 	bl	23fe736 <memset>
    info->version = HAL_SPI_INFO_VERSION_1;
 23fb828:	230b      	movs	r3, #11
    hal_spi_info(spi, info, nullptr);
 23fb82a:	462a      	mov	r2, r5
 23fb82c:	4640      	mov	r0, r8
 23fb82e:	a903      	add	r1, sp, #12
    info->version = HAL_SPI_INFO_VERSION_1;
 23fb830:	f8ad 300c 	strh.w	r3, [sp, #12]
    hal_spi_info(spi, info, nullptr);
 23fb834:	f7ff fc48 	bl	23fb0c8 <hal_spi_info>

        // Calculate clock divider
        uint8_t divisor = 0;
        computeClockDivider(info.system_clock, targetSpeed, divisor, clock);
 23fb838:	fb07 f106 	mul.w	r1, r7, r6
 23fb83c:	9804      	ldr	r0, [sp, #16]
 23fb83e:	ab02      	add	r3, sp, #8
 23fb840:	f10d 0207 	add.w	r2, sp, #7
        uint8_t divisor = 0;
 23fb844:	f88d 5007 	strb.w	r5, [sp, #7]
        computeClockDivider(info.system_clock, targetSpeed, divisor, clock);
 23fb848:	f7ff ffc4 	bl	23fb7d4 <_ZN8SPIClass19computeClockDividerEjjRhRj>

        // Update SPI peripheral
        hal_spi_set_clock_divider(_spi, divisor);
 23fb84c:	7820      	ldrb	r0, [r4, #0]
 23fb84e:	f89d 1007 	ldrb.w	r1, [sp, #7]
 23fb852:	f7ff fc01 	bl	23fb058 <hal_spi_set_clock_divider>
        unlock();
 23fb856:	7820      	ldrb	r0, [r4, #0]
 23fb858:	f7ff ff84 	bl	23fb764 <_ZN8SPIClass6unlockEv.isra.0>
    }

    return clock;
}
 23fb85c:	9802      	ldr	r0, [sp, #8]
 23fb85e:	b008      	add	sp, #32
 23fb860:	e8bd 81f0 	ldmia.w	sp!, {r4, r5, r6, r7, r8, pc}

023fb864 <_ZN8SPIClass15setClockDividerEh>:
{
 23fb864:	b538      	push	{r3, r4, r5, lr}
 23fb866:	4604      	mov	r4, r0
    if (!lock())
 23fb868:	7800      	ldrb	r0, [r0, #0]
{
 23fb86a:	460d      	mov	r5, r1
    if (!lock())
 23fb86c:	f7ff ff7d 	bl	23fb76a <_ZN8SPIClass4lockEv.isra.0>
 23fb870:	4603      	mov	r3, r0
 23fb872:	b9d0      	cbnz	r0, 23fb8aa <_ZN8SPIClass15setClockDividerEh+0x46>
        if (_dividerReference)
 23fb874:	6861      	ldr	r1, [r4, #4]
 23fb876:	b199      	cbz	r1, 23fb8a0 <_ZN8SPIClass15setClockDividerEh+0x3c>
 23fb878:	4a0c      	ldr	r2, [pc, #48]	; (23fb8ac <_ZN8SPIClass15setClockDividerEh+0x48>)
        if (clock_divisors[result] == divider)
 23fb87a:	f812 0b01 	ldrb.w	r0, [r2], #1
 23fb87e:	4285      	cmp	r5, r0
 23fb880:	d002      	beq.n	23fb888 <_ZN8SPIClass15setClockDividerEh+0x24>
    for (; result < arraySize(clock_divisors); result++)
 23fb882:	3301      	adds	r3, #1
 23fb884:	2b08      	cmp	r3, #8
 23fb886:	d1f8      	bne.n	23fb87a <_ZN8SPIClass15setClockDividerEh+0x16>
    return result + 1;
 23fb888:	3301      	adds	r3, #1
            unsigned targetSpeed = _dividerReference >> scale;
 23fb88a:	b2db      	uxtb	r3, r3
            setClockSpeed(targetSpeed);
 23fb88c:	2201      	movs	r2, #1
 23fb88e:	4620      	mov	r0, r4
 23fb890:	40d9      	lsrs	r1, r3
 23fb892:	f7ff ffb5 	bl	23fb800 <_ZN8SPIClass13setClockSpeedEjj>
        unlock();
 23fb896:	7820      	ldrb	r0, [r4, #0]
}
 23fb898:	e8bd 4038 	ldmia.w	sp!, {r3, r4, r5, lr}
        unlock();
 23fb89c:	f7ff bf62 	b.w	23fb764 <_ZN8SPIClass6unlockEv.isra.0>
            hal_spi_set_clock_divider(_spi, rate);
 23fb8a0:	4629      	mov	r1, r5
 23fb8a2:	7820      	ldrb	r0, [r4, #0]
 23fb8a4:	f7ff fbd8 	bl	23fb058 <hal_spi_set_clock_divider>
 23fb8a8:	e7f5      	b.n	23fb896 <_ZN8SPIClass15setClockDividerEh+0x32>
}
 23fb8aa:	bd38      	pop	{r3, r4, r5, pc}
 23fb8ac:	023ffaa4 	.word	0x023ffaa4

023fb8b0 <_ZN8SPIClass8transferEh>:

byte SPIClass::transfer(byte _data)
{
 23fb8b0:	b508      	push	{r3, lr}
    return static_cast<byte>(hal_spi_transfer(_spi, _data));
 23fb8b2:	7800      	ldrb	r0, [r0, #0]
 23fb8b4:	f7ff fbde 	bl	23fb074 <hal_spi_transfer>
}
 23fb8b8:	b2c0      	uxtb	r0, r0
 23fb8ba:	bd08      	pop	{r3, pc}

023fb8bc <_ZNSt14_Function_baseD1Ev>:
	{ __functor._M_access<_Functor*>() = new _Functor(std::move(__f)); }
      };

    _Function_base() : _M_manager(nullptr) { }

    ~_Function_base()
 23fb8bc:	b510      	push	{r4, lr}
    {
      if (_M_manager)
 23fb8be:	6883      	ldr	r3, [r0, #8]
    ~_Function_base()
 23fb8c0:	4604      	mov	r4, r0
      if (_M_manager)
 23fb8c2:	b113      	cbz	r3, 23fb8ca <_ZNSt14_Function_baseD1Ev+0xe>
	_M_manager(_M_functor, _M_functor, __destroy_functor);
 23fb8c4:	2203      	movs	r2, #3
 23fb8c6:	4601      	mov	r1, r0
 23fb8c8:	4798      	blx	r3
    }
 23fb8ca:	4620      	mov	r0, r4
 23fb8cc:	bd10      	pop	{r4, pc}

023fb8ce <_ZN11SystemClass13assetsHandledEb>:
    }
    return assets;
}

int SystemClass::assetsHandled(bool state) {
    return asset_manager_set_consumer_state(state ? ASSET_MANAGER_CONSUMER_STATE_HANDLED : ASSET_MANAGER_CONSUMER_STATE_WANT, nullptr);
 23fb8ce:	2800      	cmp	r0, #0
 23fb8d0:	f04f 0100 	mov.w	r1, #0
 23fb8d4:	bf14      	ite	ne
 23fb8d6:	2001      	movne	r0, #1
 23fb8d8:	2002      	moveq	r0, #2
 23fb8da:	f7ff be25 	b.w	23fb528 <asset_manager_set_consumer_state>

023fb8de <_ZNSt10unique_ptrIA_cSt14default_deleteIS0_EED1Ev>:
	unique_ptr(unique_ptr<_Up, _Ep>&& __u) noexcept
	: _M_t(__u.release(), std::forward<_Ep>(__u.get_deleter()))
	{ }

      /// Destructor, invokes the deleter if the stored pointer is not null.
      ~unique_ptr()
 23fb8de:	b510      	push	{r4, lr}
 23fb8e0:	4604      	mov	r4, r0
      {
	auto& __ptr = _M_t._M_ptr();
	if (__ptr != nullptr)
 23fb8e2:	6800      	ldr	r0, [r0, #0]
 23fb8e4:	b108      	cbz	r0, 23fb8ea <_ZNSt10unique_ptrIA_cSt14default_deleteIS0_EED1Ev+0xc>
	  delete [] __ptr;
 23fb8e6:	f7fd f8e6 	bl	23f8ab6 <_ZdaPv>
	  get_deleter()(__ptr);
	__ptr = pointer();
      }
 23fb8ea:	4620      	mov	r0, r4
 23fb8ec:	bd10      	pop	{r4, pc}

023fb8ee <_ZN8particle6BufferC1Ej>:
private:
    std::unique_ptr<char[]> buffer_;
    size_t size_;
};

inline Buffer::Buffer(size_t size)
 23fb8ee:	b5f7      	push	{r0, r1, r2, r4, r5, r6, r7, lr}

  template<std::size_t _Idx, typename _Head>
    struct _Head_base<_Idx, _Head, false>
    {
      constexpr _Head_base()
      : _M_head_impl() { }
 23fb8f0:	2700      	movs	r7, #0
 23fb8f2:	4604      	mov	r4, r0
 23fb8f4:	460d      	mov	r5, r1
        : size_(size) {
 23fb8f6:	e9c0 7100 	strd	r7, r1, [r0]
    if (size_ > 0) {
 23fb8fa:	b1c9      	cbz	r1, 23fb930 <_ZN8particle6BufferC1Ej+0x42>

  /// std::make_unique for arrays of unknown bound
  template<typename _Tp>
    inline typename _MakeUniq<_Tp>::__array
    make_unique(size_t __num)
    { return unique_ptr<_Tp>(new remove_extent_t<_Tp>[__num]()); }
 23fb8fc:	4608      	mov	r0, r1
 23fb8fe:	f7fd f8d8 	bl	23f8ab2 <_Znaj>
 23fb902:	4606      	mov	r6, r0
 23fb904:	b138      	cbz	r0, 23fb916 <_ZN8particle6BufferC1Ej+0x28>
 23fb906:	1e6b      	subs	r3, r5, #1
 23fb908:	3301      	adds	r3, #1
 23fb90a:	bfac      	ite	ge
 23fb90c:	462a      	movge	r2, r5
 23fb90e:	463a      	movlt	r2, r7
 23fb910:	4639      	mov	r1, r7
 23fb912:	f002 ff10 	bl	23fe736 <memset>
	_M_ptr() = nullptr;
 23fb916:	2300      	movs	r3, #0
	const pointer __old_p = _M_ptr();
 23fb918:	6820      	ldr	r0, [r4, #0]
	_M_ptr() = nullptr;
 23fb91a:	9301      	str	r3, [sp, #4]
	_M_ptr() = __p;
 23fb91c:	6026      	str	r6, [r4, #0]
	if (__old_p)
 23fb91e:	b108      	cbz	r0, 23fb924 <_ZN8particle6BufferC1Ej+0x36>
	  delete [] __ptr;
 23fb920:	f7fd f8c9 	bl	23f8ab6 <_ZdaPv>
        buffer_ = std::make_unique<char[]>(size_);
 23fb924:	a801      	add	r0, sp, #4
 23fb926:	f7ff ffda 	bl	23fb8de <_ZNSt10unique_ptrIA_cSt14default_deleteIS0_EED1Ev>
        if (!buffer_) {
 23fb92a:	6823      	ldr	r3, [r4, #0]
 23fb92c:	b903      	cbnz	r3, 23fb930 <_ZN8particle6BufferC1Ej+0x42>
            size_ = 0;
 23fb92e:	6063      	str	r3, [r4, #4]
        }
    }
}
 23fb930:	4620      	mov	r0, r4
 23fb932:	b003      	add	sp, #12
 23fb934:	bdf0      	pop	{r4, r5, r6, r7, pc}
	...

023fb938 <_ZN8particle16ApplicationAssetC1ERKS0_>:
/**
 * Application asset.
 * 
 * Instances of this class are returned in `System.assetsAvailable()` and `System.assetsRequired()`
 */
class ApplicationAsset: public Stream {
 23fb938:	b538      	push	{r3, r4, r5, lr}
 23fb93a:	460d      	mov	r5, r1
 23fb93c:	4604      	mov	r4, r0
const unsigned char BIN = 2;

class String;
class __FlashStringHelper;

class Print
 23fb93e:	684b      	ldr	r3, [r1, #4]
 23fb940:	3110      	adds	r1, #16
 23fb942:	6043      	str	r3, [r0, #4]
#define   getFloat(skipChar)  parseFloat(skipChar)
#define   getString( pre_string, post_string, buffer, length)
readBytesBetween( pre_string, terminator, buffer, length)
*/

class Stream : public Print
 23fb944:	f851 3c08 	ldr.w	r3, [r1, #-8]
 23fb948:	6083      	str	r3, [r0, #8]
 23fb94a:	f851 3c04 	ldr.w	r3, [r1, #-4]
 23fb94e:	60c3      	str	r3, [r0, #12]
 23fb950:	4b13      	ldr	r3, [pc, #76]	; (23fb9a0 <_ZN8particle16ApplicationAssetC1ERKS0_+0x68>)
 23fb952:	f840 3b10 	str.w	r3, [r0], #16
 23fb956:	f000 f99a 	bl	23fbc8e <_ZN6StringC1ERKS_>
    /**
     * Copy cosntructor.
     * 
     * @param other Asset Hash object to copy from.
     */
    AssetHash(const AssetHash& other) = default;
 23fb95a:	f895 3020 	ldrb.w	r3, [r5, #32]
inline Buffer::Buffer(const uint8_t* data, size_t size)
        : Buffer((const char*)data, size) {

}
inline Buffer::Buffer(const Buffer& other)
        : Buffer(other.size()) {
 23fb95e:	f104 0024 	add.w	r0, r4, #36	; 0x24
 23fb962:	f884 3020 	strb.w	r3, [r4, #32]
 23fb966:	6aa9      	ldr	r1, [r5, #40]	; 0x28
 23fb968:	f7ff ffc1 	bl	23fb8ee <_ZN8particle6BufferC1Ej>
    if (size_ > 0 && other.size() > 0) {
 23fb96c:	6aa2      	ldr	r2, [r4, #40]	; 0x28
 23fb96e:	b12a      	cbz	r2, 23fb97c <_ZN8particle16ApplicationAssetC1ERKS0_+0x44>
 23fb970:	6aab      	ldr	r3, [r5, #40]	; 0x28
 23fb972:	b11b      	cbz	r3, 23fb97c <_ZN8particle16ApplicationAssetC1ERKS0_+0x44>
        memcpy(buffer_.get(), other.buffer_.get(), size_);
 23fb974:	6a69      	ldr	r1, [r5, #36]	; 0x24
 23fb976:	6a60      	ldr	r0, [r4, #36]	; 0x24
 23fb978:	f002 feb6 	bl	23fe6e8 <memcpy>
 23fb97c:	6aeb      	ldr	r3, [r5, #44]	; 0x2c
 23fb97e:	62e3      	str	r3, [r4, #44]	; 0x2c
 23fb980:	6b2b      	ldr	r3, [r5, #48]	; 0x30
 23fb982:	6323      	str	r3, [r4, #48]	; 0x30
 23fb984:	f895 3034 	ldrb.w	r3, [r5, #52]	; 0x34
 23fb988:	f884 3034 	strb.w	r3, [r4, #52]	; 0x34
      __shared_ptr(const __shared_ptr&) noexcept = default;
 23fb98c:	6bab      	ldr	r3, [r5, #56]	; 0x38
 23fb98e:	63a3      	str	r3, [r4, #56]	; 0x38
      : _M_pi(__r._M_pi)
 23fb990:	6beb      	ldr	r3, [r5, #60]	; 0x3c
 23fb992:	63e3      	str	r3, [r4, #60]	; 0x3c
	if (_M_pi != 0)
 23fb994:	b113      	cbz	r3, 23fb99c <_ZN8particle16ApplicationAssetC1ERKS0_+0x64>
    { ++_M_use_count; }
 23fb996:	685a      	ldr	r2, [r3, #4]
 23fb998:	3201      	adds	r2, #1
 23fb99a:	605a      	str	r2, [r3, #4]
 23fb99c:	4620      	mov	r0, r4
 23fb99e:	bd38      	pop	{r3, r4, r5, pc}
 23fb9a0:	023ffad8 	.word	0x023ffad8

023fb9a4 <_ZN5spark6VectorIN8particle16ApplicationAssetENS_16DefaultAllocatorEE4moveIS2_Li0EEEvPS2_S6_S6_>:
        ::memmove(dest, p, (end - p) * sizeof(T));
    }

    template<PARTICLE_VECTOR_ENABLE_IF_NOT_TRIVIALLY_COPYABLE(T)>
    static void move(T* dest, T* p, T* end) {
        if (dest > p && dest < end) {
 23fb9a4:	4288      	cmp	r0, r1
    static void move(T* dest, T* p, T* end) {
 23fb9a6:	b5f8      	push	{r3, r4, r5, r6, r7, lr}
 23fb9a8:	4606      	mov	r6, r0
 23fb9aa:	460c      	mov	r4, r1
 23fb9ac:	4615      	mov	r5, r2
        if (dest > p && dest < end) {
 23fb9ae:	d915      	bls.n	23fb9dc <_ZN5spark6VectorIN8particle16ApplicationAssetENS_16DefaultAllocatorEE4moveIS2_Li0EEEvPS2_S6_S6_+0x38>
 23fb9b0:	4290      	cmp	r0, r2
 23fb9b2:	d214      	bcs.n	23fb9de <_ZN5spark6VectorIN8particle16ApplicationAssetENS_16DefaultAllocatorEE4moveIS2_Li0EEEvPS2_S6_S6_+0x3a>
            // Move elements in reverse order
            --p;
            --end;
 23fb9b4:	f1a2 0540 	sub.w	r5, r2, #64	; 0x40
            dest += end - p - 1;
 23fb9b8:	1a6b      	subs	r3, r5, r1
 23fb9ba:	f1a1 0740 	sub.w	r7, r1, #64	; 0x40
 23fb9be:	441e      	add	r6, r3
            for (; end != p; --end, --dest) {
 23fb9c0:	42af      	cmp	r7, r5
 23fb9c2:	d01a      	beq.n	23fb9fa <_ZN5spark6VectorIN8particle16ApplicationAssetENS_16DefaultAllocatorEE4moveIS2_Li0EEEvPS2_S6_S6_+0x56>
                new(dest) T(std::move(*end));
 23fb9c4:	b11e      	cbz	r6, 23fb9ce <_ZN5spark6VectorIN8particle16ApplicationAssetENS_16DefaultAllocatorEE4moveIS2_Li0EEEvPS2_S6_S6_+0x2a>
 23fb9c6:	4629      	mov	r1, r5
 23fb9c8:	4630      	mov	r0, r6
 23fb9ca:	f7ff ffb5 	bl	23fb938 <_ZN8particle16ApplicationAssetC1ERKS0_>
                end->~T();
 23fb9ce:	682b      	ldr	r3, [r5, #0]
 23fb9d0:	4628      	mov	r0, r5
 23fb9d2:	681b      	ldr	r3, [r3, #0]
 23fb9d4:	4798      	blx	r3
            for (; end != p; --end, --dest) {
 23fb9d6:	3d40      	subs	r5, #64	; 0x40
 23fb9d8:	3e40      	subs	r6, #64	; 0x40
 23fb9da:	e7f1      	b.n	23fb9c0 <_ZN5spark6VectorIN8particle16ApplicationAssetENS_16DefaultAllocatorEE4moveIS2_Li0EEEvPS2_S6_S6_+0x1c>
            }
        } else if (dest != p) {
 23fb9dc:	d00d      	beq.n	23fb9fa <_ZN5spark6VectorIN8particle16ApplicationAssetENS_16DefaultAllocatorEE4moveIS2_Li0EEEvPS2_S6_S6_+0x56>
            for (; p != end; ++p, ++dest) {
 23fb9de:	42ac      	cmp	r4, r5
 23fb9e0:	d00b      	beq.n	23fb9fa <_ZN5spark6VectorIN8particle16ApplicationAssetENS_16DefaultAllocatorEE4moveIS2_Li0EEEvPS2_S6_S6_+0x56>
                new(dest) T(std::move(*p));
 23fb9e2:	b11e      	cbz	r6, 23fb9ec <_ZN5spark6VectorIN8particle16ApplicationAssetENS_16DefaultAllocatorEE4moveIS2_Li0EEEvPS2_S6_S6_+0x48>
 23fb9e4:	4621      	mov	r1, r4
 23fb9e6:	4630      	mov	r0, r6
 23fb9e8:	f7ff ffa6 	bl	23fb938 <_ZN8particle16ApplicationAssetC1ERKS0_>
                p->~T();
 23fb9ec:	6823      	ldr	r3, [r4, #0]
 23fb9ee:	4620      	mov	r0, r4
 23fb9f0:	681b      	ldr	r3, [r3, #0]
 23fb9f2:	4798      	blx	r3
            for (; p != end; ++p, ++dest) {
 23fb9f4:	3440      	adds	r4, #64	; 0x40
 23fb9f6:	3640      	adds	r6, #64	; 0x40
 23fb9f8:	e7f1      	b.n	23fb9de <_ZN5spark6VectorIN8particle16ApplicationAssetENS_16DefaultAllocatorEE4moveIS2_Li0EEEvPS2_S6_S6_+0x3a>
            }
        }
    }
 23fb9fa:	bdf8      	pop	{r3, r4, r5, r6, r7, pc}

023fb9fc <_ZN5spark6VectorIN8particle16ApplicationAssetENS_16DefaultAllocatorEE7reallocIS2_Li0EEEbi>:
    bool realloc(int n) {
 23fb9fc:	b570      	push	{r4, r5, r6, lr}
        if (n > 0) {
 23fb9fe:	1e0e      	subs	r6, r1, #0
    bool realloc(int n) {
 23fba00:	4605      	mov	r5, r0
        if (n > 0) {
 23fba02:	dd11      	ble.n	23fba28 <_ZN5spark6VectorIN8particle16ApplicationAssetENS_16DefaultAllocatorEE7reallocIS2_Li0EEEbi+0x2c>

} // particle

// spark::DefaultAllocator
inline void* spark::DefaultAllocator::malloc(size_t size) {
    return ::malloc(size);
 23fba04:	01b0      	lsls	r0, r6, #6
 23fba06:	f7ff fdf1 	bl	23fb5ec <malloc>
            if (!d) {
 23fba0a:	4604      	mov	r4, r0
 23fba0c:	b158      	cbz	r0, 23fba26 <_ZN5spark6VectorIN8particle16ApplicationAssetENS_16DefaultAllocatorEE7reallocIS2_Li0EEEbi+0x2a>
            move(d, data_, data_ + size_);
 23fba0e:	e9d5 1200 	ldrd	r1, r2, [r5]
 23fba12:	eb01 1282 	add.w	r2, r1, r2, lsl #6
 23fba16:	f7ff ffc5 	bl	23fb9a4 <_ZN5spark6VectorIN8particle16ApplicationAssetENS_16DefaultAllocatorEE4moveIS2_Li0EEEvPS2_S6_S6_>
inline void* spark::DefaultAllocator::realloc(void* ptr, size_t size) {
    return ::realloc(ptr, size);
}

inline void spark::DefaultAllocator::free(void* ptr) {
    ::free(ptr);
 23fba1a:	6828      	ldr	r0, [r5, #0]
 23fba1c:	f7ff fdf4 	bl	23fb608 <free>
        return true;
 23fba20:	2001      	movs	r0, #1
        data_ = d;
 23fba22:	602c      	str	r4, [r5, #0]
        capacity_ = n;
 23fba24:	60ae      	str	r6, [r5, #8]
    }
 23fba26:	bd70      	pop	{r4, r5, r6, pc}
        T* d = nullptr;
 23fba28:	2400      	movs	r4, #0
 23fba2a:	e7f6      	b.n	23fba1a <_ZN5spark6VectorIN8particle16ApplicationAssetENS_16DefaultAllocatorEE7reallocIS2_Li0EEEbi+0x1e>

023fba2c <_ZN8particle16ApplicationAssetD1Ev>:

    /**
     * Destroy the Application Asset object.
     * 
     */
    virtual ~ApplicationAsset() = default;
 23fba2c:	b538      	push	{r3, r4, r5, lr}
 23fba2e:	4b0f      	ldr	r3, [pc, #60]	; (23fba6c <_ZN8particle16ApplicationAssetD1Ev+0x40>)
	if (_M_pi != nullptr)
 23fba30:	6bc4      	ldr	r4, [r0, #60]	; 0x3c
 23fba32:	4605      	mov	r5, r0
 23fba34:	6003      	str	r3, [r0, #0]
 23fba36:	b17c      	cbz	r4, 23fba58 <_ZN8particle16ApplicationAssetD1Ev+0x2c>
      if (--_M_use_count == 0)
 23fba38:	6863      	ldr	r3, [r4, #4]
 23fba3a:	3b01      	subs	r3, #1
 23fba3c:	6063      	str	r3, [r4, #4]
 23fba3e:	b95b      	cbnz	r3, 23fba58 <_ZN8particle16ApplicationAssetD1Ev+0x2c>
          _M_dispose();
 23fba40:	6823      	ldr	r3, [r4, #0]
 23fba42:	4620      	mov	r0, r4
 23fba44:	689b      	ldr	r3, [r3, #8]
 23fba46:	4798      	blx	r3
          if (--_M_weak_count == 0)
 23fba48:	68a3      	ldr	r3, [r4, #8]
 23fba4a:	3b01      	subs	r3, #1
 23fba4c:	60a3      	str	r3, [r4, #8]
 23fba4e:	b91b      	cbnz	r3, 23fba58 <_ZN8particle16ApplicationAssetD1Ev+0x2c>
            _M_destroy();
 23fba50:	6823      	ldr	r3, [r4, #0]
 23fba52:	4620      	mov	r0, r4
 23fba54:	68db      	ldr	r3, [r3, #12]
 23fba56:	4798      	blx	r3
class Buffer {
 23fba58:	f105 0024 	add.w	r0, r5, #36	; 0x24
 23fba5c:	f7ff ff3f 	bl	23fb8de <_ZNSt10unique_ptrIA_cSt14default_deleteIS0_EED1Ev>
 23fba60:	f105 0010 	add.w	r0, r5, #16
 23fba64:	f000 f87c 	bl	23fbb60 <_ZN6StringD1Ev>
 23fba68:	4628      	mov	r0, r5
 23fba6a:	bd38      	pop	{r3, r4, r5, pc}
 23fba6c:	023ffad8 	.word	0x023ffad8

023fba70 <_ZN5spark6VectorIN8particle16ApplicationAssetENS_16DefaultAllocatorEE6appendES2_.isra.0>:
    destruct(data_, data_ + size_);
    AllocatorT::free(data_);
}

template<typename T, typename AllocatorT>
inline bool spark::Vector<T, AllocatorT>::append(T value) {
 23fba70:	b530      	push	{r4, r5, lr}
 23fba72:	4604      	mov	r4, r0
 23fba74:	b091      	sub	sp, #68	; 0x44
    return insert(size_, std::move(value));
 23fba76:	6845      	ldr	r5, [r0, #4]
 23fba78:	4668      	mov	r0, sp
 23fba7a:	f7ff ff5d 	bl	23fb938 <_ZN8particle16ApplicationAssetC1ERKS0_>
    return insert(0, vector);
}

template<typename T, typename AllocatorT>
inline bool spark::Vector<T, AllocatorT>::insert(int i, T value) {
    if (size_ + 1 > capacity_ && !realloc(size_ + 1)) {
 23fba7e:	e9d4 1301 	ldrd	r1, r3, [r4, #4]
 23fba82:	4299      	cmp	r1, r3
 23fba84:	da0f      	bge.n	23fbaa6 <_ZN5spark6VectorIN8particle16ApplicationAssetENS_16DefaultAllocatorEE6appendES2_.isra.0+0x36>
        return false;
    }
    T* const p = data_ + i;
 23fba86:	6823      	ldr	r3, [r4, #0]
    move(p + 1, p, data_ + size_);
 23fba88:	6862      	ldr	r2, [r4, #4]
    T* const p = data_ + i;
 23fba8a:	eb03 1585 	add.w	r5, r3, r5, lsl #6
    move(p + 1, p, data_ + size_);
 23fba8e:	4629      	mov	r1, r5
 23fba90:	eb03 1282 	add.w	r2, r3, r2, lsl #6
 23fba94:	f105 0040 	add.w	r0, r5, #64	; 0x40
 23fba98:	f7ff ff84 	bl	23fb9a4 <_ZN5spark6VectorIN8particle16ApplicationAssetENS_16DefaultAllocatorEE4moveIS2_Li0EEEvPS2_S6_S6_>
    new(p) T(std::move(value));
 23fba9c:	b975      	cbnz	r5, 23fbabc <_ZN5spark6VectorIN8particle16ApplicationAssetENS_16DefaultAllocatorEE6appendES2_.isra.0+0x4c>
    ++size_;
 23fba9e:	6863      	ldr	r3, [r4, #4]
 23fbaa0:	3301      	adds	r3, #1
 23fbaa2:	6063      	str	r3, [r4, #4]
    return true;
 23fbaa4:	e005      	b.n	23fbab2 <_ZN5spark6VectorIN8particle16ApplicationAssetENS_16DefaultAllocatorEE6appendES2_.isra.0+0x42>
    if (size_ + 1 > capacity_ && !realloc(size_ + 1)) {
 23fbaa6:	4620      	mov	r0, r4
 23fbaa8:	3101      	adds	r1, #1
 23fbaaa:	f7ff ffa7 	bl	23fb9fc <_ZN5spark6VectorIN8particle16ApplicationAssetENS_16DefaultAllocatorEE7reallocIS2_Li0EEEbi>
 23fbaae:	2800      	cmp	r0, #0
 23fbab0:	d1e9      	bne.n	23fba86 <_ZN5spark6VectorIN8particle16ApplicationAssetENS_16DefaultAllocatorEE6appendES2_.isra.0+0x16>
    return insert(size_, std::move(value));
 23fbab2:	4668      	mov	r0, sp
 23fbab4:	f7ff ffba 	bl	23fba2c <_ZN8particle16ApplicationAssetD1Ev>
}
 23fbab8:	b011      	add	sp, #68	; 0x44
 23fbaba:	bd30      	pop	{r4, r5, pc}
    new(p) T(std::move(value));
 23fbabc:	4669      	mov	r1, sp
 23fbabe:	4628      	mov	r0, r5
 23fbac0:	f7ff ff3a 	bl	23fb938 <_ZN8particle16ApplicationAssetC1ERKS0_>
 23fbac4:	e7eb      	b.n	23fba9e <_ZN5spark6VectorIN8particle16ApplicationAssetENS_16DefaultAllocatorEE6appendES2_.isra.0+0x2e>

023fbac6 <_ZN11SystemClass15assetsAvailableEv>:
spark::Vector<ApplicationAsset> SystemClass::assetsAvailable() {
 23fbac6:	b570      	push	{r4, r5, r6, lr}
        capacity_(0) {
 23fbac8:	2400      	movs	r4, #0
    asset_manager_info info = {};
 23fbaca:	261c      	movs	r6, #28
spark::Vector<ApplicationAsset> SystemClass::assetsAvailable() {
 23fbacc:	b098      	sub	sp, #96	; 0x60
    asset_manager_info info = {};
 23fbace:	4621      	mov	r1, r4
 23fbad0:	e9c0 4400 	strd	r4, r4, [r0]
 23fbad4:	6084      	str	r4, [r0, #8]
 23fbad6:	4632      	mov	r2, r6
spark::Vector<ApplicationAsset> SystemClass::assetsAvailable() {
 23fbad8:	4605      	mov	r5, r0
    asset_manager_info info = {};
 23fbada:	a801      	add	r0, sp, #4
 23fbadc:	f002 fe2b 	bl	23fe736 <memset>
    int r = asset_manager_get_info(&info, nullptr);
 23fbae0:	4621      	mov	r1, r4
 23fbae2:	a801      	add	r0, sp, #4
    info.size = sizeof(info);
 23fbae4:	f8ad 6004 	strh.w	r6, [sp, #4]
    int r = asset_manager_get_info(&info, nullptr);
 23fbae8:	f7ff fd02 	bl	23fb4f0 <asset_manager_get_info>
    if (r) {
 23fbaec:	4604      	mov	r4, r0
 23fbaee:	b9c0      	cbnz	r0, 23fbb22 <_ZN11SystemClass15assetsAvailableEv+0x5c>
    for (size_t i = 0; i < info.available_count; i++) {
 23fbaf0:	f8bd 301c 	ldrh.w	r3, [sp, #28]
 23fbaf4:	42a3      	cmp	r3, r4
 23fbaf6:	d910      	bls.n	23fbb1a <_ZN11SystemClass15assetsAvailableEv+0x54>
        assets.append(ApplicationAsset(a));
 23fbaf8:	9b06      	ldr	r3, [sp, #24]
        asset_manager_asset* a = (asset_manager_asset*)(((uint8_t*)info.available) + info.asset_size * i);
 23fbafa:	f8bd 100c 	ldrh.w	r1, [sp, #12]
        assets.append(ApplicationAsset(a));
 23fbafe:	a808      	add	r0, sp, #32
 23fbb00:	fb04 3101 	mla	r1, r4, r1, r3
 23fbb04:	f000 fa0e 	bl	23fbf24 <_ZN8particle16ApplicationAssetC1EPK19asset_manager_asset>
 23fbb08:	4628      	mov	r0, r5
 23fbb0a:	a908      	add	r1, sp, #32
 23fbb0c:	f7ff ffb0 	bl	23fba70 <_ZN5spark6VectorIN8particle16ApplicationAssetENS_16DefaultAllocatorEE6appendES2_.isra.0>
 23fbb10:	a808      	add	r0, sp, #32
 23fbb12:	f7ff ff8b 	bl	23fba2c <_ZN8particle16ApplicationAssetD1Ev>
    for (size_t i = 0; i < info.available_count; i++) {
 23fbb16:	3401      	adds	r4, #1
 23fbb18:	e7ea      	b.n	23fbaf0 <_ZN11SystemClass15assetsAvailableEv+0x2a>
    SCOPE_GUARD({
 23fbb1a:	2100      	movs	r1, #0
 23fbb1c:	a801      	add	r0, sp, #4
 23fbb1e:	f7ff fcf5 	bl	23fb50c <asset_manager_free_info>
}
 23fbb22:	4628      	mov	r0, r5
 23fbb24:	b018      	add	sp, #96	; 0x60
 23fbb26:	bd70      	pop	{r4, r5, r6, pc}

023fbb28 <_ZN8particle16ApplicationAssetD0Ev>:
 23fbb28:	b510      	push	{r4, lr}
 23fbb2a:	4604      	mov	r4, r0
 23fbb2c:	f7ff ff7e 	bl	23fba2c <_ZN8particle16ApplicationAssetD1Ev>
 23fbb30:	4620      	mov	r0, r4
 23fbb32:	2140      	movs	r1, #64	; 0x40
 23fbb34:	f7fc ffc1 	bl	23f8aba <_ZdlPvj>
 23fbb38:	4620      	mov	r0, r4
 23fbb3a:	bd10      	pop	{r4, pc}

023fbb3c <_GLOBAL__sub_I_System>:
} // namespace particle

// particle::Flag<TagT, ValueT>
template<typename TagT, typename ValueT>
inline particle::Flag<TagT, ValueT>::Flag(ValueT val) :
        val_(val) {
 23fbb3c:	2202      	movs	r2, #2

class SystemSleepResult {
public:
    SystemSleepResult()
            : wakeupSource_(nullptr),
              error_(SYSTEM_ERROR_NONE) {
 23fbb3e:	2000      	movs	r0, #0
 23fbb40:	4b04      	ldr	r3, [pc, #16]	; (23fbb54 <_GLOBAL__sub_I_System+0x18>)
 23fbb42:	601a      	str	r2, [r3, #0]
 23fbb44:	4b04      	ldr	r3, [pc, #16]	; (23fbb58 <_GLOBAL__sub_I_System+0x1c>)
    SleepResult() {}
 23fbb46:	4a05      	ldr	r2, [pc, #20]	; (23fbb5c <_GLOBAL__sub_I_System+0x20>)
              error_(SYSTEM_ERROR_NONE) {
 23fbb48:	e9c3 0000 	strd	r0, r0, [r3]
    SleepResult() {}
 23fbb4c:	609a      	str	r2, [r3, #8]

class SystemClass {
public:

    SystemClass(System_Mode_TypeDef mode = DEFAULT) {
        set_system_mode(mode);
 23fbb4e:	f7ff bb9b 	b.w	23fb288 <set_system_mode>
 23fbb52:	bf00      	nop
 23fbb54:	1007ae68 	.word	0x1007ae68
 23fbb58:	1007ae5c 	.word	0x1007ae5c
 23fbb5c:	ffff0000 	.word	0xffff0000

023fbb60 <_ZN6StringD1Ev>:
	init();
	char buf[33];
	dtoa(value, decimalPlaces, buf);
        *this = buf;
}
String::~String()
 23fbb60:	b510      	push	{r4, lr}
 23fbb62:	4604      	mov	r4, r0
{
	free(buffer);
 23fbb64:	6800      	ldr	r0, [r0, #0]
 23fbb66:	f7ff fd4f 	bl	23fb608 <free>
}
 23fbb6a:	4620      	mov	r0, r4
 23fbb6c:	bd10      	pop	{r4, pc}

023fbb6e <_ZN6String10invalidateEv>:
	len = 0;
	flags = 0;
}

void String::invalidate(void)
{
 23fbb6e:	b510      	push	{r4, lr}
 23fbb70:	4604      	mov	r4, r0
	if (buffer) free(buffer);
 23fbb72:	6800      	ldr	r0, [r0, #0]
 23fbb74:	b108      	cbz	r0, 23fbb7a <_ZN6String10invalidateEv+0xc>
 23fbb76:	f7ff fd47 	bl	23fb608 <free>
	buffer = NULL;
 23fbb7a:	2300      	movs	r3, #0
	capacity = len = 0;
 23fbb7c:	e9c4 3301 	strd	r3, r3, [r4, #4]
	buffer = NULL;
 23fbb80:	6023      	str	r3, [r4, #0]
}
 23fbb82:	bd10      	pop	{r4, pc}

023fbb84 <_ZN6String12changeBufferEj>:
	}
	return 0;
}

unsigned char String::changeBuffer(unsigned int maxStrLen)
{
 23fbb84:	b538      	push	{r3, r4, r5, lr}
 23fbb86:	4604      	mov	r4, r0
 23fbb88:	460d      	mov	r5, r1
	char *newbuffer = (char *)realloc(buffer, maxStrLen + 1);
 23fbb8a:	6800      	ldr	r0, [r0, #0]
 23fbb8c:	3101      	adds	r1, #1
 23fbb8e:	f7ff fd49 	bl	23fb624 <realloc>
	if (newbuffer) {
 23fbb92:	b110      	cbz	r0, 23fbb9a <_ZN6String12changeBufferEj+0x16>
		buffer = newbuffer;
		capacity = maxStrLen;
 23fbb94:	e9c4 0500 	strd	r0, r5, [r4]
		return 1;
 23fbb98:	2001      	movs	r0, #1
	}
	return 0;
}
 23fbb9a:	bd38      	pop	{r3, r4, r5, pc}

023fbb9c <_ZN6String7reserveEj>:
{
 23fbb9c:	b510      	push	{r4, lr}
	if (buffer && capacity >= size) return 1;
 23fbb9e:	6803      	ldr	r3, [r0, #0]
{
 23fbba0:	4604      	mov	r4, r0
	if (buffer && capacity >= size) return 1;
 23fbba2:	b123      	cbz	r3, 23fbbae <_ZN6String7reserveEj+0x12>
 23fbba4:	6843      	ldr	r3, [r0, #4]
 23fbba6:	428b      	cmp	r3, r1
 23fbba8:	d301      	bcc.n	23fbbae <_ZN6String7reserveEj+0x12>
 23fbbaa:	2001      	movs	r0, #1
}
 23fbbac:	bd10      	pop	{r4, pc}
	if (changeBuffer(size)) {
 23fbbae:	4620      	mov	r0, r4
 23fbbb0:	f7ff ffe8 	bl	23fbb84 <_ZN6String12changeBufferEj>
 23fbbb4:	2800      	cmp	r0, #0
 23fbbb6:	d0f9      	beq.n	23fbbac <_ZN6String7reserveEj+0x10>
		if (len == 0) buffer[0] = 0;
 23fbbb8:	68a3      	ldr	r3, [r4, #8]
 23fbbba:	2b00      	cmp	r3, #0
 23fbbbc:	d1f5      	bne.n	23fbbaa <_ZN6String7reserveEj+0xe>
 23fbbbe:	6822      	ldr	r2, [r4, #0]
 23fbbc0:	7013      	strb	r3, [r2, #0]
 23fbbc2:	e7f2      	b.n	23fbbaa <_ZN6String7reserveEj+0xe>

023fbbc4 <_ZN6String4copyEPKcj>:
/*********************************************/
/*  Copy and Move                            */
/*********************************************/

String & String::copy(const char *cstr, unsigned int length)
{
 23fbbc4:	b537      	push	{r0, r1, r2, r4, r5, lr}
 23fbbc6:	460d      	mov	r5, r1
	if (!reserve(length)) {
 23fbbc8:	4611      	mov	r1, r2
 23fbbca:	9201      	str	r2, [sp, #4]
{
 23fbbcc:	4604      	mov	r4, r0
	if (!reserve(length)) {
 23fbbce:	f7ff ffe5 	bl	23fbb9c <_ZN6String7reserveEj>
 23fbbd2:	9a01      	ldr	r2, [sp, #4]
 23fbbd4:	b928      	cbnz	r0, 23fbbe2 <_ZN6String4copyEPKcj+0x1e>
		invalidate();
 23fbbd6:	4620      	mov	r0, r4
 23fbbd8:	f7ff ffc9 	bl	23fbb6e <_ZN6String10invalidateEv>
	}
	len = length;
	memcpy(buffer, cstr, length);
	buffer[len] = 0;
	return *this;
}
 23fbbdc:	4620      	mov	r0, r4
 23fbbde:	b003      	add	sp, #12
 23fbbe0:	bd30      	pop	{r4, r5, pc}
	memcpy(buffer, cstr, length);
 23fbbe2:	4629      	mov	r1, r5
	len = length;
 23fbbe4:	60a2      	str	r2, [r4, #8]
	memcpy(buffer, cstr, length);
 23fbbe6:	6820      	ldr	r0, [r4, #0]
 23fbbe8:	f002 fd7e 	bl	23fe6e8 <memcpy>
	buffer[len] = 0;
 23fbbec:	2100      	movs	r1, #0
 23fbbee:	6822      	ldr	r2, [r4, #0]
 23fbbf0:	68a3      	ldr	r3, [r4, #8]
 23fbbf2:	54d1      	strb	r1, [r2, r3]
	return *this;
 23fbbf4:	e7f2      	b.n	23fbbdc <_ZN6String4copyEPKcj+0x18>

023fbbf6 <_ZN6StringC1EPK19__FlashStringHelper>:
	buffer = NULL;
 23fbbf6:	2300      	movs	r3, #0
String::String(const __FlashStringHelper *pstr)
 23fbbf8:	b513      	push	{r0, r1, r4, lr}
 23fbbfa:	4604      	mov	r4, r0
	capacity = 0;
 23fbbfc:	e9c0 3300 	strd	r3, r3, [r0]
	len = 0;
 23fbc00:	6083      	str	r3, [r0, #8]
	flags = 0;
 23fbc02:	7303      	strb	r3, [r0, #12]
	if (cstr) copy(cstr, strlen(cstr));
 23fbc04:	b141      	cbz	r1, 23fbc18 <_ZN6StringC1EPK19__FlashStringHelper+0x22>
	if (cstr) copy(cstr, strlen(cstr));
 23fbc06:	4608      	mov	r0, r1
 23fbc08:	9101      	str	r1, [sp, #4]
 23fbc0a:	f7fc ff2b 	bl	23f8a64 <strlen>
 23fbc0e:	9901      	ldr	r1, [sp, #4]
 23fbc10:	4602      	mov	r2, r0
 23fbc12:	4620      	mov	r0, r4
 23fbc14:	f7ff ffd6 	bl	23fbbc4 <_ZN6String4copyEPKcj>
}
 23fbc18:	4620      	mov	r0, r4
 23fbc1a:	b002      	add	sp, #8
 23fbc1c:	bd10      	pop	{r4, pc}

023fbc1e <_ZN6String4moveERS_>:
    return copy(reinterpret_cast<const char*>(pstr), length);
}

#ifdef __GXX_EXPERIMENTAL_CXX0X__
void String::move(String &rhs)
{
 23fbc1e:	b538      	push	{r3, r4, r5, lr}
 23fbc20:	4605      	mov	r5, r0
	if (buffer) {
 23fbc22:	6800      	ldr	r0, [r0, #0]
{
 23fbc24:	460c      	mov	r4, r1
	if (buffer) {
 23fbc26:	b170      	cbz	r0, 23fbc46 <_ZN6String4moveERS_+0x28>
		if (capacity >= rhs.len && rhs.buffer) {
 23fbc28:	686a      	ldr	r2, [r5, #4]
 23fbc2a:	688b      	ldr	r3, [r1, #8]
 23fbc2c:	429a      	cmp	r2, r3
 23fbc2e:	d308      	bcc.n	23fbc42 <_ZN6String4moveERS_+0x24>
 23fbc30:	6809      	ldr	r1, [r1, #0]
 23fbc32:	b131      	cbz	r1, 23fbc42 <_ZN6String4moveERS_+0x24>
			strcpy(buffer, rhs.buffer);
 23fbc34:	f002 fdcd 	bl	23fe7d2 <strcpy>
			len = rhs.len;
 23fbc38:	68a3      	ldr	r3, [r4, #8]
 23fbc3a:	60ab      	str	r3, [r5, #8]
			rhs.len = 0;
 23fbc3c:	2300      	movs	r3, #0
	buffer = rhs.buffer;
	capacity = rhs.capacity;
	len = rhs.len;
	rhs.buffer = NULL;
	rhs.capacity = 0;
	rhs.len = 0;
 23fbc3e:	60a3      	str	r3, [r4, #8]
}
 23fbc40:	bd38      	pop	{r3, r4, r5, pc}
			free(buffer);
 23fbc42:	f7ff fce1 	bl	23fb608 <free>
	buffer = rhs.buffer;
 23fbc46:	6823      	ldr	r3, [r4, #0]
 23fbc48:	602b      	str	r3, [r5, #0]
	capacity = rhs.capacity;
 23fbc4a:	6863      	ldr	r3, [r4, #4]
 23fbc4c:	606b      	str	r3, [r5, #4]
	len = rhs.len;
 23fbc4e:	68a3      	ldr	r3, [r4, #8]
 23fbc50:	60ab      	str	r3, [r5, #8]
	rhs.buffer = NULL;
 23fbc52:	2300      	movs	r3, #0
	rhs.capacity = 0;
 23fbc54:	e9c4 3300 	strd	r3, r3, [r4]
 23fbc58:	e7f1      	b.n	23fbc3e <_ZN6String4moveERS_+0x20>

023fbc5a <_ZN6StringC1EOS_>:
	buffer = NULL;
 23fbc5a:	2300      	movs	r3, #0
String::String(String &&rval)
 23fbc5c:	b510      	push	{r4, lr}
 23fbc5e:	4604      	mov	r4, r0
	capacity = 0;
 23fbc60:	e9c0 3300 	strd	r3, r3, [r0]
	len = 0;
 23fbc64:	6083      	str	r3, [r0, #8]
	flags = 0;
 23fbc66:	7303      	strb	r3, [r0, #12]
	move(rval);
 23fbc68:	f7ff ffd9 	bl	23fbc1e <_ZN6String4moveERS_>
}
 23fbc6c:	4620      	mov	r0, r4
 23fbc6e:	bd10      	pop	{r4, pc}

023fbc70 <_ZN6StringaSERKS_>:
#endif

String & String::operator = (const String &rhs)
{
	if (this == &rhs) return *this;
 23fbc70:	4288      	cmp	r0, r1
{
 23fbc72:	b510      	push	{r4, lr}
 23fbc74:	4604      	mov	r4, r0
	if (this == &rhs) return *this;
 23fbc76:	d005      	beq.n	23fbc84 <_ZN6StringaSERKS_+0x14>

	if (rhs.buffer) copy(rhs.buffer, rhs.len);
 23fbc78:	680b      	ldr	r3, [r1, #0]
 23fbc7a:	b12b      	cbz	r3, 23fbc88 <_ZN6StringaSERKS_+0x18>
 23fbc7c:	688a      	ldr	r2, [r1, #8]
 23fbc7e:	4619      	mov	r1, r3
 23fbc80:	f7ff ffa0 	bl	23fbbc4 <_ZN6String4copyEPKcj>
	else invalidate();

	return *this;
}
 23fbc84:	4620      	mov	r0, r4
 23fbc86:	bd10      	pop	{r4, pc}
	else invalidate();
 23fbc88:	f7ff ff71 	bl	23fbb6e <_ZN6String10invalidateEv>
 23fbc8c:	e7fa      	b.n	23fbc84 <_ZN6StringaSERKS_+0x14>

023fbc8e <_ZN6StringC1ERKS_>:
	buffer = NULL;
 23fbc8e:	2300      	movs	r3, #0
String::String(const String &value)
 23fbc90:	b510      	push	{r4, lr}
 23fbc92:	4604      	mov	r4, r0
	capacity = 0;
 23fbc94:	e9c0 3300 	strd	r3, r3, [r0]
	len = 0;
 23fbc98:	6083      	str	r3, [r0, #8]
	flags = 0;
 23fbc9a:	7303      	strb	r3, [r0, #12]
	*this = value;
 23fbc9c:	f7ff ffe8 	bl	23fbc70 <_ZN6StringaSERKS_>
}
 23fbca0:	4620      	mov	r0, r4
 23fbca2:	bd10      	pop	{r4, pc}

023fbca4 <_ZN6StringaSEOS_>:
}

#ifdef __GXX_EXPERIMENTAL_CXX0X__
String & String::operator = (String &&rval)
{
	if (this != &rval) move(rval);
 23fbca4:	4288      	cmp	r0, r1
{
 23fbca6:	b510      	push	{r4, lr}
 23fbca8:	4604      	mov	r4, r0
	if (this != &rval) move(rval);
 23fbcaa:	d001      	beq.n	23fbcb0 <_ZN6StringaSEOS_+0xc>
 23fbcac:	f7ff ffb7 	bl	23fbc1e <_ZN6String4moveERS_>
	return *this;
}
 23fbcb0:	4620      	mov	r0, r4
 23fbcb2:	bd10      	pop	{r4, pc}

023fbcb4 <_ZNK6String6equalsEPKc>:
{
	return (len == s2.len && compareTo(s2) == 0);
}

unsigned char String::equals(const char *cstr) const
{
 23fbcb4:	b508      	push	{r3, lr}
	if (len == 0) return (cstr == NULL || *cstr == 0);
 23fbcb6:	6882      	ldr	r2, [r0, #8]
 23fbcb8:	b93a      	cbnz	r2, 23fbcca <_ZNK6String6equalsEPKc+0x16>
 23fbcba:	b121      	cbz	r1, 23fbcc6 <_ZNK6String6equalsEPKc+0x12>
 23fbcbc:	7808      	ldrb	r0, [r1, #0]
	if (cstr == NULL) return buffer[0] == 0;
	return strcmp(buffer, cstr) == 0;
 23fbcbe:	fab0 f080 	clz	r0, r0
 23fbcc2:	0940      	lsrs	r0, r0, #5
 23fbcc4:	e000      	b.n	23fbcc8 <_ZNK6String6equalsEPKc+0x14>
	if (len == 0) return (cstr == NULL || *cstr == 0);
 23fbcc6:	2001      	movs	r0, #1
}
 23fbcc8:	bd08      	pop	{r3, pc}
	if (cstr == NULL) return buffer[0] == 0;
 23fbcca:	6800      	ldr	r0, [r0, #0]
 23fbccc:	b909      	cbnz	r1, 23fbcd2 <_ZNK6String6equalsEPKc+0x1e>
 23fbcce:	7800      	ldrb	r0, [r0, #0]
 23fbcd0:	e7f5      	b.n	23fbcbe <_ZNK6String6equalsEPKc+0xa>
	return strcmp(buffer, cstr) == 0;
 23fbcd2:	f7fc febd 	bl	23f8a50 <strcmp>
 23fbcd6:	e7f2      	b.n	23fbcbe <_ZNK6String6equalsEPKc+0xa>

023fbcd8 <_ZNK6String10startsWithERKS_j>:
	if (len < s2.len) return 0;
	return startsWith(s2, 0);
}

unsigned char String::startsWith( const String &s2, unsigned int offset ) const
{
 23fbcd8:	4613      	mov	r3, r2
 23fbcda:	b510      	push	{r4, lr}
	if (offset > len - s2.len || !buffer || !s2.buffer) return 0;
 23fbcdc:	688a      	ldr	r2, [r1, #8]
 23fbcde:	6884      	ldr	r4, [r0, #8]
 23fbce0:	1aa4      	subs	r4, r4, r2
 23fbce2:	429c      	cmp	r4, r3
 23fbce4:	d30a      	bcc.n	23fbcfc <_ZNK6String10startsWithERKS_j+0x24>
 23fbce6:	6800      	ldr	r0, [r0, #0]
 23fbce8:	b138      	cbz	r0, 23fbcfa <_ZNK6String10startsWithERKS_j+0x22>
 23fbcea:	6809      	ldr	r1, [r1, #0]
 23fbcec:	b141      	cbz	r1, 23fbd00 <_ZNK6String10startsWithERKS_j+0x28>
	return strncmp( &buffer[offset], s2.buffer, s2.len ) == 0;
 23fbcee:	4418      	add	r0, r3
 23fbcf0:	f002 fd95 	bl	23fe81e <strncmp>
 23fbcf4:	fab0 f080 	clz	r0, r0
 23fbcf8:	0940      	lsrs	r0, r0, #5
}
 23fbcfa:	bd10      	pop	{r4, pc}
	if (offset > len - s2.len || !buffer || !s2.buffer) return 0;
 23fbcfc:	2000      	movs	r0, #0
 23fbcfe:	e7fc      	b.n	23fbcfa <_ZNK6String10startsWithERKS_j+0x22>
 23fbd00:	4608      	mov	r0, r1
 23fbd02:	e7fa      	b.n	23fbcfa <_ZNK6String10startsWithERKS_j+0x22>

023fbd04 <_ZNK6String10startsWithERKS_>:
	if (len < s2.len) return 0;
 23fbd04:	6882      	ldr	r2, [r0, #8]
 23fbd06:	688b      	ldr	r3, [r1, #8]
 23fbd08:	429a      	cmp	r2, r3
 23fbd0a:	d302      	bcc.n	23fbd12 <_ZNK6String10startsWithERKS_+0xe>
	return startsWith(s2, 0);
 23fbd0c:	2200      	movs	r2, #0
 23fbd0e:	f7ff bfe3 	b.w	23fbcd8 <_ZNK6String10startsWithERKS_j>
}
 23fbd12:	2000      	movs	r0, #0
 23fbd14:	4770      	bx	lr

023fbd16 <_ZNSt16_Sp_counted_baseILN9__gnu_cxx12_Lock_policyE0EE10_M_releaseEv>:
    {
 23fbd16:	b510      	push	{r4, lr}
      if (--_M_use_count == 0)
 23fbd18:	6843      	ldr	r3, [r0, #4]
    {
 23fbd1a:	4604      	mov	r4, r0
      if (--_M_use_count == 0)
 23fbd1c:	3b01      	subs	r3, #1
 23fbd1e:	6043      	str	r3, [r0, #4]
 23fbd20:	b963      	cbnz	r3, 23fbd3c <_ZNSt16_Sp_counted_baseILN9__gnu_cxx12_Lock_policyE0EE10_M_releaseEv+0x26>
          _M_dispose();
 23fbd22:	6803      	ldr	r3, [r0, #0]
 23fbd24:	689b      	ldr	r3, [r3, #8]
 23fbd26:	4798      	blx	r3
          if (--_M_weak_count == 0)
 23fbd28:	68a3      	ldr	r3, [r4, #8]
 23fbd2a:	3b01      	subs	r3, #1
 23fbd2c:	60a3      	str	r3, [r4, #8]
 23fbd2e:	b92b      	cbnz	r3, 23fbd3c <_ZNSt16_Sp_counted_baseILN9__gnu_cxx12_Lock_policyE0EE10_M_releaseEv+0x26>
            _M_destroy();
 23fbd30:	6823      	ldr	r3, [r4, #0]
 23fbd32:	4620      	mov	r0, r4
    }
 23fbd34:	e8bd 4010 	ldmia.w	sp!, {r4, lr}
            _M_destroy();
 23fbd38:	68db      	ldr	r3, [r3, #12]
 23fbd3a:	4718      	bx	r3
    }
 23fbd3c:	bd10      	pop	{r4, pc}

023fbd3e <_ZN5spark6VectorI6StringNS_16DefaultAllocatorEED1Ev>:
inline spark::Vector<T, AllocatorT>::~Vector() {
 23fbd3e:	b570      	push	{r4, r5, r6, lr}
 23fbd40:	4604      	mov	r4, r0
    destruct(data_, data_ + size_);
 23fbd42:	e9d0 5300 	ldrd	r5, r3, [r0]
 23fbd46:	eb05 1603 	add.w	r6, r5, r3, lsl #4
        for (; p != end; ++p) {
 23fbd4a:	42ae      	cmp	r6, r5
 23fbd4c:	d004      	beq.n	23fbd58 <_ZN5spark6VectorI6StringNS_16DefaultAllocatorEED1Ev+0x1a>
            p->~T();
 23fbd4e:	4628      	mov	r0, r5
 23fbd50:	f7ff ff06 	bl	23fbb60 <_ZN6StringD1Ev>
        for (; p != end; ++p) {
 23fbd54:	3510      	adds	r5, #16
 23fbd56:	e7f8      	b.n	23fbd4a <_ZN5spark6VectorI6StringNS_16DefaultAllocatorEED1Ev+0xc>
    ::free(ptr);
 23fbd58:	6820      	ldr	r0, [r4, #0]
 23fbd5a:	f7ff fc55 	bl	23fb608 <free>
}
 23fbd5e:	4620      	mov	r0, r4
 23fbd60:	bd70      	pop	{r4, r5, r6, pc}

023fbd62 <_ZSt4swapISt9_Any_dataENSt9enable_ifIXsrSt6__and_IJSt6__not_ISt15__is_tuple_likeIT_EESt21is_move_constructibleIS5_ESt18is_move_assignableIS5_EEE5valueEvE4typeERS5_SF_>:
			      is_move_constructible<_Tp>,
			      is_move_assignable<_Tp>>::value>::type
#else
    void
#endif
    swap(_Tp& __a, _Tp& __b)
 23fbd62:	b513      	push	{r0, r1, r4, lr}
    {
#if __cplusplus < 201103L
      // concept requirements
      __glibcxx_function_requires(_SGIAssignableConcept<_Tp>)
#endif
      _Tp __tmp = _GLIBCXX_MOVE(__a);
 23fbd64:	466c      	mov	r4, sp
    swap(_Tp& __a, _Tp& __b)
 23fbd66:	460b      	mov	r3, r1
 23fbd68:	4602      	mov	r2, r0
      _Tp __tmp = _GLIBCXX_MOVE(__a);
 23fbd6a:	e9d0 0100 	ldrd	r0, r1, [r0]
 23fbd6e:	e884 0003 	stmia.w	r4, {r0, r1}
      __a = _GLIBCXX_MOVE(__b);
 23fbd72:	e893 0003 	ldmia.w	r3, {r0, r1}
 23fbd76:	e882 0003 	stmia.w	r2, {r0, r1}
      __b = _GLIBCXX_MOVE(__tmp);
 23fbd7a:	e894 0003 	ldmia.w	r4, {r0, r1}
 23fbd7e:	e883 0003 	stmia.w	r3, {r0, r1}
    }
 23fbd82:	b002      	add	sp, #8
 23fbd84:	bd10      	pop	{r4, pc}
	...

023fbd88 <_GLOBAL__sub_I__ZN8particle3ble13WiringBleLock6mutex_E>:
    /**
     * Creates a shared mutex.
     */
    RecursiveMutex(os_mutex_recursive_t handle) : handle_(handle) {}

    RecursiveMutex() : handle_(nullptr)
 23fbd88:	2300      	movs	r3, #0
 23fbd8a:	4802      	ldr	r0, [pc, #8]	; (23fbd94 <_GLOBAL__sub_I__ZN8particle3ble13WiringBleLock6mutex_E+0xc>)
 23fbd8c:	6003      	str	r3, [r0, #0]
    {
        os_mutex_recursive_create(&handle_);
 23fbd8e:	f7fe bfdb 	b.w	23fad48 <os_mutex_recursive_create>
 23fbd92:	bf00      	nop
 23fbd94:	1007ae6c 	.word	0x1007ae6c

023fbd98 <_ZN5Print5writeEPKhj>:

// Public Methods //////////////////////////////////////////////////////////////

/* default implementation: may be overridden */
size_t Print::write(const uint8_t *buffer, size_t size)
{
 23fbd98:	b5f8      	push	{r3, r4, r5, r6, r7, lr}
 23fbd9a:	4606      	mov	r6, r0
 23fbd9c:	460d      	mov	r5, r1
  size_t n = 0;
 23fbd9e:	2400      	movs	r4, #0
 23fbda0:	188f      	adds	r7, r1, r2
  while (size--) {
 23fbda2:	42bd      	cmp	r5, r7
 23fbda4:	d00c      	beq.n	23fbdc0 <_ZN5Print5writeEPKhj+0x28>
     int chunk = write(*buffer++);
 23fbda6:	6833      	ldr	r3, [r6, #0]
 23fbda8:	4630      	mov	r0, r6
 23fbdaa:	689b      	ldr	r3, [r3, #8]
 23fbdac:	f815 1b01 	ldrb.w	r1, [r5], #1
 23fbdb0:	4798      	blx	r3
     if (chunk>=0)
 23fbdb2:	1e03      	subs	r3, r0, #0
 23fbdb4:	db01      	blt.n	23fbdba <_ZN5Print5writeEPKhj+0x22>
         n += chunk;
 23fbdb6:	441c      	add	r4, r3
  while (size--) {
 23fbdb8:	e7f3      	b.n	23fbda2 <_ZN5Print5writeEPKhj+0xa>
     int chunk = write(*buffer++);
 23fbdba:	2c00      	cmp	r4, #0
 23fbdbc:	bf08      	it	eq
 23fbdbe:	461c      	moveq	r4, r3
             n = chunk;
         break;
     }
  }
  return n;
}
 23fbdc0:	4620      	mov	r0, r4
 23fbdc2:	bdf8      	pop	{r3, r4, r5, r6, r7, pc}

023fbdc4 <_ZN5Print5printEc>:
  return write(str);
}

size_t Print::print(char c)
{
  return write(c);
 23fbdc4:	6803      	ldr	r3, [r0, #0]
 23fbdc6:	689b      	ldr	r3, [r3, #8]
 23fbdc8:	4718      	bx	r3

023fbdca <_ZN5Print11printNumberEmh>:

size_t Print::printNumber(unsigned long n, uint8_t base) {
  char buf[8 * sizeof(n) + 1]; // Assumes 8-bit chars plus zero byte.
  char *str = &buf[sizeof(buf) - 1];

  *str = '\0';
 23fbdca:	2300      	movs	r3, #0

  // prevent crash if called with base == 1
  if (base < 2) base = 10;
 23fbdcc:	2a01      	cmp	r2, #1
 23fbdce:	bf98      	it	ls
 23fbdd0:	220a      	movls	r2, #10
size_t Print::printNumber(unsigned long n, uint8_t base) {
 23fbdd2:	b530      	push	{r4, r5, lr}
 23fbdd4:	b08b      	sub	sp, #44	; 0x2c
  *str = '\0';
 23fbdd6:	f88d 3024 	strb.w	r3, [sp, #36]	; 0x24
  if (base < 2) base = 10;
 23fbdda:	ac09      	add	r4, sp, #36	; 0x24

  do {
   decltype(n) m = n;
   n /= base;
 23fbddc:	460d      	mov	r5, r1
 23fbdde:	fbb1 f1f2 	udiv	r1, r1, r2
   char c = m - base * n;
 23fbde2:	fb01 5312 	mls	r3, r1, r2, r5
 23fbde6:	f003 03ff 	and.w	r3, r3, #255	; 0xff
   *--str = c < 10 ? c + '0' : c + 'A' - 10;
 23fbdea:	2b09      	cmp	r3, #9
 23fbdec:	bf94      	ite	ls
 23fbdee:	3330      	addls	r3, #48	; 0x30
 23fbdf0:	3337      	addhi	r3, #55	; 0x37
 23fbdf2:	b2db      	uxtb	r3, r3
  } while(n);
 23fbdf4:	42aa      	cmp	r2, r5
   *--str = c < 10 ? c + '0' : c + 'A' - 10;
 23fbdf6:	f804 3d01 	strb.w	r3, [r4, #-1]!
  } while(n);
 23fbdfa:	d9ef      	bls.n	23fbddc <_ZN5Print11printNumberEmh+0x12>

  return write(str);
 23fbdfc:	4621      	mov	r1, r4
 23fbdfe:	f7fd fa37 	bl	23f9270 <_ZN5Print5writeEPKc>
}
 23fbe02:	b00b      	add	sp, #44	; 0x2c
 23fbe04:	bd30      	pop	{r4, r5, pc}

023fbe06 <_ZN8particle16ApplicationAsset4readEv>:
        return r;
    }
    return 0;
}

int ApplicationAsset::read() {
 23fbe06:	b507      	push	{r0, r1, r2, lr}
    char c;
    int r = read(&c, sizeof(c));
 23fbe08:	6803      	ldr	r3, [r0, #0]
 23fbe0a:	2201      	movs	r2, #1
 23fbe0c:	6a1b      	ldr	r3, [r3, #32]
 23fbe0e:	f10d 0107 	add.w	r1, sp, #7
 23fbe12:	4798      	blx	r3
    if (r == 1) {
 23fbe14:	2801      	cmp	r0, #1
        return c;
 23fbe16:	bf08      	it	eq
 23fbe18:	f89d 0007 	ldrbeq.w	r0, [sp, #7]
    }
    return r;
}
 23fbe1c:	b003      	add	sp, #12
 23fbe1e:	f85d fb04 	ldr.w	pc, [sp], #4

023fbe22 <_ZN8particle16ApplicationAsset4peekEv>:
        size -= actuallyRead;
    }
    return pos;
}

int ApplicationAsset::peek() {
 23fbe22:	b507      	push	{r0, r1, r2, lr}
    char c;
    int r = peek(&c, sizeof(c));
 23fbe24:	6803      	ldr	r3, [r0, #0]
 23fbe26:	2201      	movs	r2, #1
 23fbe28:	6a5b      	ldr	r3, [r3, #36]	; 0x24
 23fbe2a:	f10d 0107 	add.w	r1, sp, #7
 23fbe2e:	4798      	blx	r3
    if (r == 1) {
 23fbe30:	2801      	cmp	r0, #1
        return c;
 23fbe32:	bf08      	it	eq
 23fbe34:	f89d 0007 	ldrbeq.w	r0, [sp, #7]
    }
    return r;
}
 23fbe38:	b003      	add	sp, #12
 23fbe3a:	f85d fb04 	ldr.w	pc, [sp], #4

023fbe3e <_ZN8particle16ApplicationAsset5flushEv>:
    return asset_manager_skip(data_->stream, size, nullptr);
}

void ApplicationAsset::flush() {
    return;
}
 23fbe3e:	4770      	bx	lr

023fbe40 <_ZN8particle16ApplicationAsset5writeEh>:
    data_.reset();
}

size_t ApplicationAsset::write(uint8_t c) {
    return 0;
}
 23fbe40:	2000      	movs	r0, #0
 23fbe42:	4770      	bx	lr

023fbe44 <_ZNSt23_Sp_counted_ptr_inplaceIN8particle16ApplicationAsset4DataESaIS2_ELN9__gnu_cxx12_Lock_policyE0EED1Ev>:
      ~_Sp_counted_ptr_inplace() noexcept { }
 23fbe44:	4770      	bx	lr
	...

023fbe48 <_ZNSt23_Sp_counted_ptr_inplaceIN8particle16ApplicationAsset4DataESaIS2_ELN9__gnu_cxx12_Lock_policyE0EE14_M_get_deleterERKSt9type_info>:
	    ||
 23fbe48:	4b06      	ldr	r3, [pc, #24]	; (23fbe64 <_ZNSt23_Sp_counted_ptr_inplaceIN8particle16ApplicationAsset4DataESaIS2_ELN9__gnu_cxx12_Lock_policyE0EE14_M_get_deleterERKSt9type_info+0x1c>)
      _M_get_deleter(const std::type_info& __ti) noexcept override
 23fbe4a:	b510      	push	{r4, lr}
	    ||
 23fbe4c:	4299      	cmp	r1, r3
      __aligned_buffer(std::nullptr_t) { }

      void*
      _M_addr() noexcept
      {
        return static_cast<void*>(&_M_storage);
 23fbe4e:	f100 040c 	add.w	r4, r0, #12
 23fbe52:	d005      	beq.n	23fbe60 <_ZNSt23_Sp_counted_ptr_inplaceIN8particle16ApplicationAsset4DataESaIS2_ELN9__gnu_cxx12_Lock_policyE0EE14_M_get_deleterERKSt9type_info+0x18>
	    _Sp_make_shared_tag::_S_eq(__ti)
 23fbe54:	4608      	mov	r0, r1
 23fbe56:	f002 fb27 	bl	23fe4a8 <_ZNSt19_Sp_make_shared_tag5_S_eqERKSt9type_info>
	return nullptr;
 23fbe5a:	2800      	cmp	r0, #0
 23fbe5c:	bf08      	it	eq
 23fbe5e:	2400      	moveq	r4, #0
      }
 23fbe60:	4620      	mov	r0, r4
 23fbe62:	bd10      	pop	{r4, pc}
 23fbe64:	023ffaac 	.word	0x023ffaac

023fbe68 <_ZNSt23_Sp_counted_ptr_inplaceIN8particle16ApplicationAsset4DataESaIS2_ELN9__gnu_cxx12_Lock_policyE0EED0Ev>:
      ~_Sp_counted_ptr_inplace() noexcept { }
 23fbe68:	b510      	push	{r4, lr}
 23fbe6a:	4604      	mov	r4, r0
 23fbe6c:	2110      	movs	r1, #16
 23fbe6e:	f7fc fe24 	bl	23f8aba <_ZdlPvj>
 23fbe72:	4620      	mov	r0, r4
 23fbe74:	bd10      	pop	{r4, pc}

023fbe76 <_ZNSt23_Sp_counted_ptr_inplaceIN8particle16ApplicationAsset4DataESaIS2_ELN9__gnu_cxx12_Lock_policyE0EE10_M_destroyEv>:
	::operator delete(__p
 23fbe76:	2110      	movs	r1, #16
 23fbe78:	f7fc be1f 	b.w	23f8aba <_ZdlPvj>

023fbe7c <_ZNK8particle16ApplicationAsset4nameEv>:
String ApplicationAsset::name() const {
 23fbe7c:	b510      	push	{r4, lr}
 23fbe7e:	4604      	mov	r4, r0
    return name_;
 23fbe80:	3110      	adds	r1, #16
 23fbe82:	f7ff ff04 	bl	23fbc8e <_ZN6StringC1ERKS_>
}
 23fbe86:	4620      	mov	r0, r4
 23fbe88:	bd10      	pop	{r4, pc}

023fbe8a <_ZNK8particle16ApplicationAsset4sizeEv>:
}
 23fbe8a:	6ac0      	ldr	r0, [r0, #44]	; 0x2c
 23fbe8c:	4770      	bx	lr

023fbe8e <_ZNK8particle16ApplicationAsset7isValidEv>:
    return name_.length() > 0 && hash_.isValid();
 23fbe8e:	6983      	ldr	r3, [r0, #24]
 23fbe90:	b143      	cbz	r3, 23fbea4 <_ZNK8particle16ApplicationAsset7isValidEv+0x16>
inline const Buffer& AssetHash::hash() const {
    return hash_;
}

inline bool AssetHash::isValid() const {
    return type_ != Type::INVALID && hash_.size() > 0;
 23fbe92:	f990 3020 	ldrsb.w	r3, [r0, #32]
 23fbe96:	3301      	adds	r3, #1
 23fbe98:	d004      	beq.n	23fbea4 <_ZNK8particle16ApplicationAsset7isValidEv+0x16>
 23fbe9a:	6a80      	ldr	r0, [r0, #40]	; 0x28
 23fbe9c:	3800      	subs	r0, #0
 23fbe9e:	bf18      	it	ne
 23fbea0:	2001      	movne	r0, #1
 23fbea2:	4770      	bx	lr
 23fbea4:	2000      	movs	r0, #0
}
 23fbea6:	4770      	bx	lr

023fbea8 <_ZN8particle16ApplicationAsset4DataD1Ev>:

ApplicationAsset::Data::Data(asset_manager_stream* s)
        : stream(s) {
}

ApplicationAsset::Data::~Data() {
 23fbea8:	b510      	push	{r4, lr}
 23fbeaa:	4604      	mov	r4, r0
    if (stream) {
 23fbeac:	6800      	ldr	r0, [r0, #0]
 23fbeae:	b110      	cbz	r0, 23fbeb6 <_ZN8particle16ApplicationAsset4DataD1Ev+0xe>
        asset_manager_close(stream, nullptr);
 23fbeb0:	2100      	movs	r1, #0
 23fbeb2:	f7ff fb8d 	bl	23fb5d0 <asset_manager_close>
        stream = nullptr;
    }
}
 23fbeb6:	4620      	mov	r0, r4
 23fbeb8:	bd10      	pop	{r4, pc}

023fbeba <_ZNSt23_Sp_counted_ptr_inplaceIN8particle16ApplicationAsset4DataESaIS2_ELN9__gnu_cxx12_Lock_policyE0EE10_M_disposeEv>:

      template<typename _Up>
	void
	destroy(_Up* __p)
	noexcept(std::is_nothrow_destructible<_Up>::value)
	{ __p->~_Up(); }
 23fbeba:	300c      	adds	r0, #12
 23fbebc:	f7ff bff4 	b.w	23fbea8 <_ZN8particle16ApplicationAsset4DataD1Ev>

023fbec0 <_ZN8particle6BufferC1ERKS0_>:
inline Buffer::Buffer(const Buffer& other)
 23fbec0:	b538      	push	{r3, r4, r5, lr}
 23fbec2:	4604      	mov	r4, r0
 23fbec4:	460d      	mov	r5, r1
        : Buffer(other.size()) {
 23fbec6:	6849      	ldr	r1, [r1, #4]
 23fbec8:	f7ff fd11 	bl	23fb8ee <_ZN8particle6BufferC1Ej>
    if (size_ > 0 && other.size() > 0) {
 23fbecc:	6862      	ldr	r2, [r4, #4]
 23fbece:	b12a      	cbz	r2, 23fbedc <_ZN8particle6BufferC1ERKS0_+0x1c>
 23fbed0:	686b      	ldr	r3, [r5, #4]
 23fbed2:	b11b      	cbz	r3, 23fbedc <_ZN8particle6BufferC1ERKS0_+0x1c>
        memcpy(buffer_.get(), other.buffer_.get(), size_);
 23fbed4:	6829      	ldr	r1, [r5, #0]
 23fbed6:	6820      	ldr	r0, [r4, #0]
 23fbed8:	f002 fc06 	bl	23fe6e8 <memcpy>
    }
}
 23fbedc:	4620      	mov	r0, r4
 23fbede:	bd38      	pop	{r3, r4, r5, pc}

023fbee0 <_ZN8particle9AssetHashC1ERKNS_6BufferENS0_4TypeE>:
        : type_(Type::INVALID) {
 23fbee0:	23ff      	movs	r3, #255	; 0xff
inline AssetHash::AssetHash(const Buffer& hash, Type type)
 23fbee2:	b573      	push	{r0, r1, r4, r5, r6, lr}
 23fbee4:	4615      	mov	r5, r2
 23fbee6:	4604      	mov	r4, r0
 23fbee8:	460e      	mov	r6, r1
        : type_(Type::INVALID) {
 23fbeea:	f800 3b04 	strb.w	r3, [r0], #4
 23fbeee:	2100      	movs	r1, #0
 23fbef0:	f7ff fcfd 	bl	23fb8ee <_ZN8particle6BufferC1Ej>
    if (type == Type::SHA256 && hash.size() == SHA256_HASH_SIZE) {
 23fbef4:	b995      	cbnz	r5, 23fbf1c <_ZN8particle9AssetHashC1ERKNS_6BufferENS0_4TypeE+0x3c>
 23fbef6:	6873      	ldr	r3, [r6, #4]
 23fbef8:	2b20      	cmp	r3, #32
 23fbefa:	d10f      	bne.n	23fbf1c <_ZN8particle9AssetHashC1ERKNS_6BufferENS0_4TypeE+0x3c>
        hash_ = hash;
 23fbefc:	4631      	mov	r1, r6
 23fbefe:	4668      	mov	r0, sp
 23fbf00:	f7ff ffde 	bl	23fbec0 <_ZN8particle6BufferC1ERKS0_>
      __a = _GLIBCXX_MOVE(__b);
 23fbf04:	9a00      	ldr	r2, [sp, #0]
      _Tp __tmp = _GLIBCXX_MOVE(__a);
 23fbf06:	6863      	ldr	r3, [r4, #4]
      __a = _GLIBCXX_MOVE(__b);
 23fbf08:	6062      	str	r2, [r4, #4]
 23fbf0a:	9a01      	ldr	r2, [sp, #4]
      __b = _GLIBCXX_MOVE(__tmp);
 23fbf0c:	9300      	str	r3, [sp, #0]
      _Tp __tmp = _GLIBCXX_MOVE(__a);
 23fbf0e:	68a3      	ldr	r3, [r4, #8]
class Buffer {
 23fbf10:	4668      	mov	r0, sp
      __a = _GLIBCXX_MOVE(__b);
 23fbf12:	60a2      	str	r2, [r4, #8]
      __b = _GLIBCXX_MOVE(__tmp);
 23fbf14:	9301      	str	r3, [sp, #4]
 23fbf16:	f7ff fce2 	bl	23fb8de <_ZNSt10unique_ptrIA_cSt14default_deleteIS0_EED1Ev>
        type_ = type;
 23fbf1a:	7025      	strb	r5, [r4, #0]
}
 23fbf1c:	4620      	mov	r0, r4
 23fbf1e:	b002      	add	sp, #8
 23fbf20:	bd70      	pop	{r4, r5, r6, pc}
	...

023fbf24 <_ZN8particle16ApplicationAssetC1EPK19asset_manager_asset>:
ApplicationAsset::ApplicationAsset(const asset_manager_asset* asset)
 23fbf24:	b5f0      	push	{r4, r5, r6, r7, lr}
    virtual int available() = 0;
    virtual int read() = 0;
    virtual int peek() = 0;
    virtual void flush() = 0;

    Stream() {_timeout=1000;}
 23fbf26:	f44f 737a 	mov.w	r3, #1000	; 0x3e8
 23fbf2a:	2600      	movs	r6, #0
    ApplicationAsset() = default;
 23fbf2c:	4607      	mov	r7, r0
 23fbf2e:	e9c0 6301 	strd	r6, r3, [r0, #4]
 23fbf32:	4b31      	ldr	r3, [pc, #196]	; (23fbff8 <_ZN8particle16ApplicationAssetC1EPK19asset_manager_asset+0xd4>)
 23fbf34:	4604      	mov	r4, r0
 23fbf36:	f847 3b10 	str.w	r3, [r7], #16
 23fbf3a:	b089      	sub	sp, #36	; 0x24
 23fbf3c:	460d      	mov	r5, r1
 23fbf3e:	4638      	mov	r0, r7
 23fbf40:	492e      	ldr	r1, [pc, #184]	; (23fbffc <_ZN8particle16ApplicationAssetC1EPK19asset_manager_asset+0xd8>)
 23fbf42:	f7ff fe58 	bl	23fbbf6 <_ZN6StringC1EPK19__FlashStringHelper>
        : type_(Type::INVALID) {
 23fbf46:	23ff      	movs	r3, #255	; 0xff
 23fbf48:	4631      	mov	r1, r6
 23fbf4a:	f884 3020 	strb.w	r3, [r4, #32]
 23fbf4e:	f104 0024 	add.w	r0, r4, #36	; 0x24
 23fbf52:	f7ff fccc 	bl	23fb8ee <_ZN8particle6BufferC1Ej>
 23fbf56:	e9c4 660b 	strd	r6, r6, [r4, #44]	; 0x2c
      constexpr __shared_count() noexcept : _M_pi(0)
 23fbf5a:	e9c4 660e 	strd	r6, r6, [r4, #56]	; 0x38
 23fbf5e:	f884 6034 	strb.w	r6, [r4, #52]	; 0x34
    if (!asset) {
 23fbf62:	2d00      	cmp	r5, #0
 23fbf64:	d045      	beq.n	23fbff2 <_ZN8particle16ApplicationAssetC1EPK19asset_manager_asset+0xce>
    if (asset->name) {
 23fbf66:	6829      	ldr	r1, [r5, #0]
 23fbf68:	b149      	cbz	r1, 23fbf7e <_ZN8particle16ApplicationAssetC1EPK19asset_manager_asset+0x5a>
        name_ = String(asset->name);
 23fbf6a:	a804      	add	r0, sp, #16
 23fbf6c:	f7ff fe43 	bl	23fbbf6 <_ZN6StringC1EPK19__FlashStringHelper>
 23fbf70:	4638      	mov	r0, r7
 23fbf72:	a904      	add	r1, sp, #16
 23fbf74:	f7ff fe96 	bl	23fbca4 <_ZN6StringaSEOS_>
 23fbf78:	a804      	add	r0, sp, #16
 23fbf7a:	f7ff fdf1 	bl	23fbb60 <_ZN6StringD1Ev>
    if (asset->hash && asset->hash_length) {
 23fbf7e:	686e      	ldr	r6, [r5, #4]
 23fbf80:	2e00      	cmp	r6, #0
 23fbf82:	d031      	beq.n	23fbfe8 <_ZN8particle16ApplicationAssetC1EPK19asset_manager_asset+0xc4>
 23fbf84:	892a      	ldrh	r2, [r5, #8]
 23fbf86:	2a00      	cmp	r2, #0
 23fbf88:	d02e      	beq.n	23fbfe8 <_ZN8particle16ApplicationAssetC1EPK19asset_manager_asset+0xc4>
        : Buffer(size) {
 23fbf8a:	4611      	mov	r1, r2
 23fbf8c:	a802      	add	r0, sp, #8
        hash_ = AssetHash(asset->hash, asset->hash_length, (AssetHash::Type)asset->hash_type);
 23fbf8e:	f995 700a 	ldrsb.w	r7, [r5, #10]
 23fbf92:	9201      	str	r2, [sp, #4]
 23fbf94:	f7ff fcab 	bl	23fb8ee <_ZN8particle6BufferC1Ej>
      pointer    _M_ptr() const { return std::get<0>(_M_t); }
 23fbf98:	9802      	ldr	r0, [sp, #8]
    if (buffer_ && data && size > 0) {
 23fbf9a:	b118      	cbz	r0, 23fbfa4 <_ZN8particle16ApplicationAssetC1EPK19asset_manager_asset+0x80>
        memcpy(buffer_.get(), data, size);
 23fbf9c:	4631      	mov	r1, r6
 23fbf9e:	9a01      	ldr	r2, [sp, #4]
 23fbfa0:	f002 fba2 	bl	23fe6e8 <memcpy>
        : AssetHash(Buffer(hash, length), type) {
 23fbfa4:	463a      	mov	r2, r7
 23fbfa6:	a902      	add	r1, sp, #8
 23fbfa8:	a804      	add	r0, sp, #16
 23fbfaa:	f7ff ff99 	bl	23fbee0 <_ZN8particle9AssetHashC1ERKNS_6BufferENS0_4TypeE>
class Buffer {
 23fbfae:	a802      	add	r0, sp, #8
 23fbfb0:	f7ff fc95 	bl	23fb8de <_ZNSt10unique_ptrIA_cSt14default_deleteIS0_EED1Ev>
    AssetHash& operator=(AssetHash&& other) = default;
 23fbfb4:	f89d 3010 	ldrb.w	r3, [sp, #16]

inline Buffer::Buffer(Buffer&& other)
        : Buffer() {
 23fbfb8:	2100      	movs	r1, #0
 23fbfba:	f884 3020 	strb.w	r3, [r4, #32]
 23fbfbe:	a802      	add	r0, sp, #8
 23fbfc0:	f7ff fc95 	bl	23fb8ee <_ZN8particle6BufferC1Ej>
 23fbfc4:	9b02      	ldr	r3, [sp, #8]
      __a = _GLIBCXX_MOVE(__b);
 23fbfc6:	9905      	ldr	r1, [sp, #20]
      __b = _GLIBCXX_MOVE(__tmp);
 23fbfc8:	9305      	str	r3, [sp, #20]
 23fbfca:	9b03      	ldr	r3, [sp, #12]
      __a = _GLIBCXX_MOVE(__b);
 23fbfcc:	9a06      	ldr	r2, [sp, #24]
      __b = _GLIBCXX_MOVE(__tmp);
 23fbfce:	9306      	str	r3, [sp, #24]
      _Tp __tmp = _GLIBCXX_MOVE(__a);
 23fbfd0:	6a63      	ldr	r3, [r4, #36]	; 0x24
class Buffer {
 23fbfd2:	a802      	add	r0, sp, #8
      __b = _GLIBCXX_MOVE(__tmp);
 23fbfd4:	9302      	str	r3, [sp, #8]
      _Tp __tmp = _GLIBCXX_MOVE(__a);
 23fbfd6:	6aa3      	ldr	r3, [r4, #40]	; 0x28
      __a = _GLIBCXX_MOVE(__b);
 23fbfd8:	6261      	str	r1, [r4, #36]	; 0x24
 23fbfda:	62a2      	str	r2, [r4, #40]	; 0x28
      __b = _GLIBCXX_MOVE(__tmp);
 23fbfdc:	9303      	str	r3, [sp, #12]
 23fbfde:	f7ff fc7e 	bl	23fb8de <_ZNSt10unique_ptrIA_cSt14default_deleteIS0_EED1Ev>
 23fbfe2:	a805      	add	r0, sp, #20
 23fbfe4:	f7ff fc7b 	bl	23fb8de <_ZNSt10unique_ptrIA_cSt14default_deleteIS0_EED1Ev>
    if (asset->size) {
 23fbfe8:	68eb      	ldr	r3, [r5, #12]
 23fbfea:	b103      	cbz	r3, 23fbfee <_ZN8particle16ApplicationAssetC1EPK19asset_manager_asset+0xca>
        size_ = asset->size;
 23fbfec:	62e3      	str	r3, [r4, #44]	; 0x2c
    storageSize_ = asset->storage_size;
 23fbfee:	692b      	ldr	r3, [r5, #16]
 23fbff0:	6323      	str	r3, [r4, #48]	; 0x30
}
 23fbff2:	4620      	mov	r0, r4
 23fbff4:	b009      	add	sp, #36	; 0x24
 23fbff6:	bdf0      	pop	{r4, r5, r6, r7, pc}
 23fbff8:	023ffad8 	.word	0x023ffad8
 23fbffc:	023ffb5e 	.word	0x023ffb5e

023fc000 <_ZN8particle16ApplicationAsset17prepareForReadingEb>:
int ApplicationAsset::prepareForReading(bool keepOpen) {
 23fc000:	b570      	push	{r4, r5, r6, lr}
 23fc002:	b08a      	sub	sp, #40	; 0x28
 23fc004:	4604      	mov	r4, r0
 23fc006:	460e      	mov	r6, r1
    if (!isValid()) {
 23fc008:	f7ff ff41 	bl	23fbe8e <_ZNK8particle16ApplicationAsset7isValidEv>
 23fc00c:	2800      	cmp	r0, #0
 23fc00e:	d04e      	beq.n	23fc0ae <_ZN8particle16ApplicationAsset17prepareForReadingEb+0xae>
      get() const noexcept
      { return _M_ptr; }

      /// Return true if the stored pointer is not null.
      explicit operator bool() const // never throws
      { return _M_ptr == 0 ? false : true; }
 23fc010:	6ba3      	ldr	r3, [r4, #56]	; 0x38
    if (data_ && data_->stream) {
 23fc012:	b113      	cbz	r3, 23fc01a <_ZN8particle16ApplicationAsset17prepareForReadingEb+0x1a>
 23fc014:	681b      	ldr	r3, [r3, #0]
 23fc016:	2b00      	cmp	r3, #0
 23fc018:	d13c      	bne.n	23fc094 <_ZN8particle16ApplicationAsset17prepareForReadingEb+0x94>
    } else if (eof_) {
 23fc01a:	f894 5034 	ldrb.w	r5, [r4, #52]	; 0x34
 23fc01e:	2d00      	cmp	r5, #0
 23fc020:	d148      	bne.n	23fc0b4 <_ZN8particle16ApplicationAsset17prepareForReadingEb+0xb4>
    if (size() == 0) {
 23fc022:	6ae3      	ldr	r3, [r4, #44]	; 0x2c
 23fc024:	2b00      	cmp	r3, #0
 23fc026:	d048      	beq.n	23fc0ba <_ZN8particle16ApplicationAsset17prepareForReadingEb+0xba>
    a.name = name_.c_str();
 23fc028:	6923      	ldr	r3, [r4, #16]
    asset_manager_asset a = {};
 23fc02a:	e9cd 5507 	strd	r5, r5, [sp, #28]
    a.name = name_.c_str();
 23fc02e:	9305      	str	r3, [sp, #20]
    a.hash = hash_.hash().data();
 23fc030:	6a63      	ldr	r3, [r4, #36]	; 0x24
    CHECK(asset_manager_open(&stream, &a, nullptr));
 23fc032:	462a      	mov	r2, r5
    a.hash = hash_.hash().data();
 23fc034:	9306      	str	r3, [sp, #24]
    a.hash_length = hash_.hash().size();
 23fc036:	6aa3      	ldr	r3, [r4, #40]	; 0x28
    CHECK(asset_manager_open(&stream, &a, nullptr));
 23fc038:	4668      	mov	r0, sp
    a.hash_length = hash_.hash().size();
 23fc03a:	f8ad 301c 	strh.w	r3, [sp, #28]
    a.hash_type = hash_.type();
 23fc03e:	f894 3020 	ldrb.w	r3, [r4, #32]
    CHECK(asset_manager_open(&stream, &a, nullptr));
 23fc042:	a905      	add	r1, sp, #20
    asset_manager_stream* stream = nullptr;
 23fc044:	9500      	str	r5, [sp, #0]
    asset_manager_asset a = {};
 23fc046:	9509      	str	r5, [sp, #36]	; 0x24
    a.hash_type = hash_.type();
 23fc048:	f88d 301e 	strb.w	r3, [sp, #30]
    CHECK(asset_manager_open(&stream, &a, nullptr));
 23fc04c:	f7ff fa7a 	bl	23fb544 <asset_manager_open>
 23fc050:	2800      	cmp	r0, #0
 23fc052:	db2a      	blt.n	23fc0aa <_ZN8particle16ApplicationAsset17prepareForReadingEb+0xaa>
    if (keepOpen) {
 23fc054:	b1e6      	cbz	r6, 23fc090 <_ZN8particle16ApplicationAsset17prepareForReadingEb+0x90>
	return static_cast<_Tp*>(::operator new(__n * sizeof(_Tp)));
 23fc056:	2010      	movs	r0, #16

    protected:
      // This constructor is non-standard, it is used by allocate_shared.
      template<typename _Alloc, typename... _Args>
	__shared_ptr(_Sp_alloc_shared_tag<_Alloc> __tag, _Args&&... __args)
	: _M_ptr(), _M_refcount(_M_ptr, __tag, std::forward<_Args>(__args)...)
 23fc058:	9501      	str	r5, [sp, #4]
 23fc05a:	f7fc fd28 	bl	23f8aae <_Znwj>
	  auto __pi = ::new (__mem)
 23fc05e:	b130      	cbz	r0, 23fc06e <_ZN8particle16ApplicationAsset17prepareForReadingEb+0x6e>
      : _M_use_count(1), _M_weak_count(1) { }
 23fc060:	2301      	movs	r3, #1
 23fc062:	e9c0 3301 	strd	r3, r3, [r0, #4]
	: _M_impl(__a)
 23fc066:	4b16      	ldr	r3, [pc, #88]	; (23fc0c0 <_ZN8particle16ApplicationAsset17prepareForReadingEb+0xc0>)
 23fc068:	6003      	str	r3, [r0, #0]
        : stream(s) {
 23fc06a:	9b00      	ldr	r3, [sp, #0]
 23fc06c:	60c3      	str	r3, [r0, #12]
	__r._M_pi = _M_pi;
 23fc06e:	2300      	movs	r3, #0
	__r._M_ptr = 0;
 23fc070:	e9cd 3301 	strd	r3, r3, [sp, #4]
      __a = _GLIBCXX_MOVE(__b);
 23fc074:	6ba3      	ldr	r3, [r4, #56]	; 0x38
 23fc076:	9303      	str	r3, [sp, #12]
 23fc078:	f100 030c 	add.w	r3, r0, #12
      __b = _GLIBCXX_MOVE(__tmp);
 23fc07c:	63a3      	str	r3, [r4, #56]	; 0x38
	_Sp_counted_base<_Lp>* __tmp = __r._M_pi;
 23fc07e:	6be3      	ldr	r3, [r4, #60]	; 0x3c
	__r._M_pi = _M_pi;
 23fc080:	63e0      	str	r0, [r4, #60]	; 0x3c
      ~__shared_ptr() = default;
 23fc082:	a804      	add	r0, sp, #16
	_M_pi = __tmp;
 23fc084:	9304      	str	r3, [sp, #16]
      ~__shared_ptr() = default;
 23fc086:	f7fc fd8b 	bl	23f8ba0 <_ZNSt14__shared_countILN9__gnu_cxx12_Lock_policyE0EED1Ev>
 23fc08a:	a802      	add	r0, sp, #8
 23fc08c:	f7fc fd88 	bl	23f8ba0 <_ZNSt14__shared_countILN9__gnu_cxx12_Lock_policyE0EED1Ev>
    if (!data_) {
 23fc090:	6ba1      	ldr	r1, [r4, #56]	; 0x38
 23fc092:	b109      	cbz	r1, 23fc098 <_ZN8particle16ApplicationAsset17prepareForReadingEb+0x98>
        return 0;
 23fc094:	2000      	movs	r0, #0
 23fc096:	e008      	b.n	23fc0aa <_ZN8particle16ApplicationAsset17prepareForReadingEb+0xaa>
        asset_manager_close(stream, nullptr);
 23fc098:	9800      	ldr	r0, [sp, #0]
 23fc09a:	f7ff fa99 	bl	23fb5d0 <asset_manager_close>
    if (keepOpen && !data_) {
 23fc09e:	2e00      	cmp	r6, #0
 23fc0a0:	d0f8      	beq.n	23fc094 <_ZN8particle16ApplicationAsset17prepareForReadingEb+0x94>
 23fc0a2:	6ba3      	ldr	r3, [r4, #56]	; 0x38
 23fc0a4:	2b00      	cmp	r3, #0
 23fc0a6:	d1f5      	bne.n	23fc094 <_ZN8particle16ApplicationAsset17prepareForReadingEb+0x94>
        return SYSTEM_ERROR_NO_MEMORY;
 23fc0a8:	4806      	ldr	r0, [pc, #24]	; (23fc0c4 <_ZN8particle16ApplicationAsset17prepareForReadingEb+0xc4>)
}
 23fc0aa:	b00a      	add	sp, #40	; 0x28
 23fc0ac:	bd70      	pop	{r4, r5, r6, pc}
        return SYSTEM_ERROR_INVALID_STATE;
 23fc0ae:	f06f 00d1 	mvn.w	r0, #209	; 0xd1
 23fc0b2:	e7fa      	b.n	23fc0aa <_ZN8particle16ApplicationAsset17prepareForReadingEb+0xaa>
        return SYSTEM_ERROR_END_OF_STREAM;
 23fc0b4:	f06f 00c8 	mvn.w	r0, #200	; 0xc8
 23fc0b8:	e7f7      	b.n	23fc0aa <_ZN8particle16ApplicationAsset17prepareForReadingEb+0xaa>
        return SYSTEM_ERROR_NOT_ENOUGH_DATA;
 23fc0ba:	f06f 00be 	mvn.w	r0, #190	; 0xbe
 23fc0be:	e7f4      	b.n	23fc0aa <_ZN8particle16ApplicationAsset17prepareForReadingEb+0xaa>
 23fc0c0:	023ffabc 	.word	0x023ffabc
 23fc0c4:	fffffefc 	.word	0xfffffefc

023fc0c8 <_ZN8particle16ApplicationAsset4peekEPcj>:
int ApplicationAsset::peek(char* buffer, size_t size) {
 23fc0c8:	b570      	push	{r4, r5, r6, lr}
 23fc0ca:	460c      	mov	r4, r1
    CHECK(prepareForReading());
 23fc0cc:	2101      	movs	r1, #1
int ApplicationAsset::peek(char* buffer, size_t size) {
 23fc0ce:	4606      	mov	r6, r0
 23fc0d0:	4615      	mov	r5, r2
    CHECK(prepareForReading());
 23fc0d2:	f7ff ff95 	bl	23fc000 <_ZN8particle16ApplicationAsset17prepareForReadingEb>
 23fc0d6:	2800      	cmp	r0, #0
 23fc0d8:	db0b      	blt.n	23fc0f2 <_ZN8particle16ApplicationAsset4peekEPcj+0x2a>
    CHECK_TRUE(buffer && size, SYSTEM_ERROR_INVALID_ARGUMENT);
 23fc0da:	b14c      	cbz	r4, 23fc0f0 <_ZN8particle16ApplicationAsset4peekEPcj+0x28>
 23fc0dc:	b145      	cbz	r5, 23fc0f0 <_ZN8particle16ApplicationAsset4peekEPcj+0x28>
    return asset_manager_peek(data_->stream, buffer, size, nullptr);
 23fc0de:	6bb0      	ldr	r0, [r6, #56]	; 0x38
 23fc0e0:	462a      	mov	r2, r5
 23fc0e2:	4621      	mov	r1, r4
}
 23fc0e4:	e8bd 4070 	ldmia.w	sp!, {r4, r5, r6, lr}
    return asset_manager_peek(data_->stream, buffer, size, nullptr);
 23fc0e8:	2300      	movs	r3, #0
 23fc0ea:	6800      	ldr	r0, [r0, #0]
 23fc0ec:	f7ff ba54 	b.w	23fb598 <asset_manager_peek>
    CHECK_TRUE(buffer && size, SYSTEM_ERROR_INVALID_ARGUMENT);
 23fc0f0:	4800      	ldr	r0, [pc, #0]	; (23fc0f4 <_ZN8particle16ApplicationAsset4peekEPcj+0x2c>)
}
 23fc0f2:	bd70      	pop	{r4, r5, r6, pc}
 23fc0f4:	fffffef2 	.word	0xfffffef2

023fc0f8 <_ZN8particle16ApplicationAsset4skipEj>:
int ApplicationAsset::skip(size_t size) {
 23fc0f8:	b538      	push	{r3, r4, r5, lr}
 23fc0fa:	460c      	mov	r4, r1
    CHECK(prepareForReading());
 23fc0fc:	2101      	movs	r1, #1
int ApplicationAsset::skip(size_t size) {
 23fc0fe:	4605      	mov	r5, r0
    CHECK(prepareForReading());
 23fc100:	f7ff ff7e 	bl	23fc000 <_ZN8particle16ApplicationAsset17prepareForReadingEb>
 23fc104:	2800      	cmp	r0, #0
 23fc106:	db07      	blt.n	23fc118 <_ZN8particle16ApplicationAsset4skipEj+0x20>
    return asset_manager_skip(data_->stream, size, nullptr);
 23fc108:	6bab      	ldr	r3, [r5, #56]	; 0x38
 23fc10a:	4621      	mov	r1, r4
 23fc10c:	6818      	ldr	r0, [r3, #0]
 23fc10e:	2200      	movs	r2, #0
}
 23fc110:	e8bd 4038 	ldmia.w	sp!, {r3, r4, r5, lr}
    return asset_manager_skip(data_->stream, size, nullptr);
 23fc114:	f7ff ba4e 	b.w	23fb5b4 <asset_manager_skip>
}
 23fc118:	bd38      	pop	{r3, r4, r5, pc}

023fc11a <_ZNSt12__shared_ptrIN8particle16ApplicationAsset4DataELN9__gnu_cxx12_Lock_policyE0EE5resetEv>:
      reset() noexcept
 23fc11a:	b507      	push	{r0, r1, r2, lr}
      __a = _GLIBCXX_MOVE(__b);
 23fc11c:	6803      	ldr	r3, [r0, #0]
	_Sp_counted_base<_Lp>* __tmp = __r._M_pi;
 23fc11e:	6842      	ldr	r2, [r0, #4]
 23fc120:	9300      	str	r3, [sp, #0]
      __b = _GLIBCXX_MOVE(__tmp);
 23fc122:	2300      	movs	r3, #0
 23fc124:	6003      	str	r3, [r0, #0]
	__r._M_pi = _M_pi;
 23fc126:	6043      	str	r3, [r0, #4]
      ~__shared_ptr() = default;
 23fc128:	a801      	add	r0, sp, #4
	_M_pi = __tmp;
 23fc12a:	9201      	str	r2, [sp, #4]
      ~__shared_ptr() = default;
 23fc12c:	f7fc fd38 	bl	23f8ba0 <_ZNSt14__shared_countILN9__gnu_cxx12_Lock_policyE0EED1Ev>
      { __shared_ptr().swap(*this); }
 23fc130:	b003      	add	sp, #12
 23fc132:	f85d fb04 	ldr.w	pc, [sp], #4

023fc136 <_ZN8particle16ApplicationAsset9availableEv>:
int ApplicationAsset::available() {
 23fc136:	b538      	push	{r3, r4, r5, lr}
    int r = prepareForReading();
 23fc138:	2101      	movs	r1, #1
int ApplicationAsset::available() {
 23fc13a:	4605      	mov	r5, r0
    int r = prepareForReading();
 23fc13c:	f7ff ff60 	bl	23fc000 <_ZN8particle16ApplicationAsset17prepareForReadingEb>
    if (!r) {
 23fc140:	4604      	mov	r4, r0
 23fc142:	b928      	cbnz	r0, 23fc150 <_ZN8particle16ApplicationAsset9availableEv+0x1a>
        r = asset_manager_available(data_->stream, nullptr);
 23fc144:	6bab      	ldr	r3, [r5, #56]	; 0x38
 23fc146:	4601      	mov	r1, r0
 23fc148:	6818      	ldr	r0, [r3, #0]
 23fc14a:	f7ff fa09 	bl	23fb560 <asset_manager_available>
 23fc14e:	4604      	mov	r4, r0
    if (r == SYSTEM_ERROR_END_OF_STREAM && !eof_) {
 23fc150:	f114 0fc9 	cmn.w	r4, #201	; 0xc9
 23fc154:	d109      	bne.n	23fc16a <_ZN8particle16ApplicationAsset9availableEv+0x34>
 23fc156:	f895 3034 	ldrb.w	r3, [r5, #52]	; 0x34
 23fc15a:	b933      	cbnz	r3, 23fc16a <_ZN8particle16ApplicationAsset9availableEv+0x34>
        data_.reset();
 23fc15c:	f105 0038 	add.w	r0, r5, #56	; 0x38
 23fc160:	f7ff ffdb 	bl	23fc11a <_ZNSt12__shared_ptrIN8particle16ApplicationAsset4DataELN9__gnu_cxx12_Lock_policyE0EE5resetEv>
        eof_ = true;
 23fc164:	2301      	movs	r3, #1
 23fc166:	f885 3034 	strb.w	r3, [r5, #52]	; 0x34
}
 23fc16a:	ea24 70e4 	bic.w	r0, r4, r4, asr #31
 23fc16e:	bd38      	pop	{r3, r4, r5, pc}

023fc170 <_ZN8particle16ApplicationAsset4readEPcj>:
int ApplicationAsset::read(char* buffer, size_t size) {
 23fc170:	e92d 41f0 	stmdb	sp!, {r4, r5, r6, r7, r8, lr}
 23fc174:	4688      	mov	r8, r1
    CHECK(prepareForReading());
 23fc176:	2101      	movs	r1, #1
int ApplicationAsset::read(char* buffer, size_t size) {
 23fc178:	4607      	mov	r7, r0
 23fc17a:	4615      	mov	r5, r2
    CHECK(prepareForReading());
 23fc17c:	f7ff ff40 	bl	23fc000 <_ZN8particle16ApplicationAsset17prepareForReadingEb>
 23fc180:	1e04      	subs	r4, r0, #0
 23fc182:	db1b      	blt.n	23fc1bc <_ZN8particle16ApplicationAsset4readEPcj+0x4c>
    CHECK_TRUE(buffer && size, SYSTEM_ERROR_INVALID_ARGUMENT);
 23fc184:	f1b8 0f00 	cmp.w	r8, #0
 23fc188:	d020      	beq.n	23fc1cc <_ZN8particle16ApplicationAsset4readEPcj+0x5c>
 23fc18a:	b1fd      	cbz	r5, 23fc1cc <_ZN8particle16ApplicationAsset4readEPcj+0x5c>
 23fc18c:	2600      	movs	r6, #0
        int actuallyRead = asset_manager_read(data_->stream, buffer + pos, size, nullptr);
 23fc18e:	6bb8      	ldr	r0, [r7, #56]	; 0x38
 23fc190:	2300      	movs	r3, #0
 23fc192:	462a      	mov	r2, r5
 23fc194:	6800      	ldr	r0, [r0, #0]
 23fc196:	eb08 0106 	add.w	r1, r8, r6
 23fc19a:	f7ff f9ef 	bl	23fb57c <asset_manager_read>
        if (actuallyRead <= 0) {
 23fc19e:	1e04      	subs	r4, r0, #0
 23fc1a0:	dc0f      	bgt.n	23fc1c2 <_ZN8particle16ApplicationAsset4readEPcj+0x52>
            if (actuallyRead == SYSTEM_ERROR_END_OF_STREAM) {
 23fc1a2:	f114 0fc9 	cmn.w	r4, #201	; 0xc9
 23fc1a6:	d106      	bne.n	23fc1b6 <_ZN8particle16ApplicationAsset4readEPcj+0x46>
                data_.reset();
 23fc1a8:	f107 0038 	add.w	r0, r7, #56	; 0x38
 23fc1ac:	f7ff ffb5 	bl	23fc11a <_ZNSt12__shared_ptrIN8particle16ApplicationAsset4DataELN9__gnu_cxx12_Lock_policyE0EE5resetEv>
                eof_ = true;
 23fc1b0:	2301      	movs	r3, #1
 23fc1b2:	f887 3034 	strb.w	r3, [r7, #52]	; 0x34
            return pos > 0 ? pos : actuallyRead;
 23fc1b6:	2e00      	cmp	r6, #0
 23fc1b8:	bf18      	it	ne
 23fc1ba:	4634      	movne	r4, r6
}
 23fc1bc:	4620      	mov	r0, r4
 23fc1be:	e8bd 81f0 	ldmia.w	sp!, {r4, r5, r6, r7, r8, pc}
    while (size > 0) {
 23fc1c2:	1b2d      	subs	r5, r5, r4
        pos += actuallyRead;
 23fc1c4:	4426      	add	r6, r4
    while (size > 0) {
 23fc1c6:	d1e2      	bne.n	23fc18e <_ZN8particle16ApplicationAsset4readEPcj+0x1e>
    return pos;
 23fc1c8:	4634      	mov	r4, r6
 23fc1ca:	e7f7      	b.n	23fc1bc <_ZN8particle16ApplicationAsset4readEPcj+0x4c>
    CHECK_TRUE(buffer && size, SYSTEM_ERROR_INVALID_ARGUMENT);
 23fc1cc:	4c00      	ldr	r4, [pc, #0]	; (23fc1d0 <_ZN8particle16ApplicationAsset4readEPcj+0x60>)
 23fc1ce:	e7f5      	b.n	23fc1bc <_ZN8particle16ApplicationAsset4readEPcj+0x4c>
 23fc1d0:	fffffef2 	.word	0xfffffef2

023fc1d4 <_ZN5spark16JSONStreamWriter5writeEPKcj>:
inline Print* spark::JSONStreamWriter::stream() const {
    return &strm_;
}

inline void spark::JSONStreamWriter::write(const char *data, size_t size) {
    strm_.write((const uint8_t*)data, size);
 23fc1d4:	6880      	ldr	r0, [r0, #8]
 23fc1d6:	6803      	ldr	r3, [r0, #0]
 23fc1d8:	68db      	ldr	r3, [r3, #12]
 23fc1da:	4718      	bx	r3

023fc1dc <_ZN5spark20JSONStreamLogHandler5writeEPKcj>:
}

// spark::JSONStreamLogHandler
inline void spark::JSONStreamLogHandler::write(const char *data, size_t size) {
    // This handler doesn't support direct logging
}
 23fc1dc:	4770      	bx	lr

023fc1de <_ZN5spark17LogHandlerFactory14destroyHandlerEPNS_10LogHandlerE>:

#if Wiring_LogConfig

// spark::LogHandlerFactory
inline void spark::LogHandlerFactory::destroyHandler(LogHandler *handler) {
    delete handler;
 23fc1de:	4608      	mov	r0, r1
 23fc1e0:	b111      	cbz	r1, 23fc1e8 <_ZN5spark17LogHandlerFactory14destroyHandlerEPNS_10LogHandlerE+0xa>
 23fc1e2:	680b      	ldr	r3, [r1, #0]
 23fc1e4:	685b      	ldr	r3, [r3, #4]
 23fc1e6:	4718      	bx	r3
}
 23fc1e8:	4770      	bx	lr

023fc1ea <__tcf_0>:
    }
    return nullptr; // Unknown handler type
}

spark::DefaultLogHandlerFactory* spark::DefaultLogHandlerFactory::instance() {
    static DefaultLogHandlerFactory factory;
 23fc1ea:	4770      	bx	lr

023fc1ec <_ZN5spark26DefaultOutputStreamFactoryD1Ev>:
class DefaultOutputStreamFactory: public OutputStreamFactory {
 23fc1ec:	4770      	bx	lr

023fc1ee <_ZN5spark24DefaultLogHandlerFactoryD1Ev>:
class DefaultLogHandlerFactory: public LogHandlerFactory {
 23fc1ee:	4770      	bx	lr

023fc1f0 <_ZN5spark16JSONStreamWriterD1Ev>:
class JSONStreamWriter: public JSONWriter {
 23fc1f0:	4770      	bx	lr

023fc1f2 <_ZN12_GLOBAL__N_119nextSubcategoryNameERPKcRj>:
const char* nextSubcategoryName(const char* &category, size_t &size) {
 23fc1f2:	b538      	push	{r3, r4, r5, lr}
 23fc1f4:	4604      	mov	r4, r0
 23fc1f6:	460d      	mov	r5, r1
    const char *s = strchrnul(category, '.');
 23fc1f8:	6800      	ldr	r0, [r0, #0]
 23fc1fa:	212e      	movs	r1, #46	; 0x2e
 23fc1fc:	f002 fadf 	bl	23fe7be <strchrnul>
    size = s - category;
 23fc200:	6823      	ldr	r3, [r4, #0]
 23fc202:	1ac3      	subs	r3, r0, r3
 23fc204:	602b      	str	r3, [r5, #0]
    if (size) {
 23fc206:	b123      	cbz	r3, 23fc212 <_ZN12_GLOBAL__N_119nextSubcategoryNameERPKcRj+0x20>
        if (*s) {
 23fc208:	7803      	ldrb	r3, [r0, #0]
 23fc20a:	b103      	cbz	r3, 23fc20e <_ZN12_GLOBAL__N_119nextSubcategoryNameERPKcRj+0x1c>
            ++s;
 23fc20c:	3001      	adds	r0, #1
      __a = _GLIBCXX_MOVE(__b);
 23fc20e:	6823      	ldr	r3, [r4, #0]
      __b = _GLIBCXX_MOVE(__tmp);
 23fc210:	6020      	str	r0, [r4, #0]
}
 23fc212:	4618      	mov	r0, r3
 23fc214:	bd38      	pop	{r3, r4, r5, pc}

023fc216 <_ZN5spark16JSONStreamWriterD0Ev>:
 23fc216:	b510      	push	{r4, lr}
 23fc218:	4604      	mov	r4, r0
 23fc21a:	210c      	movs	r1, #12
 23fc21c:	f7fc fc4d 	bl	23f8aba <_ZdlPvj>
 23fc220:	4620      	mov	r0, r4
 23fc222:	bd10      	pop	{r4, pc}

023fc224 <_ZN5spark24DefaultLogHandlerFactoryD0Ev>:
 23fc224:	b510      	push	{r4, lr}
 23fc226:	4604      	mov	r4, r0
 23fc228:	2104      	movs	r1, #4
 23fc22a:	f7fc fc46 	bl	23f8aba <_ZdlPvj>
 23fc22e:	4620      	mov	r0, r4
 23fc230:	bd10      	pop	{r4, pc}

023fc232 <_ZN5spark26DefaultOutputStreamFactoryD0Ev>:
class DefaultOutputStreamFactory: public OutputStreamFactory {
 23fc232:	b510      	push	{r4, lr}
 23fc234:	4604      	mov	r4, r0
 23fc236:	2104      	movs	r1, #4
 23fc238:	f7fc fc3f 	bl	23f8aba <_ZdlPvj>
 23fc23c:	4620      	mov	r0, r4
 23fc23e:	bd10      	pop	{r4, pc}

023fc240 <_ZN14RecursiveMutex4lockEv.isra.0>:
            os_mutex_recursive_destroy(handle_);
            handle_ = nullptr;
        }
    }

    void lock() { os_mutex_recursive_lock(handle_); }
 23fc240:	f7fe bd9e 	b.w	23fad80 <os_mutex_recursive_lock>

023fc244 <_ZNK5spark10JSONStringeqEPKc.isra.0>:
inline bool spark::JSONString::operator==(const char *str) const {
 23fc244:	b508      	push	{r3, lr}
    return strcmp(s_, str) == 0;
 23fc246:	f7fc fc03 	bl	23f8a50 <strcmp>
}
 23fc24a:	fab0 f080 	clz	r0, r0
 23fc24e:	0940      	lsrs	r0, r0, #5
 23fc250:	bd08      	pop	{r3, pc}

023fc252 <__tcf_1>:
 23fc252:	4770      	bx	lr

023fc254 <_ZN5spark26DefaultOutputStreamFactory13destroyStreamEP5Print>:
    }
#endif // PLATFORM_ID != PLATFORM_GCC
    return nullptr;
}

void spark::DefaultOutputStreamFactory::destroyStream(Print *stream) {
 23fc254:	b510      	push	{r4, lr}
 23fc256:	460c      	mov	r4, r1
#if PLATFORM_ID != PLATFORM_GCC
    if (stream == &Serial) {
 23fc258:	f001 fba6 	bl	23fd9a8 <_Z16_fetch_usbserialv>
 23fc25c:	4284      	cmp	r4, r0
 23fc25e:	d105      	bne.n	23fc26c <_ZN5spark26DefaultOutputStreamFactory13destroyStreamEP5Print+0x18>
        // FIXME: Uninitializing Serial detaches a Gen 3 device from the host
#if !HAL_PLATFORM_NRF52840
        Serial.end();
 23fc260:	f001 fba2 	bl	23fd9a8 <_Z16_fetch_usbserialv>
        Serial1.end();
        return;
    }
#endif // PLATFORM_ID != PLATFORM_GCC
    OutputStreamFactory::destroyStream(stream);
}
 23fc264:	e8bd 4010 	ldmia.w	sp!, {r4, lr}
        Serial.end();
 23fc268:	f001 bb90 	b.w	23fd98c <_ZN9USBSerial3endEv>
    if (stream == &Serial1) {
 23fc26c:	f002 f842 	bl	23fe2f4 <_Z22__fetch_global_Serial1v>
 23fc270:	4284      	cmp	r4, r0
 23fc272:	d105      	bne.n	23fc280 <_ZN5spark26DefaultOutputStreamFactory13destroyStreamEP5Print+0x2c>
        Serial1.end();
 23fc274:	f002 f83e 	bl	23fe2f4 <_Z22__fetch_global_Serial1v>
}
 23fc278:	e8bd 4010 	ldmia.w	sp!, {r4, lr}
        Serial1.end();
 23fc27c:	f001 bc3b 	b.w	23fdaf6 <_ZN11USARTSerial3endEv>

// spark::OutputStreamFactory
inline void spark::OutputStreamFactory::destroyStream(Print *stream) {
    delete stream;
 23fc280:	b12c      	cbz	r4, 23fc28e <_ZN5spark26DefaultOutputStreamFactory13destroyStreamEP5Print+0x3a>
 23fc282:	6823      	ldr	r3, [r4, #0]
 23fc284:	4620      	mov	r0, r4
}
 23fc286:	e8bd 4010 	ldmia.w	sp!, {r4, lr}
 23fc28a:	685b      	ldr	r3, [r3, #4]
 23fc28c:	4718      	bx	r3
 23fc28e:	bd10      	pop	{r4, pc}

023fc290 <_ZNSt12__shared_ptrIN5spark6detail8JSONDataELN9__gnu_cxx12_Lock_policyE0EEC1ERKS5_>:
      __shared_ptr(const __shared_ptr&) noexcept = default;
 23fc290:	680b      	ldr	r3, [r1, #0]
 23fc292:	6003      	str	r3, [r0, #0]
      : _M_pi(__r._M_pi)
 23fc294:	684b      	ldr	r3, [r1, #4]
 23fc296:	6043      	str	r3, [r0, #4]
	if (_M_pi != 0)
 23fc298:	b113      	cbz	r3, 23fc2a0 <_ZNSt12__shared_ptrIN5spark6detail8JSONDataELN9__gnu_cxx12_Lock_policyE0EEC1ERKS5_+0x10>
    { ++_M_use_count; }
 23fc29a:	685a      	ldr	r2, [r3, #4]
 23fc29c:	3201      	adds	r2, #1
 23fc29e:	605a      	str	r2, [r3, #4]
      __shared_ptr(const __shared_ptr&) noexcept = default;
 23fc2a0:	4770      	bx	lr

023fc2a2 <_ZN5spark10JSONWriter5valueEPKc>:
inline spark::JSONWriter& spark::JSONWriter::value(const char *val) {
 23fc2a2:	b513      	push	{r0, r1, r4, lr}
 23fc2a4:	4604      	mov	r4, r0
    return value(val, strlen(val));
 23fc2a6:	4608      	mov	r0, r1
 23fc2a8:	9101      	str	r1, [sp, #4]
 23fc2aa:	f7fc fbdb 	bl	23f8a64 <strlen>
 23fc2ae:	4602      	mov	r2, r0
 23fc2b0:	4620      	mov	r0, r4
 23fc2b2:	9901      	ldr	r1, [sp, #4]
}
 23fc2b4:	b002      	add	sp, #8
 23fc2b6:	e8bd 4010 	ldmia.w	sp!, {r4, lr}
    return value(val, strlen(val));
 23fc2ba:	f001 bf73 	b.w	23fe1a4 <_ZN5spark10JSONWriter5valueEPKcj>

023fc2be <_ZN5spark16StreamLogHandler5writeEPKc>:
inline void spark::StreamLogHandler::write(const char *str) {
 23fc2be:	b513      	push	{r0, r1, r4, lr}
 23fc2c0:	4604      	mov	r4, r0
    write(str, strlen(str));
 23fc2c2:	4608      	mov	r0, r1
 23fc2c4:	9101      	str	r1, [sp, #4]
 23fc2c6:	f7fc fbcd 	bl	23f8a64 <strlen>
 23fc2ca:	4602      	mov	r2, r0
 23fc2cc:	4620      	mov	r0, r4
 23fc2ce:	6823      	ldr	r3, [r4, #0]
 23fc2d0:	9901      	ldr	r1, [sp, #4]
 23fc2d2:	68db      	ldr	r3, [r3, #12]
}
 23fc2d4:	b002      	add	sp, #8
 23fc2d6:	e8bd 4010 	ldmia.w	sp!, {r4, lr}
    write(str, strlen(str));
 23fc2da:	4718      	bx	r3

023fc2dc <_ZN5spark16StreamLogHandler5writeEc>:
inline void spark::StreamLogHandler::write(char c) {
 23fc2dc:	b507      	push	{r0, r1, r2, lr}
    write(&c, 1);
 23fc2de:	6803      	ldr	r3, [r0, #0]
inline void spark::StreamLogHandler::write(char c) {
 23fc2e0:	f88d 1007 	strb.w	r1, [sp, #7]
    write(&c, 1);
 23fc2e4:	2201      	movs	r2, #1
 23fc2e6:	68db      	ldr	r3, [r3, #12]
 23fc2e8:	f10d 0107 	add.w	r1, sp, #7
 23fc2ec:	4798      	blx	r3
}
 23fc2ee:	b003      	add	sp, #12
 23fc2f0:	f85d fb04 	ldr.w	pc, [sp], #4

023fc2f4 <_ZN5spark6detail9LogFilter4NodeC1EOS2_>:
struct spark::detail::LogFilter::Node {
 23fc2f4:	680a      	ldr	r2, [r1, #0]
 23fc2f6:	b510      	push	{r4, lr}
 23fc2f8:	6002      	str	r2, [r0, #0]
 23fc2fa:	684a      	ldr	r2, [r1, #4]
 23fc2fc:	6042      	str	r2, [r0, #4]
        capacity_(0) {
 23fc2fe:	2200      	movs	r2, #0
 23fc300:	e9c0 2202 	strd	r2, r2, [r0, #8]
 23fc304:	6102      	str	r2, [r0, #16]
      __a = _GLIBCXX_MOVE(__b);
 23fc306:	688c      	ldr	r4, [r1, #8]
      __b = _GLIBCXX_MOVE(__tmp);
 23fc308:	608a      	str	r2, [r1, #8]
      __a = _GLIBCXX_MOVE(__b);
 23fc30a:	6084      	str	r4, [r0, #8]
 23fc30c:	68cc      	ldr	r4, [r1, #12]
      __b = _GLIBCXX_MOVE(__tmp);
 23fc30e:	60ca      	str	r2, [r1, #12]
      __a = _GLIBCXX_MOVE(__b);
 23fc310:	60c4      	str	r4, [r0, #12]
 23fc312:	690c      	ldr	r4, [r1, #16]
      __b = _GLIBCXX_MOVE(__tmp);
 23fc314:	610a      	str	r2, [r1, #16]
      __a = _GLIBCXX_MOVE(__b);
 23fc316:	6104      	str	r4, [r0, #16]
 23fc318:	bd10      	pop	{r4, pc}
	...

023fc31c <_ZN5spark6detail9LogFilter9nodeIndexERKNS_6VectorINS1_4NodeENS_16DefaultAllocatorEEEPKcjRb>:
int spark::detail::LogFilter::nodeIndex(const Vector<Node> &nodes, const char *name, size_t size, bool &found) {
 23fc31c:	e92d 4ff7 	stmdb	sp!, {r0, r1, r2, r4, r5, r6, r7, r8, r9, sl, fp, lr}
    return data_ + size_;
}

template<typename T, typename AllocatorT>
const T* spark::Vector<T, AllocatorT>::end() const {
    return data_ + size_;
 23fc320:	f04f 0a14 	mov.w	sl, #20
 23fc324:	e9d0 8400 	ldrd	r8, r4, [r0]
 23fc328:	4617      	mov	r7, r2
               random_access_iterator_tag)
    {
      // concept requirements
      __glibcxx_function_requires(_RandomAccessIteratorConcept<
				  _RandomAccessIterator>)
      return __last - __first;
 23fc32a:	4645      	mov	r5, r8
 23fc32c:	fb0a f404 	mul.w	r4, sl, r4
 23fc330:	9300      	str	r3, [sp, #0]
 23fc332:	4b17      	ldr	r3, [pc, #92]	; (23fc390 <_ZN5spark6detail9LogFilter9nodeIndexERKNS_6VectorINS1_4NodeENS_16DefaultAllocatorEEEPKcjRb+0x74>)
 23fc334:	10a4      	asrs	r4, r4, #2
 23fc336:	435c      	muls	r4, r3
      typedef typename iterator_traits<_ForwardIterator>::difference_type
	_DistanceType;

      _DistanceType __len = std::distance(__first, __last);

      while (__len > 0)
 23fc338:	2c00      	cmp	r4, #0
 23fc33a:	dd21      	ble.n	23fc380 <_ZN5spark6detail9LogFilter9nodeIndexERKNS_6VectorINS1_4NodeENS_16DefaultAllocatorEEEPKcjRb+0x64>
	{
	  _DistanceType __half = __len >> 1;
 23fc33c:	1066      	asrs	r6, r4, #1
      if (__builtin_constant_p(__n) && __n == 1)
	++__i;
      else if (__builtin_constant_p(__n) && __n == -1)
	--__i;
      else
	__i += __n;
 23fc33e:	fb0a f006 	mul.w	r0, sl, r6
 23fc342:	eb05 0900 	add.w	r9, r5, r0
                const int cmp = strncmp(node.name, value.first, std::min<size_t>(node.size, value.second));
 23fc346:	f8b9 b004 	ldrh.w	fp, [r9, #4]
 23fc34a:	463a      	mov	r2, r7
 23fc34c:	455f      	cmp	r7, fp
 23fc34e:	bf28      	it	cs
 23fc350:	465a      	movcs	r2, fp
 23fc352:	5828      	ldr	r0, [r5, r0]
 23fc354:	9101      	str	r1, [sp, #4]
 23fc356:	f002 fa62 	bl	23fe81e <strncmp>
                if (cmp == 0) {
 23fc35a:	2800      	cmp	r0, #0
 23fc35c:	f04f 0301 	mov.w	r3, #1
 23fc360:	9901      	ldr	r1, [sp, #4]
 23fc362:	d10b      	bne.n	23fc37c <_ZN5spark6detail9LogFilter9nodeIndexERKNS_6VectorINS1_4NodeENS_16DefaultAllocatorEEEPKcjRb+0x60>
                    if (node.size == value.second) { // Lengths are equal
 23fc364:	455f      	cmp	r7, fp
 23fc366:	d103      	bne.n	23fc370 <_ZN5spark6detail9LogFilter9nodeIndexERKNS_6VectorINS1_4NodeENS_16DefaultAllocatorEEEPKcjRb+0x54>
                        found = true; // Allows caller code to avoid extra call to strncmp()
 23fc368:	9a00      	ldr	r2, [sp, #0]
 23fc36a:	7013      	strb	r3, [r2, #0]
int spark::detail::LogFilter::nodeIndex(const Vector<Node> &nodes, const char *name, size_t size, bool &found) {
 23fc36c:	4634      	mov	r4, r6
 23fc36e:	e7e3      	b.n	23fc338 <_ZN5spark6detail9LogFilter9nodeIndexERKNS_6VectorINS1_4NodeENS_16DefaultAllocatorEEEPKcjRb+0x1c>
	  _ForwardIterator __middle = __first;
	  std::advance(__middle, __half);
	  if (__comp(__middle, __val))
 23fc370:	d9fc      	bls.n	23fc36c <_ZN5spark6detail9LogFilter9nodeIndexERKNS_6VectorINS1_4NodeENS_16DefaultAllocatorEEEPKcjRb+0x50>
	    {
	      __first = __middle;
	      ++__first;
	      __len = __len - __half - 1;
 23fc372:	1ba6      	subs	r6, r4, r6
	      ++__first;
 23fc374:	f109 0514 	add.w	r5, r9, #20
	      __len = __len - __half - 1;
 23fc378:	3e01      	subs	r6, #1
 23fc37a:	e7f7      	b.n	23fc36c <_ZN5spark6detail9LogFilter9nodeIndexERKNS_6VectorINS1_4NodeENS_16DefaultAllocatorEEEPKcjRb+0x50>
	  if (__comp(__middle, __val))
 23fc37c:	dbf9      	blt.n	23fc372 <_ZN5spark6detail9LogFilter9nodeIndexERKNS_6VectorINS1_4NodeENS_16DefaultAllocatorEEEPKcjRb+0x56>
 23fc37e:	e7f5      	b.n	23fc36c <_ZN5spark6detail9LogFilter9nodeIndexERKNS_6VectorINS1_4NodeENS_16DefaultAllocatorEEEPKcjRb+0x50>
      return __last - __first;
 23fc380:	eba5 0508 	sub.w	r5, r5, r8
}
 23fc384:	4802      	ldr	r0, [pc, #8]	; (23fc390 <_ZN5spark6detail9LogFilter9nodeIndexERKNS_6VectorINS1_4NodeENS_16DefaultAllocatorEEEPKcjRb+0x74>)
 23fc386:	10ad      	asrs	r5, r5, #2
 23fc388:	4368      	muls	r0, r5
 23fc38a:	b003      	add	sp, #12
 23fc38c:	e8bd 8ff0 	ldmia.w	sp!, {r4, r5, r6, r7, r8, r9, sl, fp, pc}
 23fc390:	cccccccd 	.word	0xcccccccd

023fc394 <_ZNK5spark6detail9LogFilter5levelEPKc>:
LogLevel spark::detail::LogFilter::level(const char *category) const {
 23fc394:	b57f      	push	{r0, r1, r2, r3, r4, r5, r6, lr}
    if (!nodes_.isEmpty() && category) {
 23fc396:	6903      	ldr	r3, [r0, #16]
    LogLevel level = level_; // Default level
 23fc398:	7e05      	ldrb	r5, [r0, #24]
LogLevel spark::detail::LogFilter::level(const char *category) const {
 23fc39a:	9101      	str	r1, [sp, #4]
    if (!nodes_.isEmpty() && category) {
 23fc39c:	b303      	cbz	r3, 23fc3e0 <_ZNK5spark6detail9LogFilter5levelEPKc+0x4c>
 23fc39e:	b1f9      	cbz	r1, 23fc3e0 <_ZNK5spark6detail9LogFilter5levelEPKc+0x4c>
        size_t size = 0; // Name length
 23fc3a0:	2600      	movs	r6, #0
        const Vector<Node> *pNodes = &nodes_; // Root nodes
 23fc3a2:	f100 040c 	add.w	r4, r0, #12
        size_t size = 0; // Name length
 23fc3a6:	9603      	str	r6, [sp, #12]
        while ((name = nextSubcategoryName(category, size))) {
 23fc3a8:	a903      	add	r1, sp, #12
 23fc3aa:	a801      	add	r0, sp, #4
 23fc3ac:	f7ff ff21 	bl	23fc1f2 <_ZN12_GLOBAL__N_119nextSubcategoryNameERPKcRj>
 23fc3b0:	4601      	mov	r1, r0
 23fc3b2:	b1a8      	cbz	r0, 23fc3e0 <_ZNK5spark6detail9LogFilter5levelEPKc+0x4c>
            const int index = nodeIndex(*pNodes, name, size, found);
 23fc3b4:	f10d 030b 	add.w	r3, sp, #11
 23fc3b8:	4620      	mov	r0, r4
 23fc3ba:	9a03      	ldr	r2, [sp, #12]
            bool found = false;
 23fc3bc:	f88d 600b 	strb.w	r6, [sp, #11]
            const int index = nodeIndex(*pNodes, name, size, found);
 23fc3c0:	f7ff ffac 	bl	23fc31c <_ZN5spark6detail9LogFilter9nodeIndexERKNS_6VectorINS1_4NodeENS_16DefaultAllocatorEEEPKcjRb>
            if (!found) {
 23fc3c4:	f89d 300b 	ldrb.w	r3, [sp, #11]
 23fc3c8:	b153      	cbz	r3, 23fc3e0 <_ZNK5spark6detail9LogFilter5levelEPKc+0x4c>
    return data_[i];
 23fc3ca:	6823      	ldr	r3, [r4, #0]
 23fc3cc:	2414      	movs	r4, #20
 23fc3ce:	fb04 3400 	mla	r4, r4, r0, r3
            if (node.level >= 0) {
 23fc3d2:	f9b4 3006 	ldrsh.w	r3, [r4, #6]
            pNodes = &node.nodes;
 23fc3d6:	3408      	adds	r4, #8
            if (node.level >= 0) {
 23fc3d8:	2b00      	cmp	r3, #0
                level = (LogLevel)node.level;
 23fc3da:	bfa8      	it	ge
 23fc3dc:	b2dd      	uxtbge	r5, r3
        while ((name = nextSubcategoryName(category, size))) {
 23fc3de:	e7e3      	b.n	23fc3a8 <_ZNK5spark6detail9LogFilter5levelEPKc+0x14>
}
 23fc3e0:	4628      	mov	r0, r5
 23fc3e2:	b004      	add	sp, #16
 23fc3e4:	bd70      	pop	{r4, r5, r6, pc}

023fc3e6 <_ZN5spark16StreamLogHandler6printfEPKcz>:
void spark::StreamLogHandler::printf(const char *fmt, ...) {
 23fc3e6:	b40e      	push	{r1, r2, r3}
 23fc3e8:	b5f0      	push	{r4, r5, r6, r7, lr}
 23fc3ea:	b08c      	sub	sp, #48	; 0x30
 23fc3ec:	af00      	add	r7, sp, #0
 23fc3ee:	f107 0544 	add.w	r5, r7, #68	; 0x44
 23fc3f2:	f855 2b04 	ldr.w	r2, [r5], #4
 23fc3f6:	4604      	mov	r4, r0
    int n = vsnprintf(buf, sizeof(buf), fmt, args);
 23fc3f8:	462b      	mov	r3, r5
 23fc3fa:	2120      	movs	r1, #32
 23fc3fc:	f107 0010 	add.w	r0, r7, #16
 23fc400:	607a      	str	r2, [r7, #4]
    va_start(args, fmt);
 23fc402:	60fd      	str	r5, [r7, #12]
    int n = vsnprintf(buf, sizeof(buf), fmt, args);
 23fc404:	f7ff f91c 	bl	23fb640 <vsnprintf>
    if ((size_t)n >= sizeof(buf)) {
 23fc408:	281f      	cmp	r0, #31
 23fc40a:	687a      	ldr	r2, [r7, #4]
 23fc40c:	d91a      	bls.n	23fc444 <_ZN5spark16StreamLogHandler6printfEPKcz+0x5e>
        char buf[n + 1]; // Use a larger buffer
 23fc40e:	f100 0308 	add.w	r3, r0, #8
 23fc412:	f023 0307 	bic.w	r3, r3, #7
        }
 23fc416:	466e      	mov	r6, sp
        char buf[n + 1]; // Use a larger buffer
 23fc418:	ebad 0d03 	sub.w	sp, sp, r3
        n = vsnprintf(buf, sizeof(buf), fmt, args);
 23fc41c:	1c41      	adds	r1, r0, #1
 23fc41e:	462b      	mov	r3, r5
 23fc420:	4668      	mov	r0, sp
        va_start(args, fmt);
 23fc422:	60fd      	str	r5, [r7, #12]
        n = vsnprintf(buf, sizeof(buf), fmt, args);
 23fc424:	f7ff f90c 	bl	23fb640 <vsnprintf>
        if (n > 0) {
 23fc428:	1e02      	subs	r2, r0, #0
 23fc42a:	dd04      	ble.n	23fc436 <_ZN5spark16StreamLogHandler6printfEPKcz+0x50>
            write(buf, n);
 23fc42c:	6823      	ldr	r3, [r4, #0]
 23fc42e:	4669      	mov	r1, sp
 23fc430:	4620      	mov	r0, r4
 23fc432:	68db      	ldr	r3, [r3, #12]
 23fc434:	4798      	blx	r3
 23fc436:	46b5      	mov	sp, r6
}
 23fc438:	3730      	adds	r7, #48	; 0x30
 23fc43a:	46bd      	mov	sp, r7
 23fc43c:	e8bd 40f0 	ldmia.w	sp!, {r4, r5, r6, r7, lr}
 23fc440:	b003      	add	sp, #12
 23fc442:	4770      	bx	lr
    } else if (n > 0) {
 23fc444:	2800      	cmp	r0, #0
 23fc446:	d0f7      	beq.n	23fc438 <_ZN5spark16StreamLogHandler6printfEPKcz+0x52>
        write(buf, n);
 23fc448:	6823      	ldr	r3, [r4, #0]
 23fc44a:	4602      	mov	r2, r0
 23fc44c:	68db      	ldr	r3, [r3, #12]
 23fc44e:	4620      	mov	r0, r4
 23fc450:	f107 0110 	add.w	r1, r7, #16
 23fc454:	4798      	blx	r3
}
 23fc456:	e7ef      	b.n	23fc438 <_ZN5spark16StreamLogHandler6printfEPKcz+0x52>

023fc458 <_ZN5spark24DefaultLogHandlerFactory8instanceEv>:
spark::DefaultLogHandlerFactory* spark::DefaultLogHandlerFactory::instance() {
 23fc458:	b510      	push	{r4, lr}
    static DefaultLogHandlerFactory factory;
 23fc45a:	4c08      	ldr	r4, [pc, #32]	; (23fc47c <_ZN5spark24DefaultLogHandlerFactory8instanceEv+0x24>)
 23fc45c:	e8d4 3f8f 	ldab	r3, [r4]
 23fc460:	07db      	lsls	r3, r3, #31
 23fc462:	d409      	bmi.n	23fc478 <_ZN5spark24DefaultLogHandlerFactory8instanceEv+0x20>
 23fc464:	4620      	mov	r0, r4
 23fc466:	f7fc fb37 	bl	23f8ad8 <__cxa_guard_acquire>
 23fc46a:	b128      	cbz	r0, 23fc478 <_ZN5spark24DefaultLogHandlerFactory8instanceEv+0x20>
 23fc46c:	4620      	mov	r0, r4
 23fc46e:	f7fc fb38 	bl	23f8ae2 <__cxa_guard_release>
 23fc472:	4803      	ldr	r0, [pc, #12]	; (23fc480 <_ZN5spark24DefaultLogHandlerFactory8instanceEv+0x28>)
 23fc474:	f002 f92a 	bl	23fe6cc <atexit>
}
 23fc478:	4802      	ldr	r0, [pc, #8]	; (23fc484 <_ZN5spark24DefaultLogHandlerFactory8instanceEv+0x2c>)
 23fc47a:	bd10      	pop	{r4, pc}
 23fc47c:	1007ae74 	.word	0x1007ae74
 23fc480:	023fc1eb 	.word	0x023fc1eb
 23fc484:	1007ad40 	.word	0x1007ad40

023fc488 <_ZN5spark26DefaultOutputStreamFactory8instanceEv>:

spark::DefaultOutputStreamFactory* spark::DefaultOutputStreamFactory::instance() {
 23fc488:	b510      	push	{r4, lr}
    static DefaultOutputStreamFactory factory;
 23fc48a:	4c08      	ldr	r4, [pc, #32]	; (23fc4ac <_ZN5spark26DefaultOutputStreamFactory8instanceEv+0x24>)
 23fc48c:	e8d4 3f8f 	ldab	r3, [r4]
 23fc490:	07db      	lsls	r3, r3, #31
 23fc492:	d409      	bmi.n	23fc4a8 <_ZN5spark26DefaultOutputStreamFactory8instanceEv+0x20>
 23fc494:	4620      	mov	r0, r4
 23fc496:	f7fc fb1f 	bl	23f8ad8 <__cxa_guard_acquire>
 23fc49a:	b128      	cbz	r0, 23fc4a8 <_ZN5spark26DefaultOutputStreamFactory8instanceEv+0x20>
 23fc49c:	4620      	mov	r0, r4
 23fc49e:	f7fc fb20 	bl	23f8ae2 <__cxa_guard_release>
 23fc4a2:	4803      	ldr	r0, [pc, #12]	; (23fc4b0 <_ZN5spark26DefaultOutputStreamFactory8instanceEv+0x28>)
 23fc4a4:	f002 f912 	bl	23fe6cc <atexit>
    return &factory;
}
 23fc4a8:	4802      	ldr	r0, [pc, #8]	; (23fc4b4 <_ZN5spark26DefaultOutputStreamFactory8instanceEv+0x2c>)
 23fc4aa:	bd10      	pop	{r4, pc}
 23fc4ac:	1007ae78 	.word	0x1007ae78
 23fc4b0:	023fc253 	.word	0x023fc253
 23fc4b4:	1007ad44 	.word	0x1007ad44

023fc4b8 <_ZN5spark10LogManagerC1Ev>:
    Print *stream;
};

#endif // Wiring_LogConfig

spark::LogManager::LogManager() {
 23fc4b8:	b538      	push	{r3, r4, r5, lr}
        capacity_(0) {
 23fc4ba:	2500      	movs	r5, #0
 23fc4bc:	4604      	mov	r4, r0
 23fc4be:	e9c0 5500 	strd	r5, r5, [r0]
 23fc4c2:	e9c0 5504 	strd	r5, r5, [r0, #16]
 23fc4c6:	6085      	str	r5, [r0, #8]
 23fc4c8:	6185      	str	r5, [r0, #24]
    RecursiveMutex() : handle_(nullptr)
 23fc4ca:	f840 5f24 	str.w	r5, [r0, #36]!
        os_mutex_recursive_create(&handle_);
 23fc4ce:	f7fe fc3b 	bl	23fad48 <os_mutex_recursive_create>
#if Wiring_LogConfig
    handlerFactory_ = DefaultLogHandlerFactory::instance();
 23fc4d2:	f7ff ffc1 	bl	23fc458 <_ZN5spark24DefaultLogHandlerFactory8instanceEv>
 23fc4d6:	61e0      	str	r0, [r4, #28]
    streamFactory_ = DefaultOutputStreamFactory::instance();
 23fc4d8:	f7ff ffd6 	bl	23fc488 <_ZN5spark26DefaultOutputStreamFactory8instanceEv>
#endif
    outputActive_ = false;
 23fc4dc:	7325      	strb	r5, [r4, #12]
    streamFactory_ = DefaultOutputStreamFactory::instance();
 23fc4de:	6220      	str	r0, [r4, #32]
}
 23fc4e0:	4620      	mov	r0, r4
 23fc4e2:	bd38      	pop	{r3, r4, r5, pc}

023fc4e4 <_ZN5spark10LogManager8instanceEv>:
            resetSystemCallbacks();
        }
    }
}

spark::LogManager* spark::LogManager::instance() {
 23fc4e4:	b510      	push	{r4, lr}
    static LogManager mgr;
 23fc4e6:	4c0a      	ldr	r4, [pc, #40]	; (23fc510 <_ZN5spark10LogManager8instanceEv+0x2c>)
 23fc4e8:	e8d4 3f8f 	ldab	r3, [r4]
 23fc4ec:	07db      	lsls	r3, r3, #31
 23fc4ee:	d40c      	bmi.n	23fc50a <_ZN5spark10LogManager8instanceEv+0x26>
 23fc4f0:	4620      	mov	r0, r4
 23fc4f2:	f7fc faf1 	bl	23f8ad8 <__cxa_guard_acquire>
 23fc4f6:	b140      	cbz	r0, 23fc50a <_ZN5spark10LogManager8instanceEv+0x26>
 23fc4f8:	4806      	ldr	r0, [pc, #24]	; (23fc514 <_ZN5spark10LogManager8instanceEv+0x30>)
 23fc4fa:	f7ff ffdd 	bl	23fc4b8 <_ZN5spark10LogManagerC1Ev>
 23fc4fe:	4620      	mov	r0, r4
 23fc500:	f7fc faef 	bl	23f8ae2 <__cxa_guard_release>
 23fc504:	4804      	ldr	r0, [pc, #16]	; (23fc518 <_ZN5spark10LogManager8instanceEv+0x34>)
 23fc506:	f002 f8e1 	bl	23fe6cc <atexit>
    return &mgr;
}
 23fc50a:	4802      	ldr	r0, [pc, #8]	; (23fc514 <_ZN5spark10LogManager8instanceEv+0x30>)
 23fc50c:	bd10      	pop	{r4, pc}
 23fc50e:	bf00      	nop
 23fc510:	1007ae70 	.word	0x1007ae70
 23fc514:	1007ae80 	.word	0x1007ae80
 23fc518:	023fca35 	.word	0x023fca35

023fc51c <_ZN5spark10LogManager18setSystemCallbacksEv>:
}

#endif // Wiring_LogConfig

void spark::LogManager::setSystemCallbacks() {
    log_set_callbacks(logMessage, logWrite, logEnabled, nullptr);
 23fc51c:	2300      	movs	r3, #0
 23fc51e:	4a02      	ldr	r2, [pc, #8]	; (23fc528 <_ZN5spark10LogManager18setSystemCallbacksEv+0xc>)
 23fc520:	4902      	ldr	r1, [pc, #8]	; (23fc52c <_ZN5spark10LogManager18setSystemCallbacksEv+0x10>)
 23fc522:	4803      	ldr	r0, [pc, #12]	; (23fc530 <_ZN5spark10LogManager18setSystemCallbacksEv+0x14>)
 23fc524:	f7fe bea2 	b.w	23fb26c <log_set_callbacks>
 23fc528:	023fc81d 	.word	0x023fc81d
 23fc52c:	023fc7a9 	.word	0x023fc7a9
 23fc530:	023fc729 	.word	0x023fc729

023fc534 <_ZN5spark10LogManager20resetSystemCallbacksEv>:
}

void spark::LogManager::resetSystemCallbacks() {
    log_set_callbacks(nullptr, nullptr, nullptr, nullptr);
 23fc534:	2300      	movs	r3, #0
 23fc536:	461a      	mov	r2, r3
 23fc538:	4619      	mov	r1, r3
 23fc53a:	4618      	mov	r0, r3
 23fc53c:	f7fe be96 	b.w	23fb26c <log_set_callbacks>

023fc540 <_ZN5spark18JSONObjectIteratorC1ERKNS_9JSONValueE>:
inline spark::JSONObjectIterator::JSONObjectIterator(const JSONValue &value) :
 23fc540:	b537      	push	{r0, r1, r2, r4, r5, lr}
 23fc542:	4604      	mov	r4, r0
        JSONObjectIterator(value.t_, value.d_) {
 23fc544:	688d      	ldr	r5, [r1, #8]
       *  @brief  Construct an empty %shared_ptr.
       *  @post   use_count()==0 && get()==0
       */
      constexpr shared_ptr() noexcept : __shared_ptr<_Tp>() { }

      shared_ptr(const shared_ptr&) noexcept = default; ///< Copy constructor
 23fc546:	4668      	mov	r0, sp
 23fc548:	f7ff fea2 	bl	23fc290 <_ZNSt12__shared_ptrIN5spark6detail8JSONDataELN9__gnu_cxx12_Lock_policyE0EEC1ERKS5_>
 23fc54c:	466a      	mov	r2, sp
 23fc54e:	4629      	mov	r1, r5
 23fc550:	4620      	mov	r0, r4
 23fc552:	f001 fd47 	bl	23fdfe4 <_ZN5spark18JSONObjectIteratorC1EPK9jsmntok_tSt10shared_ptrINS_6detail8JSONDataEE>
      ~__shared_ptr() = default;
 23fc556:	a801      	add	r0, sp, #4
 23fc558:	f7fc fb22 	bl	23f8ba0 <_ZNSt14__shared_countILN9__gnu_cxx12_Lock_policyE0EED1Ev>
}
 23fc55c:	4620      	mov	r0, r4
 23fc55e:	b003      	add	sp, #12
 23fc560:	bd30      	pop	{r4, r5, pc}

023fc562 <_ZNK5spark18JSONObjectIterator4nameEv>:
inline spark::JSONString spark::JSONObjectIterator::name() const {
 23fc562:	b537      	push	{r0, r1, r2, r4, r5, lr}
 23fc564:	4604      	mov	r4, r0
    return JSONString(k_, d_);
 23fc566:	68cd      	ldr	r5, [r1, #12]
 23fc568:	4668      	mov	r0, sp
 23fc56a:	f7ff fe91 	bl	23fc290 <_ZNSt12__shared_ptrIN5spark6detail8JSONDataELN9__gnu_cxx12_Lock_policyE0EEC1ERKS5_>
 23fc56e:	466a      	mov	r2, sp
 23fc570:	4629      	mov	r1, r5
 23fc572:	4620      	mov	r0, r4
 23fc574:	f001 fd12 	bl	23fdf9c <_ZN5spark10JSONStringC1EPK9jsmntok_tSt10shared_ptrINS_6detail8JSONDataEE>
 23fc578:	a801      	add	r0, sp, #4
 23fc57a:	f7fc fb11 	bl	23f8ba0 <_ZNSt14__shared_countILN9__gnu_cxx12_Lock_policyE0EED1Ev>
}
 23fc57e:	4620      	mov	r0, r4
 23fc580:	b003      	add	sp, #12
 23fc582:	bd30      	pop	{r4, r5, pc}

023fc584 <_ZNK5spark18JSONObjectIterator5valueEv>:
inline spark::JSONValue spark::JSONObjectIterator::value() const {
 23fc584:	b537      	push	{r0, r1, r2, r4, r5, lr}
 23fc586:	4604      	mov	r4, r0
    return JSONValue(v_, d_);
 23fc588:	690d      	ldr	r5, [r1, #16]
 23fc58a:	4668      	mov	r0, sp
 23fc58c:	f7ff fe80 	bl	23fc290 <_ZNSt12__shared_ptrIN5spark6detail8JSONDataELN9__gnu_cxx12_Lock_policyE0EEC1ERKS5_>
 23fc590:	466a      	mov	r2, sp
 23fc592:	4629      	mov	r1, r5
 23fc594:	4620      	mov	r0, r4
 23fc596:	f001 fcaa 	bl	23fdeee <_ZN5spark9JSONValueC1EPK9jsmntok_tSt10shared_ptrINS_6detail8JSONDataEE>
 23fc59a:	a801      	add	r0, sp, #4
 23fc59c:	f7fc fb00 	bl	23f8ba0 <_ZNSt14__shared_countILN9__gnu_cxx12_Lock_policyE0EED1Ev>
}
 23fc5a0:	4620      	mov	r0, r4
 23fc5a2:	b003      	add	sp, #12
 23fc5a4:	bd30      	pop	{r4, r5, pc}
	...

023fc5a8 <_ZN5spark26DefaultOutputStreamFactory9getParamsERKNS_9JSONValueEPi>:
void spark::DefaultOutputStreamFactory::getParams(const JSONValue &params, int *baudRate) {
 23fc5a8:	b570      	push	{r4, r5, r6, lr}
 23fc5aa:	b08a      	sub	sp, #40	; 0x28
 23fc5ac:	460d      	mov	r5, r1
    JSONObjectIterator it(params);
 23fc5ae:	4601      	mov	r1, r0
 23fc5b0:	a804      	add	r0, sp, #16
 23fc5b2:	f7ff ffc5 	bl	23fc540 <_ZN5spark18JSONObjectIteratorC1ERKNS_9JSONValueE>
        if (it.name() == "baud" && baudRate) {
 23fc5b6:	4e14      	ldr	r6, [pc, #80]	; (23fc608 <_ZN5spark26DefaultOutputStreamFactory9getParamsERKNS_9JSONValueEPi+0x60>)
    while (it.next()) {
 23fc5b8:	a804      	add	r0, sp, #16
 23fc5ba:	f001 fd2b 	bl	23fe014 <_ZN5spark18JSONObjectIterator4nextEv>
 23fc5be:	b1e8      	cbz	r0, 23fc5fc <_ZN5spark26DefaultOutputStreamFactory9getParamsERKNS_9JSONValueEPi+0x54>
        if (it.name() == "baud" && baudRate) {
 23fc5c0:	4668      	mov	r0, sp
 23fc5c2:	a904      	add	r1, sp, #16
 23fc5c4:	f7ff ffcd 	bl	23fc562 <_ZNK5spark18JSONObjectIterator4nameEv>
 23fc5c8:	4631      	mov	r1, r6
 23fc5ca:	9802      	ldr	r0, [sp, #8]
 23fc5cc:	f7ff fe3a 	bl	23fc244 <_ZNK5spark10JSONStringeqEPKc.isra.0>
 23fc5d0:	4604      	mov	r4, r0
 23fc5d2:	b110      	cbz	r0, 23fc5da <_ZN5spark26DefaultOutputStreamFactory9getParamsERKNS_9JSONValueEPi+0x32>
 23fc5d4:	1e2c      	subs	r4, r5, #0
 23fc5d6:	bf18      	it	ne
 23fc5d8:	2401      	movne	r4, #1
 23fc5da:	a801      	add	r0, sp, #4
 23fc5dc:	f7fc fae0 	bl	23f8ba0 <_ZNSt14__shared_countILN9__gnu_cxx12_Lock_policyE0EED1Ev>
 23fc5e0:	2c00      	cmp	r4, #0
 23fc5e2:	d0e9      	beq.n	23fc5b8 <_ZN5spark26DefaultOutputStreamFactory9getParamsERKNS_9JSONValueEPi+0x10>
            *baudRate = it.value().toInt();
 23fc5e4:	4668      	mov	r0, sp
 23fc5e6:	a904      	add	r1, sp, #16
 23fc5e8:	f7ff ffcc 	bl	23fc584 <_ZNK5spark18JSONObjectIterator5valueEv>
 23fc5ec:	4668      	mov	r0, sp
 23fc5ee:	f001 fcb4 	bl	23fdf5a <_ZNK5spark9JSONValue5toIntEv>
 23fc5f2:	6028      	str	r0, [r5, #0]
 23fc5f4:	a801      	add	r0, sp, #4
 23fc5f6:	f7fc fad3 	bl	23f8ba0 <_ZNSt14__shared_countILN9__gnu_cxx12_Lock_policyE0EED1Ev>
 23fc5fa:	e7dd      	b.n	23fc5b8 <_ZN5spark26DefaultOutputStreamFactory9getParamsERKNS_9JSONValueEPi+0x10>
 23fc5fc:	a805      	add	r0, sp, #20
 23fc5fe:	f7fc facf 	bl	23f8ba0 <_ZNSt14__shared_countILN9__gnu_cxx12_Lock_policyE0EED1Ev>
}
 23fc602:	b00a      	add	sp, #40	; 0x28
 23fc604:	bd70      	pop	{r4, r5, r6, pc}
 23fc606:	bf00      	nop
 23fc608:	023ffb04 	.word	0x023ffb04

023fc60c <_ZN5spark26DefaultOutputStreamFactory12createStreamEPKcRKNS_9JSONValueE>:
Print* spark::DefaultOutputStreamFactory::createStream(const char *type, const JSONValue &params) {
 23fc60c:	b537      	push	{r0, r1, r2, r4, r5, lr}
 23fc60e:	460c      	mov	r4, r1
    if (strcmp(type, "Serial") == 0) {
 23fc610:	4913      	ldr	r1, [pc, #76]	; (23fc660 <_ZN5spark26DefaultOutputStreamFactory12createStreamEPKcRKNS_9JSONValueE+0x54>)
 23fc612:	4620      	mov	r0, r4
Print* spark::DefaultOutputStreamFactory::createStream(const char *type, const JSONValue &params) {
 23fc614:	4615      	mov	r5, r2
    if (strcmp(type, "Serial") == 0) {
 23fc616:	f7fc fa1b 	bl	23f8a50 <strcmp>
 23fc61a:	b950      	cbnz	r0, 23fc632 <_ZN5spark26DefaultOutputStreamFactory12createStreamEPKcRKNS_9JSONValueE+0x26>
        Serial.begin();
 23fc61c:	f001 f9c4 	bl	23fd9a8 <_Z16_fetch_usbserialv>
 23fc620:	f44f 5116 	mov.w	r1, #9600	; 0x2580
 23fc624:	f001 f9ae 	bl	23fd984 <_ZN9USBSerial5beginEl>
}
 23fc628:	b003      	add	sp, #12
 23fc62a:	e8bd 4030 	ldmia.w	sp!, {r4, r5, lr}
        return &Serial;
 23fc62e:	f001 b9bb 	b.w	23fd9a8 <_Z16_fetch_usbserialv>
    if (strcmp(type, "Serial1") == 0) {
 23fc632:	4620      	mov	r0, r4
 23fc634:	490b      	ldr	r1, [pc, #44]	; (23fc664 <_ZN5spark26DefaultOutputStreamFactory12createStreamEPKcRKNS_9JSONValueE+0x58>)
 23fc636:	f7fc fa0b 	bl	23f8a50 <strcmp>
 23fc63a:	b978      	cbnz	r0, 23fc65c <_ZN5spark26DefaultOutputStreamFactory12createStreamEPKcRKNS_9JSONValueE+0x50>
        int baud = 9600;
 23fc63c:	f44f 5316 	mov.w	r3, #9600	; 0x2580
        getParams(params, &baud);
 23fc640:	a901      	add	r1, sp, #4
 23fc642:	4628      	mov	r0, r5
        int baud = 9600;
 23fc644:	9301      	str	r3, [sp, #4]
        getParams(params, &baud);
 23fc646:	f7ff ffaf 	bl	23fc5a8 <_ZN5spark26DefaultOutputStreamFactory9getParamsERKNS_9JSONValueEPi>
        Serial1.begin(baud);
 23fc64a:	f001 fe53 	bl	23fe2f4 <_Z22__fetch_global_Serial1v>
 23fc64e:	9901      	ldr	r1, [sp, #4]
 23fc650:	f001 fa4e 	bl	23fdaf0 <_ZN11USARTSerial5beginEm>
        return &Serial1;
 23fc654:	f001 fe4e 	bl	23fe2f4 <_Z22__fetch_global_Serial1v>
}
 23fc658:	b003      	add	sp, #12
 23fc65a:	bd30      	pop	{r4, r5, pc}
    return nullptr;
 23fc65c:	2000      	movs	r0, #0
 23fc65e:	e7fb      	b.n	23fc658 <_ZN5spark26DefaultOutputStreamFactory12createStreamEPKcRKNS_9JSONValueE+0x4c>
 23fc660:	023ffb09 	.word	0x023ffb09
 23fc664:	023ffb10 	.word	0x023ffb10

023fc668 <_ZN5spark6VectorINS_6detail9LogFilter4NodeENS_16DefaultAllocatorEED1Ev>:
inline spark::Vector<T, AllocatorT>::~Vector() {
 23fc668:	b570      	push	{r4, r5, r6, lr}
    destruct(data_, data_ + size_);
 23fc66a:	2614      	movs	r6, #20
 23fc66c:	e9d0 5300 	ldrd	r5, r3, [r0]
inline spark::Vector<T, AllocatorT>::~Vector() {
 23fc670:	4604      	mov	r4, r0
    destruct(data_, data_ + size_);
 23fc672:	fb06 5603 	mla	r6, r6, r3, r5
        for (; p != end; ++p) {
 23fc676:	42ae      	cmp	r6, r5
 23fc678:	d005      	beq.n	23fc686 <_ZN5spark6VectorINS_6detail9LogFilter4NodeENS_16DefaultAllocatorEED1Ev+0x1e>
struct spark::detail::LogFilter::Node {
 23fc67a:	f105 0008 	add.w	r0, r5, #8
 23fc67e:	f7ff fff3 	bl	23fc668 <_ZN5spark6VectorINS_6detail9LogFilter4NodeENS_16DefaultAllocatorEED1Ev>
 23fc682:	3514      	adds	r5, #20
 23fc684:	e7f7      	b.n	23fc676 <_ZN5spark6VectorINS_6detail9LogFilter4NodeENS_16DefaultAllocatorEED1Ev+0xe>
    ::free(ptr);
 23fc686:	6820      	ldr	r0, [r4, #0]
 23fc688:	f7fe ffbe 	bl	23fb608 <free>
}
 23fc68c:	4620      	mov	r0, r4
 23fc68e:	bd70      	pop	{r4, r5, r6, pc}

023fc690 <_ZN5spark6detail9LogFilterD1Ev>:
spark::detail::LogFilter::~LogFilter() {
 23fc690:	b510      	push	{r4, lr}
 23fc692:	4604      	mov	r4, r0
 23fc694:	300c      	adds	r0, #12
 23fc696:	f7ff ffe7 	bl	23fc668 <_ZN5spark6VectorINS_6detail9LogFilter4NodeENS_16DefaultAllocatorEED1Ev>
 23fc69a:	4620      	mov	r0, r4
 23fc69c:	f7ff fb4f 	bl	23fbd3e <_ZN5spark6VectorI6StringNS_16DefaultAllocatorEED1Ev>
}
 23fc6a0:	4620      	mov	r0, r4
 23fc6a2:	bd10      	pop	{r4, pc}

023fc6a4 <_ZN5spark16StreamLogHandlerD1Ev>:
class StreamLogHandler: public LogHandler {
 23fc6a4:	b510      	push	{r4, lr}
 23fc6a6:	4604      	mov	r4, r0
    virtual ~LogHandler() = default;
 23fc6a8:	4b03      	ldr	r3, [pc, #12]	; (23fc6b8 <_ZN5spark16StreamLogHandlerD1Ev+0x14>)
 23fc6aa:	f840 3b04 	str.w	r3, [r0], #4
 23fc6ae:	f7ff ffef 	bl	23fc690 <_ZN5spark6detail9LogFilterD1Ev>
class StreamLogHandler: public LogHandler {
 23fc6b2:	4620      	mov	r0, r4
 23fc6b4:	bd10      	pop	{r4, pc}
 23fc6b6:	bf00      	nop
 23fc6b8:	023fecd4 	.word	0x023fecd4

023fc6bc <_ZN5spark16StreamLogHandlerD0Ev>:
 23fc6bc:	b510      	push	{r4, lr}
 23fc6be:	4604      	mov	r4, r0
 23fc6c0:	f7ff fff0 	bl	23fc6a4 <_ZN5spark16StreamLogHandlerD1Ev>
 23fc6c4:	4620      	mov	r0, r4
 23fc6c6:	2124      	movs	r1, #36	; 0x24
 23fc6c8:	f7fc f9f7 	bl	23f8aba <_ZdlPvj>
 23fc6cc:	4620      	mov	r0, r4
 23fc6ce:	bd10      	pop	{r4, pc}

023fc6d0 <_ZN5spark20JSONStreamLogHandlerD1Ev>:
class JSONStreamLogHandler: public StreamLogHandler {
 23fc6d0:	b510      	push	{r4, lr}
 23fc6d2:	4604      	mov	r4, r0
 23fc6d4:	4b02      	ldr	r3, [pc, #8]	; (23fc6e0 <_ZN5spark20JSONStreamLogHandlerD1Ev+0x10>)
 23fc6d6:	6003      	str	r3, [r0, #0]
 23fc6d8:	f7ff ffe4 	bl	23fc6a4 <_ZN5spark16StreamLogHandlerD1Ev>
 23fc6dc:	4620      	mov	r0, r4
 23fc6de:	bd10      	pop	{r4, pc}
 23fc6e0:	023ffbb0 	.word	0x023ffbb0

023fc6e4 <_ZN5spark20JSONStreamLogHandlerD0Ev>:
 23fc6e4:	b510      	push	{r4, lr}
 23fc6e6:	4604      	mov	r4, r0
 23fc6e8:	f7ff fff2 	bl	23fc6d0 <_ZN5spark20JSONStreamLogHandlerD1Ev>
 23fc6ec:	4620      	mov	r0, r4
 23fc6ee:	2124      	movs	r1, #36	; 0x24
 23fc6f0:	f7fc f9e3 	bl	23f8aba <_ZdlPvj>
 23fc6f4:	4620      	mov	r0, r4
 23fc6f6:	bd10      	pop	{r4, pc}

023fc6f8 <_ZN5spark6VectorINS_17LogCategoryFilterENS_16DefaultAllocatorEEC1EOS3_>:
        capacity_(0) {
 23fc6f8:	2200      	movs	r2, #0
 23fc6fa:	e9c0 2200 	strd	r2, r2, [r0]
 23fc6fe:	6082      	str	r2, [r0, #8]
inline spark::Vector<T, AllocatorT>::Vector(Vector<T, AllocatorT>&& vector) : Vector() {
 23fc700:	b510      	push	{r4, lr}
 23fc702:	680c      	ldr	r4, [r1, #0]
      __b = _GLIBCXX_MOVE(__tmp);
 23fc704:	600a      	str	r2, [r1, #0]
      __a = _GLIBCXX_MOVE(__b);
 23fc706:	6004      	str	r4, [r0, #0]
 23fc708:	684c      	ldr	r4, [r1, #4]
      __b = _GLIBCXX_MOVE(__tmp);
 23fc70a:	604a      	str	r2, [r1, #4]
      __a = _GLIBCXX_MOVE(__b);
 23fc70c:	6044      	str	r4, [r0, #4]
 23fc70e:	688c      	ldr	r4, [r1, #8]
      __b = _GLIBCXX_MOVE(__tmp);
 23fc710:	608a      	str	r2, [r1, #8]
      __a = _GLIBCXX_MOVE(__b);
 23fc712:	6084      	str	r4, [r0, #8]
}
 23fc714:	bd10      	pop	{r4, pc}

023fc716 <_ZNSt10lock_guardI14RecursiveMutexED1Ev>:
      { _M_device.lock(); }

      lock_guard(mutex_type& __m, adopt_lock_t) noexcept : _M_device(__m)
      { } // calling thread owns mutex

      ~lock_guard()
 23fc716:	b510      	push	{r4, lr}
 23fc718:	4604      	mov	r4, r0
    bool trylock() { return os_mutex_recursive_trylock(handle_)==0; }
    bool try_lock() { return trylock(); }
    void unlock() { os_mutex_recursive_unlock(handle_); }
 23fc71a:	6803      	ldr	r3, [r0, #0]
 23fc71c:	6818      	ldr	r0, [r3, #0]
 23fc71e:	f7fe fb3d 	bl	23fad9c <os_mutex_recursive_unlock>
      { _M_device.unlock(); }
 23fc722:	4620      	mov	r0, r4
 23fc724:	bd10      	pop	{r4, pc}
	...

023fc728 <_ZN5spark10LogManager10logMessageEPKciS2_PK13LogAttributesPv>:
}

void spark::LogManager::logMessage(const char *msg, int level, const char *category, const LogAttributes *attr, void *reserved) {
 23fc728:	e92d 4ff0 	stmdb	sp!, {r4, r5, r6, r7, r8, r9, sl, fp, lr}
 23fc72c:	b087      	sub	sp, #28
 23fc72e:	9303      	str	r3, [sp, #12]

#elif defined(CONFIG_PLATFORM_8721D)


static inline bool hal_interrupt_is_isr() {
    return (SCB->ICSR & SCB_ICSR_VECTACTIVE_Msk) != 0;
 23fc730:	4b1c      	ldr	r3, [pc, #112]	; (23fc7a4 <_ZN5spark10LogManager10logMessageEPKciS2_PK13LogAttributesPv+0x7c>)
 23fc732:	4680      	mov	r8, r0
 23fc734:	685b      	ldr	r3, [r3, #4]
 23fc736:	4689      	mov	r9, r1
 23fc738:	f3c3 0308 	ubfx	r3, r3, #0, #9
 23fc73c:	4616      	mov	r6, r2
#ifndef LOG_FROM_ISR
    if (hal_interrupt_is_isr()) {
 23fc73e:	b96b      	cbnz	r3, 23fc75c <_ZN5spark10LogManager10logMessageEPKciS2_PK13LogAttributesPv+0x34>
        return;
    }
#endif
    LogManager *that = instance();
 23fc740:	f7ff fed0 	bl	23fc4e4 <_ZN5spark10LogManager8instanceEv>
 23fc744:	4604      	mov	r4, r0
    LOG_WITH_LOCK(that->mutex_) {
 23fc746:	f100 0324 	add.w	r3, r0, #36	; 0x24
      { _M_device.lock(); }
 23fc74a:	6a40      	ldr	r0, [r0, #36]	; 0x24
      explicit lock_guard(mutex_type& __m) : _M_device(__m)
 23fc74c:	9305      	str	r3, [sp, #20]
      { _M_device.lock(); }
 23fc74e:	f7ff fd77 	bl	23fc240 <_ZN14RecursiveMutex4lockEv.isra.0>
        // prevent re-entry
        if (that->isActive()) {
 23fc752:	7b23      	ldrb	r3, [r4, #12]
 23fc754:	b12b      	cbz	r3, 23fc762 <_ZN5spark10LogManager10logMessageEPKciS2_PK13LogAttributesPv+0x3a>
    LOG_WITH_LOCK(that->mutex_) {
 23fc756:	a805      	add	r0, sp, #20
 23fc758:	f7ff ffdd 	bl	23fc716 <_ZNSt10lock_guardI14RecursiveMutexED1Ev>
        for (LogHandler *handler: that->activeHandlers_) {
            handler->message(msg, (LogLevel)level, category, *attr);
        }
        that->setActive(false);
    }
}
 23fc75c:	b007      	add	sp, #28
 23fc75e:	e8bd 8ff0 	ldmia.w	sp!, {r4, r5, r6, r7, r8, r9, sl, fp, pc}
inline bool spark::LogManager::isActive() const {
    return outputActive_;
}

inline void spark::LogManager::setActive(bool outputActive) {
    outputActive_ = outputActive;
 23fc762:	2301      	movs	r3, #1
            handler->message(msg, (LogLevel)level, category, *attr);
 23fc764:	fa5f f989 	uxtb.w	r9, r9
    outputActive_ = outputActive;
 23fc768:	7323      	strb	r3, [r4, #12]
    return data_ + size_;
 23fc76a:	e9d4 5300 	ldrd	r5, r3, [r4]
 23fc76e:	eb05 0a83 	add.w	sl, r5, r3, lsl #2
        for (LogHandler *handler: that->activeHandlers_) {
 23fc772:	45aa      	cmp	sl, r5
 23fc774:	d012      	beq.n	23fc79c <_ZN5spark10LogManager10logMessageEPKciS2_PK13LogAttributesPv+0x74>
 23fc776:	f855 7b04 	ldr.w	r7, [r5], #4
    if (level >= filter_.level(category)) {
 23fc77a:	4631      	mov	r1, r6
 23fc77c:	1d38      	adds	r0, r7, #4
 23fc77e:	f7ff fe09 	bl	23fc394 <_ZNK5spark6detail9LogFilter5levelEPKc>
 23fc782:	4581      	cmp	r9, r0
 23fc784:	d3f5      	bcc.n	23fc772 <_ZN5spark10LogManager10logMessageEPKciS2_PK13LogAttributesPv+0x4a>
        logMessage(msg, level, category, attr);
 23fc786:	9a03      	ldr	r2, [sp, #12]
 23fc788:	683b      	ldr	r3, [r7, #0]
 23fc78a:	9200      	str	r2, [sp, #0]
 23fc78c:	f8d3 b008 	ldr.w	fp, [r3, #8]
 23fc790:	464a      	mov	r2, r9
 23fc792:	4633      	mov	r3, r6
 23fc794:	4641      	mov	r1, r8
 23fc796:	4638      	mov	r0, r7
 23fc798:	47d8      	blx	fp
 23fc79a:	e7ea      	b.n	23fc772 <_ZN5spark10LogManager10logMessageEPKciS2_PK13LogAttributesPv+0x4a>
    outputActive_ = outputActive;
 23fc79c:	2300      	movs	r3, #0
 23fc79e:	7323      	strb	r3, [r4, #12]
 23fc7a0:	e7d9      	b.n	23fc756 <_ZN5spark10LogManager10logMessageEPKciS2_PK13LogAttributesPv+0x2e>
 23fc7a2:	bf00      	nop
 23fc7a4:	e000ed00 	.word	0xe000ed00

023fc7a8 <_ZN5spark10LogManager8logWriteEPKcjiS2_Pv>:
void spark::LogManager::logWrite(const char *data, size_t size, int level, const char *category, void *reserved) {
 23fc7a8:	e92d 4ff7 	stmdb	sp!, {r0, r1, r2, r4, r5, r6, r7, r8, r9, sl, fp, lr}
 23fc7ac:	469b      	mov	fp, r3
 23fc7ae:	4b1a      	ldr	r3, [pc, #104]	; (23fc818 <_ZN5spark10LogManager8logWriteEPKcjiS2_Pv+0x70>)
 23fc7b0:	4680      	mov	r8, r0
 23fc7b2:	685b      	ldr	r3, [r3, #4]
 23fc7b4:	4689      	mov	r9, r1
 23fc7b6:	f3c3 0308 	ubfx	r3, r3, #0, #9
 23fc7ba:	4616      	mov	r6, r2
    if (hal_interrupt_is_isr()) {
 23fc7bc:	b96b      	cbnz	r3, 23fc7da <_ZN5spark10LogManager8logWriteEPKcjiS2_Pv+0x32>
    LogManager *that = instance();
 23fc7be:	f7ff fe91 	bl	23fc4e4 <_ZN5spark10LogManager8instanceEv>
 23fc7c2:	4604      	mov	r4, r0
    LOG_WITH_LOCK(that->mutex_) {
 23fc7c4:	f100 0324 	add.w	r3, r0, #36	; 0x24
 23fc7c8:	6a40      	ldr	r0, [r0, #36]	; 0x24
      explicit lock_guard(mutex_type& __m) : _M_device(__m)
 23fc7ca:	9301      	str	r3, [sp, #4]
      { _M_device.lock(); }
 23fc7cc:	f7ff fd38 	bl	23fc240 <_ZN14RecursiveMutex4lockEv.isra.0>
        if (that->isActive()) {
 23fc7d0:	7b23      	ldrb	r3, [r4, #12]
 23fc7d2:	b12b      	cbz	r3, 23fc7e0 <_ZN5spark10LogManager8logWriteEPKcjiS2_Pv+0x38>
    LOG_WITH_LOCK(that->mutex_) {
 23fc7d4:	a801      	add	r0, sp, #4
 23fc7d6:	f7ff ff9e 	bl	23fc716 <_ZNSt10lock_guardI14RecursiveMutexED1Ev>
}
 23fc7da:	b003      	add	sp, #12
 23fc7dc:	e8bd 8ff0 	ldmia.w	sp!, {r4, r5, r6, r7, r8, r9, sl, fp, pc}
    outputActive_ = outputActive;
 23fc7e0:	2301      	movs	r3, #1
    if (level >= filter_.level(category)) {
 23fc7e2:	b2f6      	uxtb	r6, r6
 23fc7e4:	7323      	strb	r3, [r4, #12]
 23fc7e6:	e9d4 5300 	ldrd	r5, r3, [r4]
 23fc7ea:	eb05 0a83 	add.w	sl, r5, r3, lsl #2
        for (LogHandler *handler: that->activeHandlers_) {
 23fc7ee:	4555      	cmp	r5, sl
 23fc7f0:	d00e      	beq.n	23fc810 <_ZN5spark10LogManager8logWriteEPKcjiS2_Pv+0x68>
 23fc7f2:	f855 7b04 	ldr.w	r7, [r5], #4
 23fc7f6:	4659      	mov	r1, fp
 23fc7f8:	1d38      	adds	r0, r7, #4
 23fc7fa:	f7ff fdcb 	bl	23fc394 <_ZNK5spark6detail9LogFilter5levelEPKc>
 23fc7fe:	4286      	cmp	r6, r0
 23fc800:	d3f5      	bcc.n	23fc7ee <_ZN5spark10LogManager8logWriteEPKcjiS2_Pv+0x46>
        write(data, size);
 23fc802:	683b      	ldr	r3, [r7, #0]
 23fc804:	464a      	mov	r2, r9
 23fc806:	4641      	mov	r1, r8
 23fc808:	4638      	mov	r0, r7
 23fc80a:	68db      	ldr	r3, [r3, #12]
 23fc80c:	4798      	blx	r3
 23fc80e:	e7ee      	b.n	23fc7ee <_ZN5spark10LogManager8logWriteEPKcjiS2_Pv+0x46>
    outputActive_ = outputActive;
 23fc810:	2300      	movs	r3, #0
 23fc812:	7323      	strb	r3, [r4, #12]
 23fc814:	e7de      	b.n	23fc7d4 <_ZN5spark10LogManager8logWriteEPKcjiS2_Pv+0x2c>
 23fc816:	bf00      	nop
 23fc818:	e000ed00 	.word	0xe000ed00

023fc81c <_ZN5spark10LogManager10logEnabledEiPKcPv>:
int spark::LogManager::logEnabled(int level, const char *category, void *reserved) {
 23fc81c:	e92d 41f3 	stmdb	sp!, {r0, r1, r4, r5, r6, r7, r8, lr}
 23fc820:	4b16      	ldr	r3, [pc, #88]	; (23fc87c <_ZN5spark10LogManager10logEnabledEiPKcPv+0x60>)
 23fc822:	4605      	mov	r5, r0
 23fc824:	685b      	ldr	r3, [r3, #4]
 23fc826:	460f      	mov	r7, r1
 23fc828:	f3c3 0308 	ubfx	r3, r3, #0, #9
    if (hal_interrupt_is_isr()) {
 23fc82c:	bb1b      	cbnz	r3, 23fc876 <_ZN5spark10LogManager10logEnabledEiPKcPv+0x5a>
    LogManager *that = instance();
 23fc82e:	f7ff fe59 	bl	23fc4e4 <_ZN5spark10LogManager8instanceEv>
 23fc832:	4604      	mov	r4, r0
    LOG_WITH_LOCK(that->mutex_) {
 23fc834:	f100 0324 	add.w	r3, r0, #36	; 0x24
 23fc838:	6a40      	ldr	r0, [r0, #36]	; 0x24
      explicit lock_guard(mutex_type& __m) : _M_device(__m)
 23fc83a:	9301      	str	r3, [sp, #4]
      { _M_device.lock(); }
 23fc83c:	f7ff fd00 	bl	23fc240 <_ZN14RecursiveMutex4lockEv.isra.0>
 23fc840:	e9d4 6300 	ldrd	r6, r3, [r4]
    int minLevel = LOG_LEVEL_NONE;
 23fc844:	2446      	movs	r4, #70	; 0x46
 23fc846:	eb06 0883 	add.w	r8, r6, r3, lsl #2
        for (LogHandler *handler: that->activeHandlers_) {
 23fc84a:	45b0      	cmp	r8, r6
 23fc84c:	d109      	bne.n	23fc862 <_ZN5spark10LogManager10logEnabledEiPKcPv+0x46>
    LOG_WITH_LOCK(that->mutex_) {
 23fc84e:	a801      	add	r0, sp, #4
 23fc850:	f7ff ff61 	bl	23fc716 <_ZNSt10lock_guardI14RecursiveMutexED1Ev>
    return (level >= minLevel);
 23fc854:	42a5      	cmp	r5, r4
 23fc856:	bfb4      	ite	lt
 23fc858:	2000      	movlt	r0, #0
 23fc85a:	2001      	movge	r0, #1
}
 23fc85c:	b002      	add	sp, #8
 23fc85e:	e8bd 81f0 	ldmia.w	sp!, {r4, r5, r6, r7, r8, pc}
    return filter_.level(category);
 23fc862:	f856 0b04 	ldr.w	r0, [r6], #4
 23fc866:	4639      	mov	r1, r7
 23fc868:	3004      	adds	r0, #4
 23fc86a:	f7ff fd93 	bl	23fc394 <_ZNK5spark6detail9LogFilter5levelEPKc>
            if (level < minLevel) {
 23fc86e:	4284      	cmp	r4, r0
 23fc870:	bfa8      	it	ge
 23fc872:	4604      	movge	r4, r0
        for (LogHandler *handler: that->activeHandlers_) {
 23fc874:	e7e9      	b.n	23fc84a <_ZN5spark10LogManager10logEnabledEiPKcPv+0x2e>
        return 0;
 23fc876:	2000      	movs	r0, #0
 23fc878:	e7f0      	b.n	23fc85c <_ZN5spark10LogManager10logEnabledEiPKcPv+0x40>
 23fc87a:	bf00      	nop
 23fc87c:	e000ed00 	.word	0xe000ed00

023fc880 <_ZN5spark6VectorIPNS_10LogHandlerENS_16DefaultAllocatorEE6appendES2_>:
inline bool spark::Vector<T, AllocatorT>::append(T value) {
 23fc880:	b5f8      	push	{r3, r4, r5, r6, r7, lr}
    if (size_ + 1 > capacity_ && !realloc(size_ + 1)) {
 23fc882:	e9d0 5301 	ldrd	r5, r3, [r0, #4]
 23fc886:	429d      	cmp	r5, r3
inline bool spark::Vector<T, AllocatorT>::append(T value) {
 23fc888:	4604      	mov	r4, r0
 23fc88a:	460e      	mov	r6, r1
    if (size_ + 1 > capacity_ && !realloc(size_ + 1)) {
 23fc88c:	db0d      	blt.n	23fc8aa <_ZN5spark6VectorIPNS_10LogHandlerENS_16DefaultAllocatorEE6appendES2_+0x2a>
 23fc88e:	1c6f      	adds	r7, r5, #1
        if (n > 0) {
 23fc890:	2f00      	cmp	r7, #0
            d = (T*)AllocatorT::realloc(data_, n * sizeof(T));
 23fc892:	6800      	ldr	r0, [r0, #0]
        if (n > 0) {
 23fc894:	dd04      	ble.n	23fc8a0 <_ZN5spark6VectorIPNS_10LogHandlerENS_16DefaultAllocatorEE6appendES2_+0x20>
    return ::realloc(ptr, size);
 23fc896:	00b9      	lsls	r1, r7, #2
 23fc898:	f7fe fec4 	bl	23fb624 <realloc>
            if (!d) {
 23fc89c:	b918      	cbnz	r0, 23fc8a6 <_ZN5spark6VectorIPNS_10LogHandlerENS_16DefaultAllocatorEE6appendES2_+0x26>
}
 23fc89e:	bdf8      	pop	{r3, r4, r5, r6, r7, pc}
    ::free(ptr);
 23fc8a0:	f7fe feb2 	bl	23fb608 <free>
        T* d = nullptr;
 23fc8a4:	2000      	movs	r0, #0
        data_ = d;
 23fc8a6:	6020      	str	r0, [r4, #0]
        capacity_ = n;
 23fc8a8:	60a7      	str	r7, [r4, #8]
    T* const p = data_ + i;
 23fc8aa:	6827      	ldr	r7, [r4, #0]
    move(p + 1, p, data_ + size_);
 23fc8ac:	6862      	ldr	r2, [r4, #4]
    T* const p = data_ + i;
 23fc8ae:	eb07 0185 	add.w	r1, r7, r5, lsl #2
    move(p + 1, p, data_ + size_);
 23fc8b2:	0092      	lsls	r2, r2, #2
        ::memmove(dest, p, (end - p) * sizeof(T));
 23fc8b4:	eba2 0285 	sub.w	r2, r2, r5, lsl #2
 23fc8b8:	1d08      	adds	r0, r1, #4
 23fc8ba:	f001 ff22 	bl	23fe702 <memmove>
    new(p) T(std::move(value));
 23fc8be:	f847 6025 	str.w	r6, [r7, r5, lsl #2]
    ++size_;
 23fc8c2:	6863      	ldr	r3, [r4, #4]
    return true;
 23fc8c4:	2001      	movs	r0, #1
    ++size_;
 23fc8c6:	3301      	adds	r3, #1
 23fc8c8:	6063      	str	r3, [r4, #4]
    return true;
 23fc8ca:	e7e8      	b.n	23fc89e <_ZN5spark6VectorIPNS_10LogHandlerENS_16DefaultAllocatorEE6appendES2_+0x1e>

023fc8cc <_ZN5spark10LogManager10addHandlerEPNS_10LogHandlerE>:
bool spark::LogManager::addHandler(LogHandler *handler) {
 23fc8cc:	b537      	push	{r0, r1, r2, r4, r5, lr}
 23fc8ce:	4604      	mov	r4, r0
    LOG_WITH_LOCK(mutex_) {
 23fc8d0:	f100 0324 	add.w	r3, r0, #36	; 0x24
 23fc8d4:	6a40      	ldr	r0, [r0, #36]	; 0x24
      explicit lock_guard(mutex_type& __m) : _M_device(__m)
 23fc8d6:	9301      	str	r3, [sp, #4]
bool spark::LogManager::addHandler(LogHandler *handler) {
 23fc8d8:	460d      	mov	r5, r1
      { _M_device.lock(); }
 23fc8da:	f7ff fcb1 	bl	23fc240 <_ZN14RecursiveMutex4lockEv.isra.0>
    return find(data_, data_ + size_, value);
 23fc8de:	e9d4 3200 	ldrd	r3, r2, [r4]
 23fc8e2:	eb03 0282 	add.w	r2, r3, r2, lsl #2
        for (; p != end; ++p) {
 23fc8e6:	4293      	cmp	r3, r2
 23fc8e8:	4619      	mov	r1, r3
 23fc8ea:	d00a      	beq.n	23fc902 <_ZN5spark10LogManager10addHandlerEPNS_10LogHandlerE+0x36>
            if (*p == value) {
 23fc8ec:	6809      	ldr	r1, [r1, #0]
 23fc8ee:	3304      	adds	r3, #4
 23fc8f0:	42a9      	cmp	r1, r5
 23fc8f2:	d1f8      	bne.n	23fc8e6 <_ZN5spark10LogManager10addHandlerEPNS_10LogHandlerE+0x1a>
            return false;
 23fc8f4:	a801      	add	r0, sp, #4
 23fc8f6:	f7ff ff0e 	bl	23fc716 <_ZNSt10lock_guardI14RecursiveMutexED1Ev>
 23fc8fa:	2500      	movs	r5, #0
}
 23fc8fc:	4628      	mov	r0, r5
 23fc8fe:	b003      	add	sp, #12
 23fc900:	bd30      	pop	{r4, r5, pc}
        if (activeHandlers_.contains(handler) || !activeHandlers_.append(handler)) {
 23fc902:	4629      	mov	r1, r5
 23fc904:	4620      	mov	r0, r4
 23fc906:	f7ff ffbb 	bl	23fc880 <_ZN5spark6VectorIPNS_10LogHandlerENS_16DefaultAllocatorEE6appendES2_>
 23fc90a:	4605      	mov	r5, r0
 23fc90c:	2800      	cmp	r0, #0
 23fc90e:	d0f1      	beq.n	23fc8f4 <_ZN5spark10LogManager10addHandlerEPNS_10LogHandlerE+0x28>
        if (activeHandlers_.size() == 1) {
 23fc910:	6863      	ldr	r3, [r4, #4]
 23fc912:	2b01      	cmp	r3, #1
 23fc914:	d101      	bne.n	23fc91a <_ZN5spark10LogManager10addHandlerEPNS_10LogHandlerE+0x4e>
            setSystemCallbacks();
 23fc916:	f7ff fe01 	bl	23fc51c <_ZN5spark10LogManager18setSystemCallbacksEv>
    LOG_WITH_LOCK(mutex_) {
 23fc91a:	a801      	add	r0, sp, #4
 23fc91c:	f7ff fefb 	bl	23fc716 <_ZNSt10lock_guardI14RecursiveMutexED1Ev>
 23fc920:	e7ec      	b.n	23fc8fc <_ZN5spark10LogManager10addHandlerEPNS_10LogHandlerE+0x30>

023fc922 <_ZN5spark6VectorIPNS_10LogHandlerENS_16DefaultAllocatorEE9removeOneERKS2_>:
inline bool spark::Vector<T, AllocatorT>::removeOne(const T &value) {
 23fc922:	460b      	mov	r3, r1
 23fc924:	b570      	push	{r4, r5, r6, lr}
 23fc926:	4604      	mov	r4, r0
    T* const p = find(data_, data_ + size_, value);
 23fc928:	e9d0 0200 	ldrd	r0, r2, [r0]
 23fc92c:	eb00 0282 	add.w	r2, r0, r2, lsl #2
        for (; p != end; ++p) {
 23fc930:	4282      	cmp	r2, r0
 23fc932:	d00f      	beq.n	23fc954 <_ZN5spark6VectorIPNS_10LogHandlerENS_16DefaultAllocatorEE9removeOneERKS2_+0x32>
    move(p, p + 1, data_ + size_);
 23fc934:	4601      	mov	r1, r0
            if (*p == value) {
 23fc936:	681d      	ldr	r5, [r3, #0]
 23fc938:	f851 6b04 	ldr.w	r6, [r1], #4
 23fc93c:	42ae      	cmp	r6, r5
 23fc93e:	d107      	bne.n	23fc950 <_ZN5spark6VectorIPNS_10LogHandlerENS_16DefaultAllocatorEE9removeOneERKS2_+0x2e>
        ::memmove(dest, p, (end - p) * sizeof(T));
 23fc940:	1a52      	subs	r2, r2, r1
 23fc942:	f001 fede 	bl	23fe702 <memmove>
    return true;
 23fc946:	2001      	movs	r0, #1
    --size_;
 23fc948:	6863      	ldr	r3, [r4, #4]
 23fc94a:	3b01      	subs	r3, #1
 23fc94c:	6063      	str	r3, [r4, #4]
}
 23fc94e:	bd70      	pop	{r4, r5, r6, pc}
    move(p, p + 1, data_ + size_);
 23fc950:	4608      	mov	r0, r1
 23fc952:	e7ed      	b.n	23fc930 <_ZN5spark6VectorIPNS_10LogHandlerENS_16DefaultAllocatorEE9removeOneERKS2_+0xe>
        return false;
 23fc954:	2000      	movs	r0, #0
 23fc956:	e7fa      	b.n	23fc94e <_ZN5spark6VectorIPNS_10LogHandlerENS_16DefaultAllocatorEE9removeOneERKS2_+0x2c>

023fc958 <_ZN5spark10LogManager13removeHandlerEPNS_10LogHandlerE>:
void spark::LogManager::removeHandler(LogHandler *handler) {
 23fc958:	b51f      	push	{r0, r1, r2, r3, r4, lr}
 23fc95a:	4604      	mov	r4, r0
    LOG_WITH_LOCK(mutex_) {
 23fc95c:	f100 0324 	add.w	r3, r0, #36	; 0x24
 23fc960:	6a40      	ldr	r0, [r0, #36]	; 0x24
void spark::LogManager::removeHandler(LogHandler *handler) {
 23fc962:	9101      	str	r1, [sp, #4]
      explicit lock_guard(mutex_type& __m) : _M_device(__m)
 23fc964:	9303      	str	r3, [sp, #12]
      { _M_device.lock(); }
 23fc966:	f7ff fc6b 	bl	23fc240 <_ZN14RecursiveMutex4lockEv.isra.0>
        if (activeHandlers_.removeOne(handler) && activeHandlers_.isEmpty()) {
 23fc96a:	4620      	mov	r0, r4
 23fc96c:	a901      	add	r1, sp, #4
 23fc96e:	f7ff ffd8 	bl	23fc922 <_ZN5spark6VectorIPNS_10LogHandlerENS_16DefaultAllocatorEE9removeOneERKS2_>
 23fc972:	b118      	cbz	r0, 23fc97c <_ZN5spark10LogManager13removeHandlerEPNS_10LogHandlerE+0x24>
 23fc974:	6863      	ldr	r3, [r4, #4]
 23fc976:	b90b      	cbnz	r3, 23fc97c <_ZN5spark10LogManager13removeHandlerEPNS_10LogHandlerE+0x24>
            resetSystemCallbacks();
 23fc978:	f7ff fddc 	bl	23fc534 <_ZN5spark10LogManager20resetSystemCallbacksEv>
    LOG_WITH_LOCK(mutex_) {
 23fc97c:	a803      	add	r0, sp, #12
 23fc97e:	f7ff feca 	bl	23fc716 <_ZNSt10lock_guardI14RecursiveMutexED1Ev>
}
 23fc982:	b004      	add	sp, #16
 23fc984:	bd10      	pop	{r4, pc}

023fc986 <_ZN5spark10LogManager22destroyFactoryHandlersEv>:
    return data_ + size_;
 23fc986:	2318      	movs	r3, #24
void spark::LogManager::destroyFactoryHandlers() {
 23fc988:	b570      	push	{r4, r5, r6, lr}
 23fc98a:	4604      	mov	r4, r0
 23fc98c:	e9d0 5604 	ldrd	r5, r6, [r0, #16]
 23fc990:	fb03 5606 	mla	r6, r3, r6, r5
    for (const FactoryHandler &h: factoryHandlers_) {
 23fc994:	42ae      	cmp	r6, r5
 23fc996:	d015      	beq.n	23fc9c4 <_ZN5spark10LogManager22destroyFactoryHandlersEv+0x3e>
        activeHandlers_.removeOne(h.handler);
 23fc998:	4620      	mov	r0, r4
 23fc99a:	f105 0110 	add.w	r1, r5, #16
 23fc99e:	f7ff ffc0 	bl	23fc922 <_ZN5spark6VectorIPNS_10LogHandlerENS_16DefaultAllocatorEE9removeOneERKS2_>
        if (activeHandlers_.isEmpty()) {
 23fc9a2:	6863      	ldr	r3, [r4, #4]
 23fc9a4:	b90b      	cbnz	r3, 23fc9aa <_ZN5spark10LogManager22destroyFactoryHandlersEv+0x24>
            resetSystemCallbacks();
 23fc9a6:	f7ff fdc5 	bl	23fc534 <_ZN5spark10LogManager20resetSystemCallbacksEv>
        handlerFactory_->destroyHandler(h.handler);
 23fc9aa:	69e0      	ldr	r0, [r4, #28]
 23fc9ac:	6929      	ldr	r1, [r5, #16]
 23fc9ae:	6803      	ldr	r3, [r0, #0]
 23fc9b0:	68db      	ldr	r3, [r3, #12]
 23fc9b2:	4798      	blx	r3
        if (h.stream) {
 23fc9b4:	6969      	ldr	r1, [r5, #20]
 23fc9b6:	b119      	cbz	r1, 23fc9c0 <_ZN5spark10LogManager22destroyFactoryHandlersEv+0x3a>
            streamFactory_->destroyStream(h.stream);
 23fc9b8:	6a20      	ldr	r0, [r4, #32]
 23fc9ba:	6803      	ldr	r3, [r0, #0]
 23fc9bc:	68db      	ldr	r3, [r3, #12]
 23fc9be:	4798      	blx	r3
    for (const FactoryHandler &h: factoryHandlers_) {
 23fc9c0:	3518      	adds	r5, #24
 23fc9c2:	e7e7      	b.n	23fc994 <_ZN5spark10LogManager22destroyFactoryHandlersEv+0xe>
    destruct(data_, data_ + size_);
 23fc9c4:	2618      	movs	r6, #24
 23fc9c6:	e9d4 5304 	ldrd	r5, r3, [r4, #16]
 23fc9ca:	fb06 5603 	mla	r6, r6, r3, r5
        for (; p != end; ++p) {
 23fc9ce:	42ae      	cmp	r6, r5
 23fc9d0:	d004      	beq.n	23fc9dc <_ZN5spark10LogManager22destroyFactoryHandlersEv+0x56>
struct spark::LogManager::FactoryHandler {
 23fc9d2:	4628      	mov	r0, r5
 23fc9d4:	f7ff f8c4 	bl	23fbb60 <_ZN6StringD1Ev>
 23fc9d8:	3518      	adds	r5, #24
 23fc9da:	e7f8      	b.n	23fc9ce <_ZN5spark10LogManager22destroyFactoryHandlersEv+0x48>
    size_ = 0;
 23fc9dc:	2300      	movs	r3, #0
 23fc9de:	6163      	str	r3, [r4, #20]
}
 23fc9e0:	bd70      	pop	{r4, r5, r6, pc}

023fc9e2 <_ZN5spark10LogManagerD1Ev>:
spark::LogManager::~LogManager() {
 23fc9e2:	b573      	push	{r0, r1, r4, r5, r6, lr}
 23fc9e4:	4604      	mov	r4, r0
    resetSystemCallbacks();
 23fc9e6:	f7ff fda5 	bl	23fc534 <_ZN5spark10LogManager20resetSystemCallbacksEv>
    LOG_WITH_LOCK(mutex_) {
 23fc9ea:	f104 0324 	add.w	r3, r4, #36	; 0x24
 23fc9ee:	6a60      	ldr	r0, [r4, #36]	; 0x24
      explicit lock_guard(mutex_type& __m) : _M_device(__m)
 23fc9f0:	9301      	str	r3, [sp, #4]
      { _M_device.lock(); }
 23fc9f2:	f7ff fc25 	bl	23fc240 <_ZN14RecursiveMutex4lockEv.isra.0>
         destroyFactoryHandlers();
 23fc9f6:	4620      	mov	r0, r4
 23fc9f8:	f7ff ffc5 	bl	23fc986 <_ZN5spark10LogManager22destroyFactoryHandlersEv>
    LOG_WITH_LOCK(mutex_) {
 23fc9fc:	a801      	add	r0, sp, #4
 23fc9fe:	f7ff fe8a 	bl	23fc716 <_ZNSt10lock_guardI14RecursiveMutexED1Ev>
        if (handle_) {
 23fca02:	6a60      	ldr	r0, [r4, #36]	; 0x24
 23fca04:	b108      	cbz	r0, 23fca0a <_ZN5spark10LogManagerD1Ev+0x28>
            os_mutex_recursive_destroy(handle_);
 23fca06:	f7fe f9ad 	bl	23fad64 <os_mutex_recursive_destroy>
    destruct(data_, data_ + size_);
 23fca0a:	e9d4 5304 	ldrd	r5, r3, [r4, #16]
 23fca0e:	2618      	movs	r6, #24
 23fca10:	fb06 5603 	mla	r6, r6, r3, r5
        for (; p != end; ++p) {
 23fca14:	42ae      	cmp	r6, r5
 23fca16:	d004      	beq.n	23fca22 <_ZN5spark10LogManagerD1Ev+0x40>
struct spark::LogManager::FactoryHandler {
 23fca18:	4628      	mov	r0, r5
 23fca1a:	f7ff f8a1 	bl	23fbb60 <_ZN6StringD1Ev>
 23fca1e:	3518      	adds	r5, #24
 23fca20:	e7f8      	b.n	23fca14 <_ZN5spark10LogManagerD1Ev+0x32>
    ::free(ptr);
 23fca22:	6920      	ldr	r0, [r4, #16]
 23fca24:	f7fe fdf0 	bl	23fb608 <free>
 23fca28:	6820      	ldr	r0, [r4, #0]
 23fca2a:	f7fe fded 	bl	23fb608 <free>
}
 23fca2e:	4620      	mov	r0, r4
 23fca30:	b002      	add	sp, #8
 23fca32:	bd70      	pop	{r4, r5, r6, pc}

023fca34 <__tcf_2>:
    static LogManager mgr;
 23fca34:	4801      	ldr	r0, [pc, #4]	; (23fca3c <__tcf_2+0x8>)
 23fca36:	f7ff bfd4 	b.w	23fc9e2 <_ZN5spark10LogManagerD1Ev>
 23fca3a:	bf00      	nop
 23fca3c:	1007ae80 	.word	0x1007ae80

023fca40 <_ZN5spark6VectorINS_6detail9LogFilter4NodeENS_16DefaultAllocatorEE4moveIS3_Li0EEEvPS3_S7_S7_>:
        if (dest > p && dest < end) {
 23fca40:	4288      	cmp	r0, r1
    static void move(T* dest, T* p, T* end) {
 23fca42:	b5f8      	push	{r3, r4, r5, r6, r7, lr}
 23fca44:	4604      	mov	r4, r0
 23fca46:	460d      	mov	r5, r1
 23fca48:	4616      	mov	r6, r2
        if (dest > p && dest < end) {
 23fca4a:	d915      	bls.n	23fca78 <_ZN5spark6VectorINS_6detail9LogFilter4NodeENS_16DefaultAllocatorEE4moveIS3_Li0EEEvPS3_S7_S7_+0x38>
 23fca4c:	4290      	cmp	r0, r2
 23fca4e:	d214      	bcs.n	23fca7a <_ZN5spark6VectorINS_6detail9LogFilter4NodeENS_16DefaultAllocatorEE4moveIS3_Li0EEEvPS3_S7_S7_+0x3a>
            --end;
 23fca50:	f1a2 0614 	sub.w	r6, r2, #20
            dest += end - p - 1;
 23fca54:	1a75      	subs	r5, r6, r1
 23fca56:	f1a1 0714 	sub.w	r7, r1, #20
 23fca5a:	442c      	add	r4, r5
            for (; end != p; --end, --dest) {
 23fca5c:	42b7      	cmp	r7, r6
 23fca5e:	d01a      	beq.n	23fca96 <_ZN5spark6VectorINS_6detail9LogFilter4NodeENS_16DefaultAllocatorEE4moveIS3_Li0EEEvPS3_S7_S7_+0x56>
                new(dest) T(std::move(*end));
 23fca60:	b11c      	cbz	r4, 23fca6a <_ZN5spark6VectorINS_6detail9LogFilter4NodeENS_16DefaultAllocatorEE4moveIS3_Li0EEEvPS3_S7_S7_+0x2a>
 23fca62:	4631      	mov	r1, r6
 23fca64:	4620      	mov	r0, r4
 23fca66:	f7ff fc45 	bl	23fc2f4 <_ZN5spark6detail9LogFilter4NodeC1EOS2_>
struct spark::detail::LogFilter::Node {
 23fca6a:	f106 0008 	add.w	r0, r6, #8
 23fca6e:	f7ff fdfb 	bl	23fc668 <_ZN5spark6VectorINS_6detail9LogFilter4NodeENS_16DefaultAllocatorEED1Ev>
            for (; end != p; --end, --dest) {
 23fca72:	3e14      	subs	r6, #20
 23fca74:	3c14      	subs	r4, #20
 23fca76:	e7f1      	b.n	23fca5c <_ZN5spark6VectorINS_6detail9LogFilter4NodeENS_16DefaultAllocatorEE4moveIS3_Li0EEEvPS3_S7_S7_+0x1c>
        } else if (dest != p) {
 23fca78:	d00d      	beq.n	23fca96 <_ZN5spark6VectorINS_6detail9LogFilter4NodeENS_16DefaultAllocatorEE4moveIS3_Li0EEEvPS3_S7_S7_+0x56>
            for (; p != end; ++p, ++dest) {
 23fca7a:	42b5      	cmp	r5, r6
 23fca7c:	d00b      	beq.n	23fca96 <_ZN5spark6VectorINS_6detail9LogFilter4NodeENS_16DefaultAllocatorEE4moveIS3_Li0EEEvPS3_S7_S7_+0x56>
                new(dest) T(std::move(*p));
 23fca7e:	b11c      	cbz	r4, 23fca88 <_ZN5spark6VectorINS_6detail9LogFilter4NodeENS_16DefaultAllocatorEE4moveIS3_Li0EEEvPS3_S7_S7_+0x48>
 23fca80:	4629      	mov	r1, r5
 23fca82:	4620      	mov	r0, r4
 23fca84:	f7ff fc36 	bl	23fc2f4 <_ZN5spark6detail9LogFilter4NodeC1EOS2_>
 23fca88:	f105 0008 	add.w	r0, r5, #8
 23fca8c:	f7ff fdec 	bl	23fc668 <_ZN5spark6VectorINS_6detail9LogFilter4NodeENS_16DefaultAllocatorEED1Ev>
            for (; p != end; ++p, ++dest) {
 23fca90:	3514      	adds	r5, #20
 23fca92:	3414      	adds	r4, #20
 23fca94:	e7f1      	b.n	23fca7a <_ZN5spark6VectorINS_6detail9LogFilter4NodeENS_16DefaultAllocatorEE4moveIS3_Li0EEEvPS3_S7_S7_+0x3a>
    }
 23fca96:	bdf8      	pop	{r3, r4, r5, r6, r7, pc}

023fca98 <_ZN5spark6VectorI6StringNS_16DefaultAllocatorEE4moveIS1_Li0EEEvPS1_S5_S5_>:
        if (dest > p && dest < end) {
 23fca98:	4288      	cmp	r0, r1
    static void move(T* dest, T* p, T* end) {
 23fca9a:	b5f8      	push	{r3, r4, r5, r6, r7, lr}
 23fca9c:	4604      	mov	r4, r0
 23fca9e:	460d      	mov	r5, r1
 23fcaa0:	4616      	mov	r6, r2
        if (dest > p && dest < end) {
 23fcaa2:	d914      	bls.n	23fcace <_ZN5spark6VectorI6StringNS_16DefaultAllocatorEE4moveIS1_Li0EEEvPS1_S5_S5_+0x36>
 23fcaa4:	4290      	cmp	r0, r2
 23fcaa6:	d213      	bcs.n	23fcad0 <_ZN5spark6VectorI6StringNS_16DefaultAllocatorEE4moveIS1_Li0EEEvPS1_S5_S5_+0x38>
            --end;
 23fcaa8:	f1a2 0610 	sub.w	r6, r2, #16
            dest += end - p - 1;
 23fcaac:	1a75      	subs	r5, r6, r1
 23fcaae:	f1a1 0710 	sub.w	r7, r1, #16
 23fcab2:	442c      	add	r4, r5
            for (; end != p; --end, --dest) {
 23fcab4:	42b7      	cmp	r7, r6
 23fcab6:	d018      	beq.n	23fcaea <_ZN5spark6VectorI6StringNS_16DefaultAllocatorEE4moveIS1_Li0EEEvPS1_S5_S5_+0x52>
                new(dest) T(std::move(*end));
 23fcab8:	b11c      	cbz	r4, 23fcac2 <_ZN5spark6VectorI6StringNS_16DefaultAllocatorEE4moveIS1_Li0EEEvPS1_S5_S5_+0x2a>
 23fcaba:	4631      	mov	r1, r6
 23fcabc:	4620      	mov	r0, r4
 23fcabe:	f7ff f8cc 	bl	23fbc5a <_ZN6StringC1EOS_>
                end->~T();
 23fcac2:	4630      	mov	r0, r6
 23fcac4:	f7ff f84c 	bl	23fbb60 <_ZN6StringD1Ev>
            for (; end != p; --end, --dest) {
 23fcac8:	3e10      	subs	r6, #16
 23fcaca:	3c10      	subs	r4, #16
 23fcacc:	e7f2      	b.n	23fcab4 <_ZN5spark6VectorI6StringNS_16DefaultAllocatorEE4moveIS1_Li0EEEvPS1_S5_S5_+0x1c>
        } else if (dest != p) {
 23fcace:	d00c      	beq.n	23fcaea <_ZN5spark6VectorI6StringNS_16DefaultAllocatorEE4moveIS1_Li0EEEvPS1_S5_S5_+0x52>
            for (; p != end; ++p, ++dest) {
 23fcad0:	42b5      	cmp	r5, r6
 23fcad2:	d00a      	beq.n	23fcaea <_ZN5spark6VectorI6StringNS_16DefaultAllocatorEE4moveIS1_Li0EEEvPS1_S5_S5_+0x52>
                new(dest) T(std::move(*p));
 23fcad4:	b11c      	cbz	r4, 23fcade <_ZN5spark6VectorI6StringNS_16DefaultAllocatorEE4moveIS1_Li0EEEvPS1_S5_S5_+0x46>
 23fcad6:	4629      	mov	r1, r5
 23fcad8:	4620      	mov	r0, r4
 23fcada:	f7ff f8be 	bl	23fbc5a <_ZN6StringC1EOS_>
                p->~T();
 23fcade:	4628      	mov	r0, r5
 23fcae0:	f7ff f83e 	bl	23fbb60 <_ZN6StringD1Ev>
            for (; p != end; ++p, ++dest) {
 23fcae4:	3510      	adds	r5, #16
 23fcae6:	3410      	adds	r4, #16
 23fcae8:	e7f2      	b.n	23fcad0 <_ZN5spark6VectorI6StringNS_16DefaultAllocatorEE4moveIS1_Li0EEEvPS1_S5_S5_+0x38>
    }
 23fcaea:	bdf8      	pop	{r3, r4, r5, r6, r7, pc}

023fcaec <_ZN5spark6VectorI6StringNS_16DefaultAllocatorEE7reallocIS1_Li0EEEbi>:
    bool realloc(int n) {
 23fcaec:	b570      	push	{r4, r5, r6, lr}
        if (n > 0) {
 23fcaee:	1e0e      	subs	r6, r1, #0
    bool realloc(int n) {
 23fcaf0:	4605      	mov	r5, r0
        if (n > 0) {
 23fcaf2:	dd11      	ble.n	23fcb18 <_ZN5spark6VectorI6StringNS_16DefaultAllocatorEE7reallocIS1_Li0EEEbi+0x2c>
    return ::malloc(size);
 23fcaf4:	0130      	lsls	r0, r6, #4
 23fcaf6:	f7fe fd79 	bl	23fb5ec <malloc>
            if (!d) {
 23fcafa:	4604      	mov	r4, r0
 23fcafc:	b158      	cbz	r0, 23fcb16 <_ZN5spark6VectorI6StringNS_16DefaultAllocatorEE7reallocIS1_Li0EEEbi+0x2a>
            move(d, data_, data_ + size_);
 23fcafe:	e9d5 1200 	ldrd	r1, r2, [r5]
 23fcb02:	eb01 1202 	add.w	r2, r1, r2, lsl #4
 23fcb06:	f7ff ffc7 	bl	23fca98 <_ZN5spark6VectorI6StringNS_16DefaultAllocatorEE4moveIS1_Li0EEEvPS1_S5_S5_>
    ::free(ptr);
 23fcb0a:	6828      	ldr	r0, [r5, #0]
 23fcb0c:	f7fe fd7c 	bl	23fb608 <free>
        return true;
 23fcb10:	2001      	movs	r0, #1
        data_ = d;
 23fcb12:	602c      	str	r4, [r5, #0]
        capacity_ = n;
 23fcb14:	60ae      	str	r6, [r5, #8]
    }
 23fcb16:	bd70      	pop	{r4, r5, r6, pc}
        T* d = nullptr;
 23fcb18:	2400      	movs	r4, #0
 23fcb1a:	e7f6      	b.n	23fcb0a <_ZN5spark6VectorI6StringNS_16DefaultAllocatorEE7reallocIS1_Li0EEEbi+0x1e>

023fcb1c <_ZN5spark6detail9LogFilterC1E8LogLevelNS_6VectorINS_17LogCategoryFilterENS_16DefaultAllocatorEEE>:
spark::detail::LogFilter::LogFilter(LogLevel level, LogCategoryFilters filters) :
 23fcb1c:	e92d 4ff0 	stmdb	sp!, {r4, r5, r6, r7, r8, r9, sl, fp, lr}
 23fcb20:	4690      	mov	r8, r2
        capacity_(0) {
 23fcb22:	2300      	movs	r3, #0
        level_(LOG_LEVEL_NONE) { // Fallback level that will be used in case of construction errors
 23fcb24:	2246      	movs	r2, #70	; 0x46
spark::detail::LogFilter::LogFilter(LogLevel level, LogCategoryFilters filters) :
 23fcb26:	b095      	sub	sp, #84	; 0x54
 23fcb28:	9103      	str	r1, [sp, #12]
    return size_;
 23fcb2a:	f8d8 1004 	ldr.w	r1, [r8, #4]
 23fcb2e:	4604      	mov	r4, r0
    if (n > capacity_ && !realloc(n)) {
 23fcb30:	4299      	cmp	r1, r3
        capacity_(0) {
 23fcb32:	e9c0 3300 	strd	r3, r3, [r0]
 23fcb36:	e9c0 3302 	strd	r3, r3, [r0, #8]
 23fcb3a:	e9c0 3304 	strd	r3, r3, [r0, #16]
 23fcb3e:	e9cd 3308 	strd	r3, r3, [sp, #32]
        level_(LOG_LEVEL_NONE) { // Fallback level that will be used in case of construction errors
 23fcb42:	7602      	strb	r2, [r0, #24]
 23fcb44:	930a      	str	r3, [sp, #40]	; 0x28
    if (n > capacity_ && !realloc(n)) {
 23fcb46:	dc23      	bgt.n	23fcb90 <_ZN5spark6detail9LogFilterC1E8LogLevelNS_6VectorINS_17LogCategoryFilterENS_16DefaultAllocatorEEE+0x74>
    return data_ + size_;
 23fcb48:	e9d8 5700 	ldrd	r5, r7, [r8]
 23fcb4c:	2314      	movs	r3, #20
 23fcb4e:	fb03 5707 	mla	r7, r3, r7, r5
    for (LogCategoryFilter &filter: filters) {
 23fcb52:	42af      	cmp	r7, r5
 23fcb54:	d03b      	beq.n	23fcbce <_ZN5spark6detail9LogFilterC1E8LogLevelNS_6VectorINS_17LogCategoryFilterENS_16DefaultAllocatorEEE+0xb2>
        cats.append(std::move(filter.cat_));
 23fcb56:	4629      	mov	r1, r5
 23fcb58:	a80b      	add	r0, sp, #44	; 0x2c
 23fcb5a:	f7ff f87e 	bl	23fbc5a <_ZN6StringC1EOS_>
    return insert(size_, std::move(value));
 23fcb5e:	a90b      	add	r1, sp, #44	; 0x2c
 23fcb60:	a80f      	add	r0, sp, #60	; 0x3c
 23fcb62:	9e09      	ldr	r6, [sp, #36]	; 0x24
 23fcb64:	f7ff f879 	bl	23fbc5a <_ZN6StringC1EOS_>
    if (size_ + 1 > capacity_ && !realloc(size_ + 1)) {
 23fcb68:	e9dd 1309 	ldrd	r1, r3, [sp, #36]	; 0x24
 23fcb6c:	4299      	cmp	r1, r3
 23fcb6e:	da1b      	bge.n	23fcba8 <_ZN5spark6detail9LogFilterC1E8LogLevelNS_6VectorINS_17LogCategoryFilterENS_16DefaultAllocatorEEE+0x8c>
    T* const p = data_ + i;
 23fcb70:	9b08      	ldr	r3, [sp, #32]
    move(p + 1, p, data_ + size_);
 23fcb72:	9a09      	ldr	r2, [sp, #36]	; 0x24
    T* const p = data_ + i;
 23fcb74:	eb03 1606 	add.w	r6, r3, r6, lsl #4
    move(p + 1, p, data_ + size_);
 23fcb78:	4631      	mov	r1, r6
 23fcb7a:	eb03 1202 	add.w	r2, r3, r2, lsl #4
 23fcb7e:	f106 0010 	add.w	r0, r6, #16
 23fcb82:	f7ff ff89 	bl	23fca98 <_ZN5spark6VectorI6StringNS_16DefaultAllocatorEE4moveIS1_Li0EEEvPS1_S5_S5_>
    new(p) T(std::move(value));
 23fcb86:	b9ee      	cbnz	r6, 23fcbc4 <_ZN5spark6detail9LogFilterC1E8LogLevelNS_6VectorINS_17LogCategoryFilterENS_16DefaultAllocatorEEE+0xa8>
    ++size_;
 23fcb88:	9b09      	ldr	r3, [sp, #36]	; 0x24
 23fcb8a:	3301      	adds	r3, #1
 23fcb8c:	9309      	str	r3, [sp, #36]	; 0x24
    return true;
 23fcb8e:	e011      	b.n	23fcbb4 <_ZN5spark6detail9LogFilterC1E8LogLevelNS_6VectorINS_17LogCategoryFilterENS_16DefaultAllocatorEEE+0x98>
    if (n > capacity_ && !realloc(n)) {
 23fcb90:	a808      	add	r0, sp, #32
 23fcb92:	f7ff ffab 	bl	23fcaec <_ZN5spark6VectorI6StringNS_16DefaultAllocatorEE7reallocIS1_Li0EEEbi>
 23fcb96:	2800      	cmp	r0, #0
 23fcb98:	d1d6      	bne.n	23fcb48 <_ZN5spark6detail9LogFilterC1E8LogLevelNS_6VectorINS_17LogCategoryFilterENS_16DefaultAllocatorEEE+0x2c>
        return;
 23fcb9a:	a808      	add	r0, sp, #32
 23fcb9c:	f7ff f8cf 	bl	23fbd3e <_ZN5spark6VectorI6StringNS_16DefaultAllocatorEED1Ev>
}
 23fcba0:	4620      	mov	r0, r4
 23fcba2:	b015      	add	sp, #84	; 0x54
 23fcba4:	e8bd 8ff0 	ldmia.w	sp!, {r4, r5, r6, r7, r8, r9, sl, fp, pc}
    if (size_ + 1 > capacity_ && !realloc(size_ + 1)) {
 23fcba8:	3101      	adds	r1, #1
 23fcbaa:	a808      	add	r0, sp, #32
 23fcbac:	f7ff ff9e 	bl	23fcaec <_ZN5spark6VectorI6StringNS_16DefaultAllocatorEE7reallocIS1_Li0EEEbi>
 23fcbb0:	2800      	cmp	r0, #0
 23fcbb2:	d1dd      	bne.n	23fcb70 <_ZN5spark6detail9LogFilterC1E8LogLevelNS_6VectorINS_17LogCategoryFilterENS_16DefaultAllocatorEEE+0x54>
    return insert(size_, std::move(value));
 23fcbb4:	a80f      	add	r0, sp, #60	; 0x3c
 23fcbb6:	f7fe ffd3 	bl	23fbb60 <_ZN6StringD1Ev>
        cats.append(std::move(filter.cat_));
 23fcbba:	a80b      	add	r0, sp, #44	; 0x2c
 23fcbbc:	f7fe ffd0 	bl	23fbb60 <_ZN6StringD1Ev>
    for (LogCategoryFilter &filter: filters) {
 23fcbc0:	3514      	adds	r5, #20
 23fcbc2:	e7c6      	b.n	23fcb52 <_ZN5spark6detail9LogFilterC1E8LogLevelNS_6VectorINS_17LogCategoryFilterENS_16DefaultAllocatorEEE+0x36>
    new(p) T(std::move(value));
 23fcbc4:	4630      	mov	r0, r6
 23fcbc6:	a90f      	add	r1, sp, #60	; 0x3c
 23fcbc8:	f7ff f847 	bl	23fbc5a <_ZN6StringC1EOS_>
 23fcbcc:	e7dc      	b.n	23fcb88 <_ZN5spark6detail9LogFilterC1E8LogLevelNS_6VectorINS_17LogCategoryFilterENS_16DefaultAllocatorEEE+0x6c>
        capacity_(0) {
 23fcbce:	2600      	movs	r6, #0
 23fcbd0:	f04f 0914 	mov.w	r9, #20
 23fcbd4:	e9cd 660b 	strd	r6, r6, [sp, #44]	; 0x2c
 23fcbd8:	960d      	str	r6, [sp, #52]	; 0x34
    return data_[i];
 23fcbda:	e9dd 2308 	ldrd	r2, r3, [sp, #32]
    for (int i = 0; i < cats.size(); ++i) {
 23fcbde:	429e      	cmp	r6, r3
 23fcbe0:	da7c      	bge.n	23fccdc <_ZN5spark6detail9LogFilterC1E8LogLevelNS_6VectorINS_17LogCategoryFilterENS_16DefaultAllocatorEEE+0x1c0>
	char operator [] (unsigned int index) const;
	char& operator [] (unsigned int index);
	void getBytes(unsigned char *buf, unsigned int bufsize, unsigned int index=0) const;
	void toCharArray(char *buf, unsigned int bufsize, unsigned int index=0) const
		{getBytes((unsigned char *)buf, bufsize, index);}
	const char * c_str() const { return buffer; }
 23fcbe2:	0133      	lsls	r3, r6, #4
 23fcbe4:	58d3      	ldr	r3, [r2, r3]
        const char *category = cats.at(i).c_str();
 23fcbe6:	9306      	str	r3, [sp, #24]
        if (!category) {
 23fcbe8:	b90b      	cbnz	r3, 23fcbee <_ZN5spark6detail9LogFilterC1E8LogLevelNS_6VectorINS_17LogCategoryFilterENS_16DefaultAllocatorEEE+0xd2>
    for (int i = 0; i < cats.size(); ++i) {
 23fcbea:	3601      	adds	r6, #1
 23fcbec:	e7f5      	b.n	23fcbda <_ZN5spark6detail9LogFilterC1E8LogLevelNS_6VectorINS_17LogCategoryFilterENS_16DefaultAllocatorEEE+0xbe>
        size_t size = 0; // Name length
 23fcbee:	2300      	movs	r3, #0
 23fcbf0:	9307      	str	r3, [sp, #28]
 23fcbf2:	fb09 f306 	mul.w	r3, r9, r6
        Vector<Node> *pNodes = &nodes; // Root nodes
 23fcbf6:	ad0b      	add	r5, sp, #44	; 0x2c
 23fcbf8:	9302      	str	r3, [sp, #8]
        while ((name = nextSubcategoryName(category, size))) {
 23fcbfa:	a907      	add	r1, sp, #28
 23fcbfc:	a806      	add	r0, sp, #24
 23fcbfe:	f7ff faf8 	bl	23fc1f2 <_ZN12_GLOBAL__N_119nextSubcategoryNameERPKcRj>
 23fcc02:	4682      	mov	sl, r0
 23fcc04:	2800      	cmp	r0, #0
 23fcc06:	d0f0      	beq.n	23fcbea <_ZN5spark6detail9LogFilterC1E8LogLevelNS_6VectorINS_17LogCategoryFilterENS_16DefaultAllocatorEEE+0xce>
            bool found = false;
 23fcc08:	f04f 0300 	mov.w	r3, #0
            const int index = nodeIndex(*pNodes, name, size, found);
 23fcc0c:	4601      	mov	r1, r0
            bool found = false;
 23fcc0e:	f88d 3017 	strb.w	r3, [sp, #23]
            const int index = nodeIndex(*pNodes, name, size, found);
 23fcc12:	4628      	mov	r0, r5
 23fcc14:	9a07      	ldr	r2, [sp, #28]
 23fcc16:	f10d 0317 	add.w	r3, sp, #23
 23fcc1a:	f7ff fb7f 	bl	23fc31c <_ZN5spark6detail9LogFilter9nodeIndexERKNS_6VectorINS1_4NodeENS_16DefaultAllocatorEEEPKcjRb>
            if (!found && !pNodes->insert(index, Node(name, size))) { // Add node
 23fcc1e:	f89d 7017 	ldrb.w	r7, [sp, #23]
            const int index = nodeIndex(*pNodes, name, size, found);
 23fcc22:	9001      	str	r0, [sp, #4]
            if (!found && !pNodes->insert(index, Node(name, size))) { // Add node
 23fcc24:	2f00      	cmp	r7, #0
 23fcc26:	d14a      	bne.n	23fccbe <_ZN5spark6detail9LogFilterC1E8LogLevelNS_6VectorINS_17LogCategoryFilterENS_16DefaultAllocatorEEE+0x1a2>
 23fcc28:	f8bd 301c 	ldrh.w	r3, [sp, #28]
        capacity_(0) {
 23fcc2c:	e9cd 7711 	strd	r7, r7, [sp, #68]	; 0x44
            level(-1) {
 23fcc30:	f8ad 3040 	strh.w	r3, [sp, #64]	; 0x40
 23fcc34:	f64f 73ff 	movw	r3, #65535	; 0xffff
 23fcc38:	f8cd a03c 	str.w	sl, [sp, #60]	; 0x3c
 23fcc3c:	f8ad 3042 	strh.w	r3, [sp, #66]	; 0x42
 23fcc40:	9713      	str	r7, [sp, #76]	; 0x4c
    if (size_ + 1 > capacity_ && !realloc(size_ + 1)) {
 23fcc42:	e9d5 3201 	ldrd	r3, r2, [r5, #4]
 23fcc46:	4293      	cmp	r3, r2
 23fcc48:	db17      	blt.n	23fcc7a <_ZN5spark6detail9LogFilterC1E8LogLevelNS_6VectorINS_17LogCategoryFilterENS_16DefaultAllocatorEEE+0x15e>
 23fcc4a:	f103 0a01 	add.w	sl, r3, #1
        if (n > 0) {
 23fcc4e:	f1ba 0f00 	cmp.w	sl, #0
 23fcc52:	dd30      	ble.n	23fccb6 <_ZN5spark6detail9LogFilterC1E8LogLevelNS_6VectorINS_17LogCategoryFilterENS_16DefaultAllocatorEEE+0x19a>
    return ::malloc(size);
 23fcc54:	fb09 f00a 	mul.w	r0, r9, sl
 23fcc58:	f7fe fcc8 	bl	23fb5ec <malloc>
            if (!d) {
 23fcc5c:	4683      	mov	fp, r0
 23fcc5e:	b360      	cbz	r0, 23fccba <_ZN5spark6detail9LogFilterC1E8LogLevelNS_6VectorINS_17LogCategoryFilterENS_16DefaultAllocatorEEE+0x19e>
            move(d, data_, data_ + size_);
 23fcc60:	e9d5 1200 	ldrd	r1, r2, [r5]
 23fcc64:	fb09 1202 	mla	r2, r9, r2, r1
 23fcc68:	f7ff feea 	bl	23fca40 <_ZN5spark6VectorINS_6detail9LogFilter4NodeENS_16DefaultAllocatorEE4moveIS3_Li0EEEvPS3_S7_S7_>
    ::free(ptr);
 23fcc6c:	6828      	ldr	r0, [r5, #0]
 23fcc6e:	f7fe fccb 	bl	23fb608 <free>
        data_ = d;
 23fcc72:	f8c5 b000 	str.w	fp, [r5]
        capacity_ = n;
 23fcc76:	f8c5 a008 	str.w	sl, [r5, #8]
    T* const p = data_ + i;
 23fcc7a:	682b      	ldr	r3, [r5, #0]
 23fcc7c:	9a01      	ldr	r2, [sp, #4]
 23fcc7e:	fb09 3a02 	mla	sl, r9, r2, r3
    move(p + 1, p, data_ + size_);
 23fcc82:	686a      	ldr	r2, [r5, #4]
 23fcc84:	4651      	mov	r1, sl
 23fcc86:	fb09 3202 	mla	r2, r9, r2, r3
 23fcc8a:	f10a 0014 	add.w	r0, sl, #20
 23fcc8e:	f7ff fed7 	bl	23fca40 <_ZN5spark6VectorINS_6detail9LogFilter4NodeENS_16DefaultAllocatorEE4moveIS3_Li0EEEvPS3_S7_S7_>
    new(p) T(std::move(value));
 23fcc92:	f1ba 0f00 	cmp.w	sl, #0
 23fcc96:	d003      	beq.n	23fcca0 <_ZN5spark6detail9LogFilterC1E8LogLevelNS_6VectorINS_17LogCategoryFilterENS_16DefaultAllocatorEEE+0x184>
 23fcc98:	4650      	mov	r0, sl
 23fcc9a:	a90f      	add	r1, sp, #60	; 0x3c
 23fcc9c:	f7ff fb2a 	bl	23fc2f4 <_ZN5spark6detail9LogFilter4NodeC1EOS2_>
    ++size_;
 23fcca0:	686b      	ldr	r3, [r5, #4]
 23fcca2:	3301      	adds	r3, #1
 23fcca4:	606b      	str	r3, [r5, #4]
struct spark::detail::LogFilter::Node {
 23fcca6:	a811      	add	r0, sp, #68	; 0x44
 23fcca8:	f7ff fcde 	bl	23fc668 <_ZN5spark6VectorINS_6detail9LogFilter4NodeENS_16DefaultAllocatorEED1Ev>
            if (!found && !pNodes->insert(index, Node(name, size))) { // Add node
 23fccac:	b13f      	cbz	r7, 23fccbe <_ZN5spark6detail9LogFilterC1E8LogLevelNS_6VectorINS_17LogCategoryFilterENS_16DefaultAllocatorEEE+0x1a2>
    Vector<Node> nodes;
 23fccae:	a80b      	add	r0, sp, #44	; 0x2c
 23fccb0:	f7ff fcda 	bl	23fc668 <_ZN5spark6VectorINS_6detail9LogFilter4NodeENS_16DefaultAllocatorEED1Ev>
 23fccb4:	e771      	b.n	23fcb9a <_ZN5spark6detail9LogFilterC1E8LogLevelNS_6VectorINS_17LogCategoryFilterENS_16DefaultAllocatorEEE+0x7e>
        T* d = nullptr;
 23fccb6:	46bb      	mov	fp, r7
 23fccb8:	e7d8      	b.n	23fcc6c <_ZN5spark6detail9LogFilterC1E8LogLevelNS_6VectorINS_17LogCategoryFilterENS_16DefaultAllocatorEEE+0x150>
            if (!found && !pNodes->insert(index, Node(name, size))) { // Add node
 23fccba:	2701      	movs	r7, #1
 23fccbc:	e7f3      	b.n	23fcca6 <_ZN5spark6detail9LogFilterC1E8LogLevelNS_6VectorINS_17LogCategoryFilterENS_16DefaultAllocatorEEE+0x18a>
    return data_[i];
 23fccbe:	9b01      	ldr	r3, [sp, #4]
 23fccc0:	682d      	ldr	r5, [r5, #0]
 23fccc2:	fb09 5503 	mla	r5, r9, r3, r5
            if (!*category) { // Check if it's last subcategory
 23fccc6:	9b06      	ldr	r3, [sp, #24]
 23fccc8:	781b      	ldrb	r3, [r3, #0]
 23fccca:	b92b      	cbnz	r3, 23fccd8 <_ZN5spark6detail9LogFilterC1E8LogLevelNS_6VectorINS_17LogCategoryFilterENS_16DefaultAllocatorEEE+0x1bc>
                node.level = filters.at(i).level_;
 23fcccc:	f8d8 3000 	ldr.w	r3, [r8]
 23fccd0:	9a02      	ldr	r2, [sp, #8]
 23fccd2:	4413      	add	r3, r2
 23fccd4:	7c1b      	ldrb	r3, [r3, #16]
 23fccd6:	80eb      	strh	r3, [r5, #6]
            pNodes = &node.nodes;
 23fccd8:	3508      	adds	r5, #8
        while ((name = nextSubcategoryName(category, size))) {
 23fccda:	e78e      	b.n	23fcbfa <_ZN5spark6detail9LogFilterC1E8LogLevelNS_6VectorINS_17LogCategoryFilterENS_16DefaultAllocatorEEE+0xde>
      _Tp __tmp = _GLIBCXX_MOVE(__a);
 23fccdc:	6821      	ldr	r1, [r4, #0]
      __a = _GLIBCXX_MOVE(__b);
 23fccde:	6022      	str	r2, [r4, #0]
      _Tp __tmp = _GLIBCXX_MOVE(__a);
 23fcce0:	6862      	ldr	r2, [r4, #4]
      __a = _GLIBCXX_MOVE(__b);
 23fcce2:	6063      	str	r3, [r4, #4]
      _Tp __tmp = _GLIBCXX_MOVE(__a);
 23fcce4:	68a3      	ldr	r3, [r4, #8]
      __b = _GLIBCXX_MOVE(__tmp);
 23fcce6:	9209      	str	r2, [sp, #36]	; 0x24
      __a = _GLIBCXX_MOVE(__b);
 23fcce8:	9a0a      	ldr	r2, [sp, #40]	; 0x28
      __b = _GLIBCXX_MOVE(__tmp);
 23fccea:	930a      	str	r3, [sp, #40]	; 0x28
      _Tp __tmp = _GLIBCXX_MOVE(__a);
 23fccec:	68e3      	ldr	r3, [r4, #12]
      __a = _GLIBCXX_MOVE(__b);
 23fccee:	60a2      	str	r2, [r4, #8]
 23fccf0:	9a0b      	ldr	r2, [sp, #44]	; 0x2c
      __b = _GLIBCXX_MOVE(__tmp);
 23fccf2:	930b      	str	r3, [sp, #44]	; 0x2c
      _Tp __tmp = _GLIBCXX_MOVE(__a);
 23fccf4:	6923      	ldr	r3, [r4, #16]
      __a = _GLIBCXX_MOVE(__b);
 23fccf6:	60e2      	str	r2, [r4, #12]
 23fccf8:	9a0c      	ldr	r2, [sp, #48]	; 0x30
      __b = _GLIBCXX_MOVE(__tmp);
 23fccfa:	930c      	str	r3, [sp, #48]	; 0x30
      _Tp __tmp = _GLIBCXX_MOVE(__a);
 23fccfc:	6963      	ldr	r3, [r4, #20]
      __a = _GLIBCXX_MOVE(__b);
 23fccfe:	6122      	str	r2, [r4, #16]
 23fcd00:	9a0d      	ldr	r2, [sp, #52]	; 0x34
      __b = _GLIBCXX_MOVE(__tmp);
 23fcd02:	930d      	str	r3, [sp, #52]	; 0x34
    level_ = level;
 23fcd04:	9b03      	ldr	r3, [sp, #12]
 23fcd06:	9108      	str	r1, [sp, #32]
      __a = _GLIBCXX_MOVE(__b);
 23fcd08:	6162      	str	r2, [r4, #20]
 23fcd0a:	7623      	strb	r3, [r4, #24]
 23fcd0c:	e7cf      	b.n	23fccae <_ZN5spark6detail9LogFilterC1E8LogLevelNS_6VectorINS_17LogCategoryFilterENS_16DefaultAllocatorEEE+0x192>
	...

023fcd10 <_ZN5spark16StreamLogHandlerC1ER5Print8LogLevelNS_6VectorINS_17LogCategoryFilterENS_16DefaultAllocatorEEE>:
inline spark::StreamLogHandler::StreamLogHandler(Print &stream, LogLevel level, LogCategoryFilters filters) :
 23fcd10:	b5f0      	push	{r4, r5, r6, r7, lr}
 23fcd12:	4604      	mov	r4, r0
        filter_(level, filters) {
 23fcd14:	4626      	mov	r6, r4
inline spark::StreamLogHandler::StreamLogHandler(Print &stream, LogLevel level, LogCategoryFilters filters) :
 23fcd16:	4617      	mov	r7, r2
 23fcd18:	b087      	sub	sp, #28
 23fcd1a:	460d      	mov	r5, r1
        stream_(&stream) {
 23fcd1c:	4668      	mov	r0, sp
 23fcd1e:	4619      	mov	r1, r3
 23fcd20:	f7fc f842 	bl	23f8da8 <_ZN5spark6VectorINS_17LogCategoryFilterENS_16DefaultAllocatorEEC1ERKS3_>
        filter_(level, filters) {
 23fcd24:	4b0b      	ldr	r3, [pc, #44]	; (23fcd54 <_ZN5spark16StreamLogHandlerC1ER5Print8LogLevelNS_6VectorINS_17LogCategoryFilterENS_16DefaultAllocatorEEE+0x44>)
 23fcd26:	4669      	mov	r1, sp
 23fcd28:	f846 3b04 	str.w	r3, [r6], #4
 23fcd2c:	a803      	add	r0, sp, #12
 23fcd2e:	f7fc f83b 	bl	23f8da8 <_ZN5spark6VectorINS_17LogCategoryFilterENS_16DefaultAllocatorEEC1ERKS3_>
 23fcd32:	4639      	mov	r1, r7
 23fcd34:	aa03      	add	r2, sp, #12
 23fcd36:	4630      	mov	r0, r6
 23fcd38:	f7ff fef0 	bl	23fcb1c <_ZN5spark6detail9LogFilterC1E8LogLevelNS_6VectorINS_17LogCategoryFilterENS_16DefaultAllocatorEEE>
 23fcd3c:	a803      	add	r0, sp, #12
 23fcd3e:	f7fb ffdf 	bl	23f8d00 <_ZN5spark6VectorINS_17LogCategoryFilterENS_16DefaultAllocatorEED1Ev>
        stream_(&stream) {
 23fcd42:	4668      	mov	r0, sp
 23fcd44:	f7fb ffdc 	bl	23f8d00 <_ZN5spark6VectorINS_17LogCategoryFilterENS_16DefaultAllocatorEED1Ev>
}
 23fcd48:	4620      	mov	r0, r4
        stream_(&stream) {
 23fcd4a:	4b03      	ldr	r3, [pc, #12]	; (23fcd58 <_ZN5spark16StreamLogHandlerC1ER5Print8LogLevelNS_6VectorINS_17LogCategoryFilterENS_16DefaultAllocatorEEE+0x48>)
 23fcd4c:	6225      	str	r5, [r4, #32]
 23fcd4e:	6023      	str	r3, [r4, #0]
}
 23fcd50:	b007      	add	sp, #28
 23fcd52:	bdf0      	pop	{r4, r5, r6, r7, pc}
 23fcd54:	023fecd4 	.word	0x023fecd4
 23fcd58:	023ffb98 	.word	0x023ffb98

023fcd5c <_ZN5spark24DefaultLogHandlerFactory13createHandlerEPKc8LogLevelNS_6VectorINS_17LogCategoryFilterENS_16DefaultAllocatorEEEP5PrintRKNS_9JSONValueE>:
            Print *stream, const JSONValue &params) {
 23fcd5c:	b5f0      	push	{r4, r5, r6, r7, lr}
 23fcd5e:	460f      	mov	r7, r1
 23fcd60:	b085      	sub	sp, #20
    if (strcmp(type, "JSONStreamLogHandler") == 0) {
 23fcd62:	4638      	mov	r0, r7
 23fcd64:	491c      	ldr	r1, [pc, #112]	; (23fcdd8 <_ZN5spark24DefaultLogHandlerFactory13createHandlerEPKc8LogLevelNS_6VectorINS_17LogCategoryFilterENS_16DefaultAllocatorEEEP5PrintRKNS_9JSONValueE+0x7c>)
            Print *stream, const JSONValue &params) {
 23fcd66:	4616      	mov	r6, r2
 23fcd68:	461d      	mov	r5, r3
 23fcd6a:	9c0a      	ldr	r4, [sp, #40]	; 0x28
    if (strcmp(type, "JSONStreamLogHandler") == 0) {
 23fcd6c:	f7fb fe70 	bl	23f8a50 <strcmp>
 23fcd70:	b9c0      	cbnz	r0, 23fcda4 <_ZN5spark24DefaultLogHandlerFactory13createHandlerEPKc8LogLevelNS_6VectorINS_17LogCategoryFilterENS_16DefaultAllocatorEEEP5PrintRKNS_9JSONValueE+0x48>
        if (!stream) {
 23fcd72:	b1a4      	cbz	r4, 23fcd9e <_ZN5spark24DefaultLogHandlerFactory13createHandlerEPKc8LogLevelNS_6VectorINS_17LogCategoryFilterENS_16DefaultAllocatorEEEP5PrintRKNS_9JSONValueE+0x42>
        return new(std::nothrow) JSONStreamLogHandler(*stream, level, std::move(filters));
 23fcd74:	4629      	mov	r1, r5
 23fcd76:	a801      	add	r0, sp, #4
 23fcd78:	f7ff fcbe 	bl	23fc6f8 <_ZN5spark6VectorINS_17LogCategoryFilterENS_16DefaultAllocatorEEC1EOS3_>
 23fcd7c:	2024      	movs	r0, #36	; 0x24
 23fcd7e:	4917      	ldr	r1, [pc, #92]	; (23fcddc <_ZN5spark24DefaultLogHandlerFactory13createHandlerEPKc8LogLevelNS_6VectorINS_17LogCategoryFilterENS_16DefaultAllocatorEEEP5PrintRKNS_9JSONValueE+0x80>)
 23fcd80:	f001 fb88 	bl	23fe494 <_ZnwjRKSt9nothrow_t>
 23fcd84:	4605      	mov	r5, r0
 23fcd86:	b130      	cbz	r0, 23fcd96 <_ZN5spark24DefaultLogHandlerFactory13createHandlerEPKc8LogLevelNS_6VectorINS_17LogCategoryFilterENS_16DefaultAllocatorEEEP5PrintRKNS_9JSONValueE+0x3a>
    using StreamLogHandler::StreamLogHandler;
 23fcd88:	ab01      	add	r3, sp, #4
 23fcd8a:	4632      	mov	r2, r6
 23fcd8c:	4621      	mov	r1, r4
 23fcd8e:	f7ff ffbf 	bl	23fcd10 <_ZN5spark16StreamLogHandlerC1ER5Print8LogLevelNS_6VectorINS_17LogCategoryFilterENS_16DefaultAllocatorEEE>
 23fcd92:	4b13      	ldr	r3, [pc, #76]	; (23fcde0 <_ZN5spark24DefaultLogHandlerFactory13createHandlerEPKc8LogLevelNS_6VectorINS_17LogCategoryFilterENS_16DefaultAllocatorEEEP5PrintRKNS_9JSONValueE+0x84>)
 23fcd94:	602b      	str	r3, [r5, #0]
        return new(std::nothrow) StreamLogHandler(*stream, level, std::move(filters));
 23fcd96:	a801      	add	r0, sp, #4
 23fcd98:	f7fb ffb2 	bl	23f8d00 <_ZN5spark6VectorINS_17LogCategoryFilterENS_16DefaultAllocatorEED1Ev>
 23fcd9c:	462c      	mov	r4, r5
}
 23fcd9e:	4620      	mov	r0, r4
 23fcda0:	b005      	add	sp, #20
 23fcda2:	bdf0      	pop	{r4, r5, r6, r7, pc}
    } else if (strcmp(type, "StreamLogHandler") == 0) {
 23fcda4:	4638      	mov	r0, r7
 23fcda6:	490f      	ldr	r1, [pc, #60]	; (23fcde4 <_ZN5spark24DefaultLogHandlerFactory13createHandlerEPKc8LogLevelNS_6VectorINS_17LogCategoryFilterENS_16DefaultAllocatorEEEP5PrintRKNS_9JSONValueE+0x88>)
 23fcda8:	f7fb fe52 	bl	23f8a50 <strcmp>
 23fcdac:	b990      	cbnz	r0, 23fcdd4 <_ZN5spark24DefaultLogHandlerFactory13createHandlerEPKc8LogLevelNS_6VectorINS_17LogCategoryFilterENS_16DefaultAllocatorEEEP5PrintRKNS_9JSONValueE+0x78>
        if (!stream) {
 23fcdae:	2c00      	cmp	r4, #0
 23fcdb0:	d0f5      	beq.n	23fcd9e <_ZN5spark24DefaultLogHandlerFactory13createHandlerEPKc8LogLevelNS_6VectorINS_17LogCategoryFilterENS_16DefaultAllocatorEEEP5PrintRKNS_9JSONValueE+0x42>
        return new(std::nothrow) StreamLogHandler(*stream, level, std::move(filters));
 23fcdb2:	4629      	mov	r1, r5
 23fcdb4:	a801      	add	r0, sp, #4
 23fcdb6:	f7ff fc9f 	bl	23fc6f8 <_ZN5spark6VectorINS_17LogCategoryFilterENS_16DefaultAllocatorEEC1EOS3_>
 23fcdba:	2024      	movs	r0, #36	; 0x24
 23fcdbc:	4907      	ldr	r1, [pc, #28]	; (23fcddc <_ZN5spark24DefaultLogHandlerFactory13createHandlerEPKc8LogLevelNS_6VectorINS_17LogCategoryFilterENS_16DefaultAllocatorEEEP5PrintRKNS_9JSONValueE+0x80>)
 23fcdbe:	f001 fb69 	bl	23fe494 <_ZnwjRKSt9nothrow_t>
 23fcdc2:	4605      	mov	r5, r0
 23fcdc4:	2800      	cmp	r0, #0
 23fcdc6:	d0e6      	beq.n	23fcd96 <_ZN5spark24DefaultLogHandlerFactory13createHandlerEPKc8LogLevelNS_6VectorINS_17LogCategoryFilterENS_16DefaultAllocatorEEEP5PrintRKNS_9JSONValueE+0x3a>
 23fcdc8:	4632      	mov	r2, r6
 23fcdca:	4621      	mov	r1, r4
 23fcdcc:	ab01      	add	r3, sp, #4
 23fcdce:	f7ff ff9f 	bl	23fcd10 <_ZN5spark16StreamLogHandlerC1ER5Print8LogLevelNS_6VectorINS_17LogCategoryFilterENS_16DefaultAllocatorEEE>
 23fcdd2:	e7e0      	b.n	23fcd96 <_ZN5spark24DefaultLogHandlerFactory13createHandlerEPKc8LogLevelNS_6VectorINS_17LogCategoryFilterENS_16DefaultAllocatorEEEP5PrintRKNS_9JSONValueE+0x3a>
            return nullptr; // Output stream is not specified
 23fcdd4:	2400      	movs	r4, #0
 23fcdd6:	e7e2      	b.n	23fcd9e <_ZN5spark24DefaultLogHandlerFactory13createHandlerEPKc8LogLevelNS_6VectorINS_17LogCategoryFilterENS_16DefaultAllocatorEEEP5PrintRKNS_9JSONValueE+0x42>
 23fcdd8:	023ffb18 	.word	0x023ffb18
 23fcddc:	023ffd45 	.word	0x023ffd45
 23fcde0:	023ffbb0 	.word	0x023ffbb0
 23fcde4:	023ffb1c 	.word	0x023ffb1c

023fcde8 <_GLOBAL__sub_I__ZN5spark3LogE>:
        name_(name) {
 23fcde8:	4b01      	ldr	r3, [pc, #4]	; (23fcdf0 <_GLOBAL__sub_I__ZN5spark3LogE+0x8>)
 23fcdea:	4a02      	ldr	r2, [pc, #8]	; (23fcdf4 <_GLOBAL__sub_I__ZN5spark3LogE+0xc>)
 23fcdec:	601a      	str	r2, [r3, #0]
#if Wiring_LogConfig

// spark::
void spark::logProcessControlRequest(ctrl_request* req) {
    JSONRequestHandler::process(req);
}
 23fcdee:	4770      	bx	lr
 23fcdf0:	1007ae7c 	.word	0x1007ae7c
 23fcdf4:	023ffb2d 	.word	0x023ffb2d

023fcdf8 <_ZN5spark16StreamLogHandler10logMessageEPKc8LogLevelS2_RK13LogAttributes>:
void spark::StreamLogHandler::logMessage(const char *msg, LogLevel level, const char *category, const LogAttributes &attr) {
 23fcdf8:	e92d 47f0 	stmdb	sp!, {r4, r5, r6, r7, r8, r9, sl, lr}
 23fcdfc:	9d08      	ldr	r5, [sp, #32]
    if (stream_ == &Serial && Network.listening()) {
 23fcdfe:	f8d0 9020 	ldr.w	r9, [r0, #32]
void spark::StreamLogHandler::logMessage(const char *msg, LogLevel level, const char *category, const LogAttributes &attr) {
 23fce02:	4604      	mov	r4, r0
 23fce04:	460e      	mov	r6, r1
 23fce06:	4617      	mov	r7, r2
 23fce08:	4698      	mov	r8, r3
    if (stream_ == &Serial && Network.listening()) {
 23fce0a:	f000 fdcd 	bl	23fd9a8 <_Z16_fetch_usbserialv>
 23fce0e:	4581      	cmp	r9, r0
 23fce10:	d04d      	beq.n	23fceae <_ZN5spark16StreamLogHandler10logMessageEPKc8LogLevelS2_RK13LogAttributes+0xb6>
    if (attr.has_time) {
 23fce12:	792b      	ldrb	r3, [r5, #4]
 23fce14:	0719      	lsls	r1, r3, #28
 23fce16:	d504      	bpl.n	23fce22 <_ZN5spark16StreamLogHandler10logMessageEPKc8LogLevelS2_RK13LogAttributes+0x2a>
        printf("%010u ", (unsigned)attr.time);
 23fce18:	4620      	mov	r0, r4
 23fce1a:	696a      	ldr	r2, [r5, #20]
 23fce1c:	4954      	ldr	r1, [pc, #336]	; (23fcf70 <_ZN5spark16StreamLogHandler10logMessageEPKc8LogLevelS2_RK13LogAttributes+0x178>)
 23fce1e:	f7ff fae2 	bl	23fc3e6 <_ZN5spark16StreamLogHandler6printfEPKcz>
    if (category) {
 23fce22:	f1b8 0f00 	cmp.w	r8, #0
 23fce26:	d00d      	beq.n	23fce44 <_ZN5spark16StreamLogHandler10logMessageEPKc8LogLevelS2_RK13LogAttributes+0x4c>
        write('[');
 23fce28:	215b      	movs	r1, #91	; 0x5b
 23fce2a:	4620      	mov	r0, r4
 23fce2c:	f7ff fa56 	bl	23fc2dc <_ZN5spark16StreamLogHandler5writeEc>
        write(category);
 23fce30:	4641      	mov	r1, r8
 23fce32:	4620      	mov	r0, r4
 23fce34:	f7ff fa43 	bl	23fc2be <_ZN5spark16StreamLogHandler5writeEPKc>
        write("] ", 2);
 23fce38:	6823      	ldr	r3, [r4, #0]
 23fce3a:	2202      	movs	r2, #2
 23fce3c:	4620      	mov	r0, r4
 23fce3e:	68db      	ldr	r3, [r3, #12]
 23fce40:	494c      	ldr	r1, [pc, #304]	; (23fcf74 <_ZN5spark16StreamLogHandler10logMessageEPKc8LogLevelS2_RK13LogAttributes+0x17c>)
 23fce42:	4798      	blx	r3
    if (attr.has_file) {
 23fce44:	792b      	ldrb	r3, [r5, #4]
 23fce46:	07da      	lsls	r2, r3, #31
 23fce48:	d524      	bpl.n	23fce94 <_ZN5spark16StreamLogHandler10logMessageEPKc8LogLevelS2_RK13LogAttributes+0x9c>
        s = extractFileName(attr.file); // Strip directory path
 23fce4a:	f8d5 8008 	ldr.w	r8, [r5, #8]
    const char *s1 = strrchr(s, '/');
 23fce4e:	212f      	movs	r1, #47	; 0x2f
 23fce50:	4640      	mov	r0, r8
 23fce52:	f001 fcf8 	bl	23fe846 <strrchr>
    if (s1) {
 23fce56:	b108      	cbz	r0, 23fce5c <_ZN5spark16StreamLogHandler10logMessageEPKc8LogLevelS2_RK13LogAttributes+0x64>
        return s1 + 1;
 23fce58:	f100 0801 	add.w	r8, r0, #1
        write(s); // File name
 23fce5c:	4641      	mov	r1, r8
 23fce5e:	4620      	mov	r0, r4
 23fce60:	f7ff fa2d 	bl	23fc2be <_ZN5spark16StreamLogHandler5writeEPKc>
        if (attr.has_line) {
 23fce64:	792b      	ldrb	r3, [r5, #4]
 23fce66:	079b      	lsls	r3, r3, #30
 23fce68:	d508      	bpl.n	23fce7c <_ZN5spark16StreamLogHandler10logMessageEPKc8LogLevelS2_RK13LogAttributes+0x84>
            write(':');
 23fce6a:	213a      	movs	r1, #58	; 0x3a
 23fce6c:	4620      	mov	r0, r4
 23fce6e:	f7ff fa35 	bl	23fc2dc <_ZN5spark16StreamLogHandler5writeEc>
            printf("%d", (int)attr.line); // Line number
 23fce72:	4620      	mov	r0, r4
 23fce74:	68ea      	ldr	r2, [r5, #12]
 23fce76:	4940      	ldr	r1, [pc, #256]	; (23fcf78 <_ZN5spark16StreamLogHandler10logMessageEPKc8LogLevelS2_RK13LogAttributes+0x180>)
 23fce78:	f7ff fab5 	bl	23fc3e6 <_ZN5spark16StreamLogHandler6printfEPKcz>
        if (attr.has_function) {
 23fce7c:	792a      	ldrb	r2, [r5, #4]
            write(", ", 2);
 23fce7e:	6823      	ldr	r3, [r4, #0]
        if (attr.has_function) {
 23fce80:	f012 0f04 	tst.w	r2, #4
            write(": ", 2);
 23fce84:	4620      	mov	r0, r4
            write(", ", 2);
 23fce86:	f04f 0202 	mov.w	r2, #2
 23fce8a:	68db      	ldr	r3, [r3, #12]
 23fce8c:	bf14      	ite	ne
 23fce8e:	493b      	ldrne	r1, [pc, #236]	; (23fcf7c <_ZN5spark16StreamLogHandler10logMessageEPKc8LogLevelS2_RK13LogAttributes+0x184>)
            write(": ", 2);
 23fce90:	493b      	ldreq	r1, [pc, #236]	; (23fcf80 <_ZN5spark16StreamLogHandler10logMessageEPKc8LogLevelS2_RK13LogAttributes+0x188>)
 23fce92:	4798      	blx	r3
    if (attr.has_function) {
 23fce94:	792b      	ldrb	r3, [r5, #4]
 23fce96:	0758      	lsls	r0, r3, #29
 23fce98:	d51d      	bpl.n	23fced6 <_ZN5spark16StreamLogHandler10logMessageEPKc8LogLevelS2_RK13LogAttributes+0xde>
        s = extractFuncName(attr.function, &n); // Strip argument and return types
 23fce9a:	6929      	ldr	r1, [r5, #16]
const char* extractFuncName(const char *s, size_t *size) {
 23fce9c:	460b      	mov	r3, r1
 23fce9e:	461a      	mov	r2, r3
    for (; *s; ++s) {
 23fcea0:	f813 0b01 	ldrb.w	r0, [r3], #1
 23fcea4:	b160      	cbz	r0, 23fcec0 <_ZN5spark16StreamLogHandler10logMessageEPKc8LogLevelS2_RK13LogAttributes+0xc8>
        if (*s == ' ') {
 23fcea6:	2820      	cmp	r0, #32
 23fcea8:	d108      	bne.n	23fcebc <_ZN5spark16StreamLogHandler10logMessageEPKc8LogLevelS2_RK13LogAttributes+0xc4>
            s1 = s + 1; // Skip return type
 23fceaa:	4619      	mov	r1, r3
 23fceac:	e7f7      	b.n	23fce9e <_ZN5spark16StreamLogHandler10logMessageEPKc8LogLevelS2_RK13LogAttributes+0xa6>
    if (stream_ == &Serial && Network.listening()) {
 23fceae:	4835      	ldr	r0, [pc, #212]	; (23fcf84 <_ZN5spark16StreamLogHandler10logMessageEPKc8LogLevelS2_RK13LogAttributes+0x18c>)
 23fceb0:	f000 ff35 	bl	23fdd1e <_ZN5spark12NetworkClass9listeningEv>
 23fceb4:	2800      	cmp	r0, #0
 23fceb6:	d0ac      	beq.n	23fce12 <_ZN5spark16StreamLogHandler10logMessageEPKc8LogLevelS2_RK13LogAttributes+0x1a>
}
 23fceb8:	e8bd 87f0 	ldmia.w	sp!, {r4, r5, r6, r7, r8, r9, sl, pc}
        } else if (*s == '(') {
 23fcebc:	2828      	cmp	r0, #40	; 0x28
 23fcebe:	d1ee      	bne.n	23fce9e <_ZN5spark16StreamLogHandler10logMessageEPKc8LogLevelS2_RK13LogAttributes+0xa6>
        write(s, n);
 23fcec0:	6823      	ldr	r3, [r4, #0]
 23fcec2:	1a52      	subs	r2, r2, r1
 23fcec4:	4620      	mov	r0, r4
 23fcec6:	68db      	ldr	r3, [r3, #12]
 23fcec8:	4798      	blx	r3
        write("(): ", 4);
 23fceca:	6823      	ldr	r3, [r4, #0]
 23fcecc:	2204      	movs	r2, #4
 23fcece:	4620      	mov	r0, r4
 23fced0:	68db      	ldr	r3, [r3, #12]
 23fced2:	492d      	ldr	r1, [pc, #180]	; (23fcf88 <_ZN5spark16StreamLogHandler10logMessageEPKc8LogLevelS2_RK13LogAttributes+0x190>)
 23fced4:	4798      	blx	r3
    return log_level_name(level, nullptr);
 23fced6:	2100      	movs	r1, #0
 23fced8:	4638      	mov	r0, r7
 23fceda:	f7fe f9b9 	bl	23fb250 <log_level_name>
 23fcede:	4601      	mov	r1, r0
    write(s);
 23fcee0:	4620      	mov	r0, r4
 23fcee2:	f7ff f9ec 	bl	23fc2be <_ZN5spark16StreamLogHandler5writeEPKc>
    write(": ", 2);
 23fcee6:	6823      	ldr	r3, [r4, #0]
 23fcee8:	2202      	movs	r2, #2
 23fceea:	4620      	mov	r0, r4
 23fceec:	68db      	ldr	r3, [r3, #12]
 23fceee:	4924      	ldr	r1, [pc, #144]	; (23fcf80 <_ZN5spark16StreamLogHandler10logMessageEPKc8LogLevelS2_RK13LogAttributes+0x188>)
 23fcef0:	4798      	blx	r3
    if (msg) {
 23fcef2:	b11e      	cbz	r6, 23fcefc <_ZN5spark16StreamLogHandler10logMessageEPKc8LogLevelS2_RK13LogAttributes+0x104>
        write(msg);
 23fcef4:	4631      	mov	r1, r6
 23fcef6:	4620      	mov	r0, r4
 23fcef8:	f7ff f9e1 	bl	23fc2be <_ZN5spark16StreamLogHandler5writeEPKc>
    if (attr.has_code || attr.has_details) {
 23fcefc:	792b      	ldrb	r3, [r5, #4]
 23fcefe:	f013 0f30 	tst.w	r3, #48	; 0x30
 23fcf02:	d02c      	beq.n	23fcf5e <_ZN5spark16StreamLogHandler10logMessageEPKc8LogLevelS2_RK13LogAttributes+0x166>
        write(" [", 2);
 23fcf04:	6823      	ldr	r3, [r4, #0]
 23fcf06:	4921      	ldr	r1, [pc, #132]	; (23fcf8c <_ZN5spark16StreamLogHandler10logMessageEPKc8LogLevelS2_RK13LogAttributes+0x194>)
 23fcf08:	68db      	ldr	r3, [r3, #12]
 23fcf0a:	2202      	movs	r2, #2
 23fcf0c:	4620      	mov	r0, r4
 23fcf0e:	4798      	blx	r3
        if (attr.has_code) {
 23fcf10:	792b      	ldrb	r3, [r5, #4]
 23fcf12:	06d9      	lsls	r1, r3, #27
 23fcf14:	d50a      	bpl.n	23fcf2c <_ZN5spark16StreamLogHandler10logMessageEPKc8LogLevelS2_RK13LogAttributes+0x134>
            write("code = ", 7);
 23fcf16:	6823      	ldr	r3, [r4, #0]
 23fcf18:	2207      	movs	r2, #7
 23fcf1a:	4620      	mov	r0, r4
 23fcf1c:	491c      	ldr	r1, [pc, #112]	; (23fcf90 <_ZN5spark16StreamLogHandler10logMessageEPKc8LogLevelS2_RK13LogAttributes+0x198>)
 23fcf1e:	68db      	ldr	r3, [r3, #12]
 23fcf20:	4798      	blx	r3
            printf("%" PRIiPTR, (intptr_t)attr.code);
 23fcf22:	4620      	mov	r0, r4
 23fcf24:	69aa      	ldr	r2, [r5, #24]
 23fcf26:	491b      	ldr	r1, [pc, #108]	; (23fcf94 <_ZN5spark16StreamLogHandler10logMessageEPKc8LogLevelS2_RK13LogAttributes+0x19c>)
 23fcf28:	f7ff fa5d 	bl	23fc3e6 <_ZN5spark16StreamLogHandler6printfEPKcz>
        if (attr.has_details) {
 23fcf2c:	792b      	ldrb	r3, [r5, #4]
 23fcf2e:	069a      	lsls	r2, r3, #26
 23fcf30:	d511      	bpl.n	23fcf56 <_ZN5spark16StreamLogHandler10logMessageEPKc8LogLevelS2_RK13LogAttributes+0x15e>
            if (attr.has_code) {
 23fcf32:	06db      	lsls	r3, r3, #27
 23fcf34:	d505      	bpl.n	23fcf42 <_ZN5spark16StreamLogHandler10logMessageEPKc8LogLevelS2_RK13LogAttributes+0x14a>
                write(", ", 2);
 23fcf36:	6823      	ldr	r3, [r4, #0]
 23fcf38:	2202      	movs	r2, #2
 23fcf3a:	4620      	mov	r0, r4
 23fcf3c:	68db      	ldr	r3, [r3, #12]
 23fcf3e:	490f      	ldr	r1, [pc, #60]	; (23fcf7c <_ZN5spark16StreamLogHandler10logMessageEPKc8LogLevelS2_RK13LogAttributes+0x184>)
 23fcf40:	4798      	blx	r3
            write("details = ", 10);
 23fcf42:	6823      	ldr	r3, [r4, #0]
 23fcf44:	4620      	mov	r0, r4
 23fcf46:	4914      	ldr	r1, [pc, #80]	; (23fcf98 <_ZN5spark16StreamLogHandler10logMessageEPKc8LogLevelS2_RK13LogAttributes+0x1a0>)
 23fcf48:	220a      	movs	r2, #10
 23fcf4a:	68db      	ldr	r3, [r3, #12]
 23fcf4c:	4798      	blx	r3
            write(attr.details);
 23fcf4e:	4620      	mov	r0, r4
 23fcf50:	69e9      	ldr	r1, [r5, #28]
 23fcf52:	f7ff f9b4 	bl	23fc2be <_ZN5spark16StreamLogHandler5writeEPKc>
        write(']');
 23fcf56:	215d      	movs	r1, #93	; 0x5d
 23fcf58:	4620      	mov	r0, r4
 23fcf5a:	f7ff f9bf 	bl	23fc2dc <_ZN5spark16StreamLogHandler5writeEc>
    write("\r\n", 2);
 23fcf5e:	6823      	ldr	r3, [r4, #0]
 23fcf60:	4620      	mov	r0, r4
}
 23fcf62:	e8bd 47f0 	ldmia.w	sp!, {r4, r5, r6, r7, r8, r9, sl, lr}
    write("\r\n", 2);
 23fcf66:	2202      	movs	r2, #2
 23fcf68:	68db      	ldr	r3, [r3, #12]
 23fcf6a:	490c      	ldr	r1, [pc, #48]	; (23fcf9c <_ZN5spark16StreamLogHandler10logMessageEPKc8LogLevelS2_RK13LogAttributes+0x1a4>)
 23fcf6c:	4718      	bx	r3
 23fcf6e:	bf00      	nop
 23fcf70:	023ffb31 	.word	0x023ffb31
 23fcf74:	023ffb38 	.word	0x023ffb38
 23fcf78:	023fec0e 	.word	0x023fec0e
 23fcf7c:	023ffb3b 	.word	0x023ffb3b
 23fcf80:	023ffb40 	.word	0x023ffb40
 23fcf84:	1007aee4 	.word	0x1007aee4
 23fcf88:	023ffb3e 	.word	0x023ffb3e
 23fcf8c:	023ffb43 	.word	0x023ffb43
 23fcf90:	023ffb46 	.word	0x023ffb46
 23fcf94:	023ffb4e 	.word	0x023ffb4e
 23fcf98:	023ffb51 	.word	0x023ffb51
 23fcf9c:	023ffb5c 	.word	0x023ffb5c

023fcfa0 <_ZN5spark16StreamLogHandler5writeEPKcj>:
void spark::StreamLogHandler::write(const char *data, size_t size) {
 23fcfa0:	e92d 41f0 	stmdb	sp!, {r4, r5, r6, r7, r8, lr}
 23fcfa4:	4604      	mov	r4, r0
    if (stream_ == &Serial && Network.listening()) {
 23fcfa6:	6a07      	ldr	r7, [r0, #32]
void spark::StreamLogHandler::write(const char *data, size_t size) {
 23fcfa8:	460d      	mov	r5, r1
 23fcfaa:	4616      	mov	r6, r2
    if (stream_ == &Serial && Network.listening()) {
 23fcfac:	f000 fcfc 	bl	23fd9a8 <_Z16_fetch_usbserialv>
 23fcfb0:	4287      	cmp	r7, r0
 23fcfb2:	d007      	beq.n	23fcfc4 <_ZN5spark16StreamLogHandler5writeEPKcj+0x24>
    stream_->write((const uint8_t*)data, size);
 23fcfb4:	6a20      	ldr	r0, [r4, #32]
 23fcfb6:	4632      	mov	r2, r6
 23fcfb8:	6803      	ldr	r3, [r0, #0]
 23fcfba:	4629      	mov	r1, r5
}
 23fcfbc:	e8bd 41f0 	ldmia.w	sp!, {r4, r5, r6, r7, r8, lr}
    stream_->write((const uint8_t*)data, size);
 23fcfc0:	68db      	ldr	r3, [r3, #12]
 23fcfc2:	4718      	bx	r3
    if (stream_ == &Serial && Network.listening()) {
 23fcfc4:	4803      	ldr	r0, [pc, #12]	; (23fcfd4 <_ZN5spark16StreamLogHandler5writeEPKcj+0x34>)
 23fcfc6:	f000 feaa 	bl	23fdd1e <_ZN5spark12NetworkClass9listeningEv>
 23fcfca:	2800      	cmp	r0, #0
 23fcfcc:	d0f2      	beq.n	23fcfb4 <_ZN5spark16StreamLogHandler5writeEPKcj+0x14>
}
 23fcfce:	e8bd 81f0 	ldmia.w	sp!, {r4, r5, r6, r7, r8, pc}
 23fcfd2:	bf00      	nop
 23fcfd4:	1007aee4 	.word	0x1007aee4

023fcfd8 <_ZN5spark20JSONStreamLogHandler10logMessageEPKc8LogLevelS2_RK13LogAttributes>:
void spark::JSONStreamLogHandler::logMessage(const char *msg, LogLevel level, const char *category, const LogAttributes &attr) {
 23fcfd8:	e92d 43f0 	stmdb	sp!, {r4, r5, r6, r7, r8, r9, lr}
 23fcfdc:	b085      	sub	sp, #20
    return stream_;
 23fcfde:	f8d0 9020 	ldr.w	r9, [r0, #32]
 23fcfe2:	4605      	mov	r5, r0
 23fcfe4:	460f      	mov	r7, r1
 23fcfe6:	4690      	mov	r8, r2
 23fcfe8:	461e      	mov	r6, r3
 23fcfea:	9c0c      	ldr	r4, [sp, #48]	; 0x30
    if (this->stream() == &Serial && Network.listening()) {
 23fcfec:	f000 fcdc 	bl	23fd9a8 <_Z16_fetch_usbserialv>
 23fcff0:	4581      	cmp	r9, r0
 23fcff2:	d105      	bne.n	23fd000 <_ZN5spark20JSONStreamLogHandler10logMessageEPKc8LogLevelS2_RK13LogAttributes+0x28>
 23fcff4:	4849      	ldr	r0, [pc, #292]	; (23fd11c <_ZN5spark20JSONStreamLogHandler10logMessageEPKc8LogLevelS2_RK13LogAttributes+0x144>)
 23fcff6:	f000 fe92 	bl	23fdd1e <_ZN5spark12NetworkClass9listeningEv>
 23fcffa:	2800      	cmp	r0, #0
 23fcffc:	f040 808a 	bne.w	23fd114 <_ZN5spark20JSONStreamLogHandler10logMessageEPKc8LogLevelS2_RK13LogAttributes+0x13c>
        state_(BEGIN) {
 23fd000:	f04f 0900 	mov.w	r9, #0
 23fd004:	6a2b      	ldr	r3, [r5, #32]
        strm_(stream) {
 23fd006:	4a46      	ldr	r2, [pc, #280]	; (23fd120 <_ZN5spark20JSONStreamLogHandler10logMessageEPKc8LogLevelS2_RK13LogAttributes+0x148>)
    json.beginObject();
 23fd008:	a801      	add	r0, sp, #4
 23fd00a:	9201      	str	r2, [sp, #4]
 23fd00c:	9303      	str	r3, [sp, #12]
        state_(BEGIN) {
 23fd00e:	f88d 9008 	strb.w	r9, [sp, #8]
 23fd012:	f001 f828 	bl	23fe066 <_ZN5spark10JSONWriter11beginObjectEv>
    return log_level_name(level, nullptr);
 23fd016:	4649      	mov	r1, r9
 23fd018:	4640      	mov	r0, r8
 23fd01a:	f7fe f919 	bl	23fb250 <log_level_name>
 23fd01e:	4680      	mov	r8, r0
    json.name("l", 1).value(s);
 23fd020:	4940      	ldr	r1, [pc, #256]	; (23fd124 <_ZN5spark20JSONStreamLogHandler10logMessageEPKc8LogLevelS2_RK13LogAttributes+0x14c>)
 23fd022:	2201      	movs	r2, #1
 23fd024:	a801      	add	r0, sp, #4
 23fd026:	f001 f8ad 	bl	23fe184 <_ZN5spark10JSONWriter4nameEPKcj>
 23fd02a:	4641      	mov	r1, r8
 23fd02c:	f7ff f939 	bl	23fc2a2 <_ZN5spark10JSONWriter5valueEPKc>
    if (msg) {
 23fd030:	b13f      	cbz	r7, 23fd042 <_ZN5spark20JSONStreamLogHandler10logMessageEPKc8LogLevelS2_RK13LogAttributes+0x6a>
        json.name("m", 1).value(msg);
 23fd032:	493d      	ldr	r1, [pc, #244]	; (23fd128 <_ZN5spark20JSONStreamLogHandler10logMessageEPKc8LogLevelS2_RK13LogAttributes+0x150>)
 23fd034:	2201      	movs	r2, #1
 23fd036:	a801      	add	r0, sp, #4
 23fd038:	f001 f8a4 	bl	23fe184 <_ZN5spark10JSONWriter4nameEPKcj>
 23fd03c:	4639      	mov	r1, r7
 23fd03e:	f7ff f930 	bl	23fc2a2 <_ZN5spark10JSONWriter5valueEPKc>
    if (category) {
 23fd042:	b13e      	cbz	r6, 23fd054 <_ZN5spark20JSONStreamLogHandler10logMessageEPKc8LogLevelS2_RK13LogAttributes+0x7c>
        json.name("c", 1).value(category);
 23fd044:	4939      	ldr	r1, [pc, #228]	; (23fd12c <_ZN5spark20JSONStreamLogHandler10logMessageEPKc8LogLevelS2_RK13LogAttributes+0x154>)
 23fd046:	2201      	movs	r2, #1
 23fd048:	a801      	add	r0, sp, #4
 23fd04a:	f001 f89b 	bl	23fe184 <_ZN5spark10JSONWriter4nameEPKcj>
 23fd04e:	4631      	mov	r1, r6
 23fd050:	f7ff f927 	bl	23fc2a2 <_ZN5spark10JSONWriter5valueEPKc>
    if (attr.has_file) {
 23fd054:	7923      	ldrb	r3, [r4, #4]
 23fd056:	07df      	lsls	r7, r3, #31
 23fd058:	d50e      	bpl.n	23fd078 <_ZN5spark20JSONStreamLogHandler10logMessageEPKc8LogLevelS2_RK13LogAttributes+0xa0>
        s = extractFileName(attr.file); // Strip directory path
 23fd05a:	68a6      	ldr	r6, [r4, #8]
    const char *s1 = strrchr(s, '/');
 23fd05c:	212f      	movs	r1, #47	; 0x2f
 23fd05e:	4630      	mov	r0, r6
 23fd060:	f001 fbf1 	bl	23fe846 <strrchr>
    if (s1) {
 23fd064:	b100      	cbz	r0, 23fd068 <_ZN5spark20JSONStreamLogHandler10logMessageEPKc8LogLevelS2_RK13LogAttributes+0x90>
        return s1 + 1;
 23fd066:	1c46      	adds	r6, r0, #1
        json.name("f", 1).value(s);
 23fd068:	4931      	ldr	r1, [pc, #196]	; (23fd130 <_ZN5spark20JSONStreamLogHandler10logMessageEPKc8LogLevelS2_RK13LogAttributes+0x158>)
 23fd06a:	2201      	movs	r2, #1
 23fd06c:	a801      	add	r0, sp, #4
 23fd06e:	f001 f889 	bl	23fe184 <_ZN5spark10JSONWriter4nameEPKcj>
 23fd072:	4631      	mov	r1, r6
 23fd074:	f7ff f915 	bl	23fc2a2 <_ZN5spark10JSONWriter5valueEPKc>
    if (attr.has_line) {
 23fd078:	7923      	ldrb	r3, [r4, #4]
 23fd07a:	079e      	lsls	r6, r3, #30
 23fd07c:	d507      	bpl.n	23fd08e <_ZN5spark20JSONStreamLogHandler10logMessageEPKc8LogLevelS2_RK13LogAttributes+0xb6>
        json.name("ln", 2).value(attr.line);
 23fd07e:	492d      	ldr	r1, [pc, #180]	; (23fd134 <_ZN5spark20JSONStreamLogHandler10logMessageEPKc8LogLevelS2_RK13LogAttributes+0x15c>)
 23fd080:	2202      	movs	r2, #2
 23fd082:	a801      	add	r0, sp, #4
 23fd084:	f001 f87e 	bl	23fe184 <_ZN5spark10JSONWriter4nameEPKcj>
 23fd088:	68e1      	ldr	r1, [r4, #12]
 23fd08a:	f000 fff9 	bl	23fe080 <_ZN5spark10JSONWriter5valueEi>
    if (attr.has_function) {
 23fd08e:	7923      	ldrb	r3, [r4, #4]
 23fd090:	0758      	lsls	r0, r3, #29
 23fd092:	d514      	bpl.n	23fd0be <_ZN5spark20JSONStreamLogHandler10logMessageEPKc8LogLevelS2_RK13LogAttributes+0xe6>
        s = extractFuncName(attr.function, &n); // Strip argument and return types
 23fd094:	6926      	ldr	r6, [r4, #16]
const char* extractFuncName(const char *s, size_t *size) {
 23fd096:	4633      	mov	r3, r6
 23fd098:	461f      	mov	r7, r3
    for (; *s; ++s) {
 23fd09a:	f813 2b01 	ldrb.w	r2, [r3], #1
 23fd09e:	b12a      	cbz	r2, 23fd0ac <_ZN5spark20JSONStreamLogHandler10logMessageEPKc8LogLevelS2_RK13LogAttributes+0xd4>
        if (*s == ' ') {
 23fd0a0:	2a20      	cmp	r2, #32
 23fd0a2:	d101      	bne.n	23fd0a8 <_ZN5spark20JSONStreamLogHandler10logMessageEPKc8LogLevelS2_RK13LogAttributes+0xd0>
            s1 = s + 1; // Skip return type
 23fd0a4:	461e      	mov	r6, r3
 23fd0a6:	e7f7      	b.n	23fd098 <_ZN5spark20JSONStreamLogHandler10logMessageEPKc8LogLevelS2_RK13LogAttributes+0xc0>
        } else if (*s == '(') {
 23fd0a8:	2a28      	cmp	r2, #40	; 0x28
 23fd0aa:	d1f5      	bne.n	23fd098 <_ZN5spark20JSONStreamLogHandler10logMessageEPKc8LogLevelS2_RK13LogAttributes+0xc0>
        json.name("fn", 2).value(s, n);
 23fd0ac:	2202      	movs	r2, #2
 23fd0ae:	4922      	ldr	r1, [pc, #136]	; (23fd138 <_ZN5spark20JSONStreamLogHandler10logMessageEPKc8LogLevelS2_RK13LogAttributes+0x160>)
 23fd0b0:	a801      	add	r0, sp, #4
 23fd0b2:	f001 f867 	bl	23fe184 <_ZN5spark10JSONWriter4nameEPKcj>
 23fd0b6:	4631      	mov	r1, r6
 23fd0b8:	1bba      	subs	r2, r7, r6
 23fd0ba:	f001 f873 	bl	23fe1a4 <_ZN5spark10JSONWriter5valueEPKcj>
    if (attr.has_time) {
 23fd0be:	7923      	ldrb	r3, [r4, #4]
 23fd0c0:	0719      	lsls	r1, r3, #28
 23fd0c2:	d507      	bpl.n	23fd0d4 <_ZN5spark20JSONStreamLogHandler10logMessageEPKc8LogLevelS2_RK13LogAttributes+0xfc>
        json.name("t", 1).value((unsigned)attr.time);
 23fd0c4:	491d      	ldr	r1, [pc, #116]	; (23fd13c <_ZN5spark20JSONStreamLogHandler10logMessageEPKc8LogLevelS2_RK13LogAttributes+0x164>)
 23fd0c6:	2201      	movs	r2, #1
 23fd0c8:	a801      	add	r0, sp, #4
 23fd0ca:	f001 f85b 	bl	23fe184 <_ZN5spark10JSONWriter4nameEPKcj>
 23fd0ce:	6961      	ldr	r1, [r4, #20]
 23fd0d0:	f000 ffe8 	bl	23fe0a4 <_ZN5spark10JSONWriter5valueEj>
    if (attr.has_code) {
 23fd0d4:	7923      	ldrb	r3, [r4, #4]
 23fd0d6:	06da      	lsls	r2, r3, #27
 23fd0d8:	d508      	bpl.n	23fd0ec <_ZN5spark20JSONStreamLogHandler10logMessageEPKc8LogLevelS2_RK13LogAttributes+0x114>
        json.name("code", 4).value((int)attr.code);
 23fd0da:	2204      	movs	r2, #4
 23fd0dc:	4918      	ldr	r1, [pc, #96]	; (23fd140 <_ZN5spark20JSONStreamLogHandler10logMessageEPKc8LogLevelS2_RK13LogAttributes+0x168>)
 23fd0de:	eb0d 0002 	add.w	r0, sp, r2
 23fd0e2:	f001 f84f 	bl	23fe184 <_ZN5spark10JSONWriter4nameEPKcj>
 23fd0e6:	69a1      	ldr	r1, [r4, #24]
 23fd0e8:	f000 ffca 	bl	23fe080 <_ZN5spark10JSONWriter5valueEi>
    if (attr.has_details) {
 23fd0ec:	7923      	ldrb	r3, [r4, #4]
 23fd0ee:	069b      	lsls	r3, r3, #26
 23fd0f0:	d507      	bpl.n	23fd102 <_ZN5spark20JSONStreamLogHandler10logMessageEPKc8LogLevelS2_RK13LogAttributes+0x12a>
        json.name("detail", 6).value(attr.details);
 23fd0f2:	4914      	ldr	r1, [pc, #80]	; (23fd144 <_ZN5spark20JSONStreamLogHandler10logMessageEPKc8LogLevelS2_RK13LogAttributes+0x16c>)
 23fd0f4:	2206      	movs	r2, #6
 23fd0f6:	a801      	add	r0, sp, #4
 23fd0f8:	f001 f844 	bl	23fe184 <_ZN5spark10JSONWriter4nameEPKcj>
 23fd0fc:	69e1      	ldr	r1, [r4, #28]
 23fd0fe:	f7ff f8d0 	bl	23fc2a2 <_ZN5spark10JSONWriter5valueEPKc>
    json.endObject();
 23fd102:	a801      	add	r0, sp, #4
 23fd104:	f000 ff99 	bl	23fe03a <_ZN5spark10JSONWriter9endObjectEv>
    return stream_;
 23fd108:	6a28      	ldr	r0, [r5, #32]
    this->stream()->write((const uint8_t*)"\r\n", 2);
 23fd10a:	2202      	movs	r2, #2
 23fd10c:	6803      	ldr	r3, [r0, #0]
 23fd10e:	490e      	ldr	r1, [pc, #56]	; (23fd148 <_ZN5spark20JSONStreamLogHandler10logMessageEPKc8LogLevelS2_RK13LogAttributes+0x170>)
 23fd110:	68db      	ldr	r3, [r3, #12]
 23fd112:	4798      	blx	r3
}
 23fd114:	b005      	add	sp, #20
 23fd116:	e8bd 83f0 	ldmia.w	sp!, {r4, r5, r6, r7, r8, r9, pc}
 23fd11a:	bf00      	nop
 23fd11c:	1007aee4 	.word	0x1007aee4
 23fd120:	023ffb80 	.word	0x023ffb80
 23fd124:	023ffb0e 	.word	0x023ffb0e
 23fd128:	023ffb5f 	.word	0x023ffb5f
 23fd12c:	023ffecb 	.word	0x023ffecb
 23fd130:	023ffb61 	.word	0x023ffb61
 23fd134:	023ffb63 	.word	0x023ffb63
 23fd138:	023ffb66 	.word	0x023ffb66
 23fd13c:	023fecc9 	.word	0x023fecc9
 23fd140:	023ffb69 	.word	0x023ffb69
 23fd144:	023ffb6e 	.word	0x023ffb6e
 23fd148:	023ffb5c 	.word	0x023ffb5c

023fd14c <_GLOBAL__sub_I_TIME_FORMAT_DEFAULT>:
            calendar_time_cache = Convert_UnixTime_To_CalendarTime(unix_time);
            unix_time_cache = unix_time;
    }
}

const char* TimeClass::format_spec = TIME_FORMAT_DEFAULT;
 23fd14c:	4b02      	ldr	r3, [pc, #8]	; (23fd158 <_GLOBAL__sub_I_TIME_FORMAT_DEFAULT+0xc>)
 23fd14e:	681a      	ldr	r2, [r3, #0]
 23fd150:	4b02      	ldr	r3, [pc, #8]	; (23fd15c <_GLOBAL__sub_I_TIME_FORMAT_DEFAULT+0x10>)
 23fd152:	601a      	str	r2, [r3, #0]
{
  return isValid();
}


TimeClass Time;
 23fd154:	4770      	bx	lr
 23fd156:	bf00      	nop
 23fd158:	1007ad48 	.word	0x1007ad48
 23fd15c:	1007aea8 	.word	0x1007aea8

023fd160 <delay>:
    return (value - fromStart) * (toEnd - toStart) / (fromEnd - fromStart) + toStart;
}

void delay(unsigned long ms)
{
    system_delay_ms(ms, false);
 23fd160:	2100      	movs	r1, #0
 23fd162:	f7fe b89f 	b.w	23fb2a4 <system_delay_ms>
	...

023fd168 <_GLOBAL__sub_I_RGB>:
    _Function_base() : _M_manager(nullptr) { }
 23fd168:	2200      	movs	r2, #0
 23fd16a:	4b01      	ldr	r3, [pc, #4]	; (23fd170 <_GLOBAL__sub_I_RGB+0x8>)
 23fd16c:	609a      	str	r2, [r3, #8]
{
    RGBClass* const d = static_cast<RGBClass*>(data);
    if (d->changeHandler_) {
        d->changeHandler_(r, g, b);
    }
}
 23fd16e:	4770      	bx	lr
 23fd170:	1007aeac 	.word	0x1007aeac

023fd174 <_ZZ21module_user_init_hookENUlP6_reentjmPvE_4_FUNES0_jmS1_>:

void module_user_init_hook()
{
#if HAL_PLATFORM_NEWLIB
    newlib_impure_ptr_callback([](struct _reent* r, size_t size, uint32_t version, void* ctx) -> void {
        _impure_ptr = r;
 23fd174:	4b01      	ldr	r3, [pc, #4]	; (23fd17c <_ZZ21module_user_init_hookENUlP6_reentjmPvE_4_FUNES0_jmS1_+0x8>)
 23fd176:	6018      	str	r0, [r3, #0]
    }, nullptr);
 23fd178:	4770      	bx	lr
 23fd17a:	bf00      	nop
 23fd17c:	1007ad4c 	.word	0x1007ad4c

023fd180 <serialEventRun>:
{
 23fd180:	b508      	push	{r3, lr}
    if (serialEvent && Serial.available()>0)
 23fd182:	4b0f      	ldr	r3, [pc, #60]	; (23fd1c0 <serialEventRun+0x40>)
 23fd184:	b143      	cbz	r3, 23fd198 <serialEventRun+0x18>
 23fd186:	f000 fc0f 	bl	23fd9a8 <_Z16_fetch_usbserialv>
 23fd18a:	6803      	ldr	r3, [r0, #0]
 23fd18c:	691b      	ldr	r3, [r3, #16]
 23fd18e:	4798      	blx	r3
 23fd190:	2800      	cmp	r0, #0
 23fd192:	dd01      	ble.n	23fd198 <serialEventRun+0x18>
        serialEvent();
 23fd194:	e000      	b.n	23fd198 <serialEventRun+0x18>
 23fd196:	bf00      	nop
    if (serialEvent1 && Serial1.available()>0)
 23fd198:	4b0a      	ldr	r3, [pc, #40]	; (23fd1c4 <serialEventRun+0x44>)
 23fd19a:	b143      	cbz	r3, 23fd1ae <serialEventRun+0x2e>
 23fd19c:	f001 f8aa 	bl	23fe2f4 <_Z22__fetch_global_Serial1v>
 23fd1a0:	6803      	ldr	r3, [r0, #0]
 23fd1a2:	691b      	ldr	r3, [r3, #16]
 23fd1a4:	4798      	blx	r3
 23fd1a6:	2800      	cmp	r0, #0
 23fd1a8:	dd01      	ble.n	23fd1ae <serialEventRun+0x2e>
        serialEvent1();
 23fd1aa:	e000      	b.n	23fd1ae <serialEventRun+0x2e>
 23fd1ac:	bf00      	nop
    if (serialEvent2) serialEventRun2();
 23fd1ae:	4b06      	ldr	r3, [pc, #24]	; (23fd1c8 <serialEventRun+0x48>)
 23fd1b0:	b10b      	cbz	r3, 23fd1b6 <serialEventRun+0x36>
 23fd1b2:	f001 f8e5 	bl	23fe380 <_Z15serialEventRun2v>
    if (serialEvent3) serialEventRun3();
 23fd1b6:	4b05      	ldr	r3, [pc, #20]	; (23fd1cc <serialEventRun+0x4c>)
 23fd1b8:	b10b      	cbz	r3, 23fd1be <serialEventRun+0x3e>
 23fd1ba:	f001 f917 	bl	23fe3ec <_Z15serialEventRun3v>
}
 23fd1be:	bd08      	pop	{r3, pc}
	...

023fd1d0 <_post_loop>:
{
 23fd1d0:	b508      	push	{r3, lr}
	serialEventRun();
 23fd1d2:	f7ff ffd5 	bl	23fd180 <serialEventRun>
		return !thread || !thread->isRunning();
	}

	static inline system_tick_t current_time()
	{
		return HAL_Timer_Get_Milli_Seconds();
 23fd1d6:	f7fd fd1d 	bl	23fac14 <HAL_Timer_Get_Milli_Seconds>
	/**
	 * Lifesign that the application is still working normally.
	 */
	static void checkin()
	{
		last_checkin = current_time();
 23fd1da:	4b01      	ldr	r3, [pc, #4]	; (23fd1e0 <_post_loop+0x10>)
 23fd1dc:	6018      	str	r0, [r3, #0]
}
 23fd1de:	bd08      	pop	{r3, pc}
 23fd1e0:	1007af34 	.word	0x1007af34

023fd1e4 <_Z33system_initialize_user_backup_ramv>:
    memcpy(&link_global_retained_start, &link_global_retained_initial_values, len);
 23fd1e4:	4805      	ldr	r0, [pc, #20]	; (23fd1fc <_Z33system_initialize_user_backup_ramv+0x18>)
 23fd1e6:	4a06      	ldr	r2, [pc, #24]	; (23fd200 <_Z33system_initialize_user_backup_ramv+0x1c>)
{
 23fd1e8:	b508      	push	{r3, lr}
    memcpy(&link_global_retained_start, &link_global_retained_initial_values, len);
 23fd1ea:	1a12      	subs	r2, r2, r0
 23fd1ec:	4905      	ldr	r1, [pc, #20]	; (23fd204 <_Z33system_initialize_user_backup_ramv+0x20>)
 23fd1ee:	f001 fa7b 	bl	23fe6e8 <memcpy>
    __backup_sram_signature = signature;
 23fd1f2:	4b05      	ldr	r3, [pc, #20]	; (23fd208 <_Z33system_initialize_user_backup_ramv+0x24>)
 23fd1f4:	4a05      	ldr	r2, [pc, #20]	; (23fd20c <_Z33system_initialize_user_backup_ramv+0x28>)
 23fd1f6:	601a      	str	r2, [r3, #0]
}
 23fd1f8:	bd08      	pop	{r3, pc}
 23fd1fa:	bf00      	nop
 23fd1fc:	1007b400 	.word	0x1007b400
 23fd200:	1007b404 	.word	0x1007b404
 23fd204:	085ff6cc 	.word	0x085ff6cc
 23fd208:	1007b400 	.word	0x1007b400
 23fd20c:	9a271c1e 	.word	0x9a271c1e

023fd210 <_Z27ctrl_request_custom_handlerP12ctrl_request>:
    system_ctrl_set_result(req, SYSTEM_ERROR_NOT_SUPPORTED, nullptr, nullptr, nullptr);
 23fd210:	2300      	movs	r3, #0
void __attribute((weak)) ctrl_request_custom_handler(ctrl_request* req) {
 23fd212:	b507      	push	{r0, r1, r2, lr}
    system_ctrl_set_result(req, SYSTEM_ERROR_NOT_SUPPORTED, nullptr, nullptr, nullptr);
 23fd214:	461a      	mov	r2, r3
 23fd216:	f06f 0177 	mvn.w	r1, #119	; 0x77
 23fd21a:	9300      	str	r3, [sp, #0]
 23fd21c:	f7fe f87a 	bl	23fb314 <system_ctrl_set_result>
}
 23fd220:	b003      	add	sp, #12
 23fd222:	f85d fb04 	ldr.w	pc, [sp], #4
	...

023fd228 <_ZL20ctrl_request_handlerP12ctrl_request>:
static void ctrl_request_handler(ctrl_request* req) {
 23fd228:	b507      	push	{r0, r1, r2, lr}
    switch (req->type) {
 23fd22a:	8843      	ldrh	r3, [r0, #2]
 23fd22c:	2b0a      	cmp	r3, #10
 23fd22e:	d008      	beq.n	23fd242 <_ZL20ctrl_request_handlerP12ctrl_request+0x1a>
 23fd230:	2b50      	cmp	r3, #80	; 0x50
 23fd232:	d10b      	bne.n	23fd24c <_ZL20ctrl_request_handlerP12ctrl_request+0x24>
        if (log_process_ctrl_request_callback) {
 23fd234:	4b09      	ldr	r3, [pc, #36]	; (23fd25c <_ZL20ctrl_request_handlerP12ctrl_request+0x34>)
 23fd236:	681b      	ldr	r3, [r3, #0]
 23fd238:	b14b      	cbz	r3, 23fd24e <_ZL20ctrl_request_handlerP12ctrl_request+0x26>
}
 23fd23a:	b003      	add	sp, #12
 23fd23c:	f85d eb04 	ldr.w	lr, [sp], #4
            log_process_ctrl_request_callback(req);
 23fd240:	4718      	bx	r3
        ctrl_request_custom_handler(req);
 23fd242:	f7ff ffe5 	bl	23fd210 <_Z27ctrl_request_custom_handlerP12ctrl_request>
}
 23fd246:	b003      	add	sp, #12
 23fd248:	f85d fb04 	ldr.w	pc, [sp], #4
        system_ctrl_set_result(req, SYSTEM_ERROR_NOT_SUPPORTED, nullptr, nullptr, nullptr);
 23fd24c:	2300      	movs	r3, #0
 23fd24e:	461a      	mov	r2, r3
 23fd250:	f06f 0177 	mvn.w	r1, #119	; 0x77
 23fd254:	9300      	str	r3, [sp, #0]
 23fd256:	f7fe f85d 	bl	23fb314 <system_ctrl_set_result>
}
 23fd25a:	e7f4      	b.n	23fd246 <_ZL20ctrl_request_handlerP12ctrl_request+0x1e>
 23fd25c:	1007aec0 	.word	0x1007aec0

023fd260 <module_user_init_hook>:
    newlib_impure_ptr_callback([](struct _reent* r, size_t size, uint32_t version, void* ctx) -> void {
 23fd260:	2100      	movs	r1, #0
{
 23fd262:	b510      	push	{r4, lr}
    newlib_impure_ptr_callback([](struct _reent* r, size_t size, uint32_t version, void* ctx) -> void {
 23fd264:	4811      	ldr	r0, [pc, #68]	; (23fd2ac <module_user_init_hook+0x4c>)
 23fd266:	f7fe fa31 	bl	23fb6cc <newlib_impure_ptr_callback>
#endif // HAL_PLATFORM_NEWLIB

#if HAL_PLATFORM_BACKUP_RAM
    backup_ram_was_valid_ = __backup_sram_signature == signature;
 23fd26a:	4b11      	ldr	r3, [pc, #68]	; (23fd2b0 <module_user_init_hook+0x50>)
 23fd26c:	681a      	ldr	r2, [r3, #0]
 23fd26e:	4b11      	ldr	r3, [pc, #68]	; (23fd2b4 <module_user_init_hook+0x54>)
 23fd270:	429a      	cmp	r2, r3
 23fd272:	bf0c      	ite	eq
 23fd274:	2201      	moveq	r2, #1
 23fd276:	2200      	movne	r2, #0
 23fd278:	4b0f      	ldr	r3, [pc, #60]	; (23fd2b8 <module_user_init_hook+0x58>)
 23fd27a:	701a      	strb	r2, [r3, #0]
    if (!backup_ram_was_valid_) {
 23fd27c:	d001      	beq.n	23fd282 <module_user_init_hook+0x22>
        system_initialize_user_backup_ram();
 23fd27e:	f7ff ffb1 	bl	23fd1e4 <_Z33system_initialize_user_backup_ramv>
    }
#endif

#if HAL_PLATFORM_RNG
    // Initialize the default stdlib PRNG using hardware RNG as a seed
    const uint32_t seed = HAL_RNG_GetRandomNumber();
 23fd282:	f7fd fcab 	bl	23fabdc <HAL_RNG_GetRandomNumber>
 23fd286:	4604      	mov	r4, r0
    srand(seed);
 23fd288:	f001 fa5e 	bl	23fe748 <srand>

    // If the user defines random_seed_from_cloud, call it with a seed value
    // generated by a hardware RNG as well.
    if (random_seed_from_cloud) {
 23fd28c:	4b0b      	ldr	r3, [pc, #44]	; (23fd2bc <module_user_init_hook+0x5c>)
 23fd28e:	b113      	cbz	r3, 23fd296 <module_user_init_hook+0x36>
        random_seed_from_cloud(seed);
 23fd290:	4620      	mov	r0, r4
 23fd292:	e000      	b.n	23fd296 <module_user_init_hook+0x36>
 23fd294:	bf00      	nop
    }
#endif
    // Register the random_seed_from_cloud handler
    spark_set_random_seed_from_cloud_handler(&random_seed_from_cloud, nullptr);
 23fd296:	2100      	movs	r1, #0
 23fd298:	4808      	ldr	r0, [pc, #32]	; (23fd2bc <module_user_init_hook+0x5c>)
 23fd29a:	f7fe f91b 	bl	23fb4d4 <spark_set_random_seed_from_cloud_handler>

    // Register application handler for the control requests
    system_ctrl_set_app_request_handler(ctrl_request_handler, nullptr);
}
 23fd29e:	e8bd 4010 	ldmia.w	sp!, {r4, lr}
    system_ctrl_set_app_request_handler(ctrl_request_handler, nullptr);
 23fd2a2:	2100      	movs	r1, #0
 23fd2a4:	4806      	ldr	r0, [pc, #24]	; (23fd2c0 <module_user_init_hook+0x60>)
 23fd2a6:	f7fe b827 	b.w	23fb2f8 <system_ctrl_set_app_request_handler>
 23fd2aa:	bf00      	nop
 23fd2ac:	023fd175 	.word	0x023fd175
 23fd2b0:	1007b400 	.word	0x1007b400
 23fd2b4:	9a271c1e 	.word	0x9a271c1e
 23fd2b8:	1007aebc 	.word	0x1007aebc
 23fd2bc:	00000000 	.word	0x00000000
 23fd2c0:	023fd229 	.word	0x023fd229

023fd2c4 <_ZNSt15_Sp_counted_ptrIPN8particle6detail10FutureImplIbNS1_13FutureContextEEELN9__gnu_cxx12_Lock_policyE0EED1Ev>:
    class _Sp_counted_ptr final : public _Sp_counted_base<_Lp>
 23fd2c4:	4770      	bx	lr

023fd2c6 <_ZNSt15_Sp_counted_ptrIPN8particle6detail10FutureImplIbNS1_13FutureContextEEELN9__gnu_cxx12_Lock_policyE0EE14_M_get_deleterERKSt9type_info>:
      { return nullptr; }
 23fd2c6:	2000      	movs	r0, #0
 23fd2c8:	4770      	bx	lr

023fd2ca <_ZNSt15_Sp_counted_ptrIPN8particle6detail10FutureImplIbNS1_13FutureContextEEELN9__gnu_cxx12_Lock_policyE0EED0Ev>:
    class _Sp_counted_ptr final : public _Sp_counted_base<_Lp>
 23fd2ca:	b510      	push	{r4, lr}
 23fd2cc:	4604      	mov	r4, r0
 23fd2ce:	2110      	movs	r1, #16
 23fd2d0:	f7fb fbf3 	bl	23f8aba <_ZdlPvj>
 23fd2d4:	4620      	mov	r0, r4
 23fd2d6:	bd10      	pop	{r4, pc}

023fd2d8 <_ZNSt15_Sp_counted_ptrIPN8particle6detail10FutureImplIbNS1_13FutureContextEEELN9__gnu_cxx12_Lock_policyE0EE10_M_destroyEv>:
      _M_destroy() noexcept
 23fd2d8:	b508      	push	{r3, lr}
      { delete this; }
 23fd2da:	f7ff fff6 	bl	23fd2ca <_ZNSt15_Sp_counted_ptrIPN8particle6detail10FutureImplIbNS1_13FutureContextEEELN9__gnu_cxx12_Lock_policyE0EED0Ev>
 23fd2de:	bd08      	pop	{r3, pc}

023fd2e0 <_ZN8particle5ErrorC1EOS0_>:

} // namespace particle

inline particle::Error::Error(Type type) :
        msg_(nullptr),
        type_(type) {
 23fd2e0:	2200      	movs	r2, #0

inline particle::Error::Error(const Error& error) :
        Error(error.type_, error.msg_) {
}

inline particle::Error::Error(Error&& error) :
 23fd2e2:	b530      	push	{r4, r5, lr}
        type_(type) {
 23fd2e4:	f64f 749c 	movw	r4, #65436	; 0xff9c
 23fd2e8:	6002      	str	r2, [r0, #0]
 23fd2ea:	8084      	strh	r4, [r0, #4]
 23fd2ec:	888d      	ldrh	r5, [r1, #4]
      __b = _GLIBCXX_MOVE(__tmp);
 23fd2ee:	808c      	strh	r4, [r1, #4]
      __a = _GLIBCXX_MOVE(__b);
 23fd2f0:	680c      	ldr	r4, [r1, #0]
 23fd2f2:	8085      	strh	r5, [r0, #4]
 23fd2f4:	6004      	str	r4, [r0, #0]
      __b = _GLIBCXX_MOVE(__tmp);
 23fd2f6:	600a      	str	r2, [r1, #0]
        Error() {
    swap(*this, error);
}
 23fd2f8:	bd30      	pop	{r4, r5, pc}

023fd2fa <_ZN8particle5ErrorD1Ev>:

inline particle::Error::~Error() {
 23fd2fa:	b510      	push	{r4, lr}
 23fd2fc:	4604      	mov	r4, r0
    free((void*)msg_);
 23fd2fe:	6800      	ldr	r0, [r0, #0]
 23fd300:	f7fe f982 	bl	23fb608 <free>
}
 23fd304:	4620      	mov	r0, r4
 23fd306:	bd10      	pop	{r4, pc}

023fd308 <_ZNSt15_Sp_counted_ptrIPN8particle6detail10FutureImplIbNS1_13FutureContextEEELN9__gnu_cxx12_Lock_policyE0EE10_M_disposeEv>:
      _M_dispose() noexcept
 23fd308:	b538      	push	{r3, r4, r5, lr}
      { delete _M_ptr; }
 23fd30a:	68c4      	ldr	r4, [r0, #12]
 23fd30c:	b314      	cbz	r4, 23fd354 <_ZNSt15_Sp_counted_ptrIPN8particle6detail10FutureImplIbNS1_13FutureContextEEELN9__gnu_cxx12_Lock_policyE0EE10_M_disposeEv+0x4c>
      _Tp
      load(memory_order __m = memory_order_seq_cst) const noexcept
      {
	alignas(_Tp) unsigned char __buf[sizeof(_Tp)];
	_Tp* __ptr = reinterpret_cast<_Tp*>(__buf);
	__atomic_load(std::__addressof(_M_i), __ptr, int(__m));
 23fd30e:	7823      	ldrb	r3, [r4, #0]
 23fd310:	b2db      	uxtb	r3, r3
    ~FutureImpl() {
        // Call destructor of the appropriate unnamed enum's field
        const State s = this->state();
        if (s == State::SUCCEEDED) {
            result_.~ResultT();
        } else if (s == State::FAILED) {
 23fd312:	2b02      	cmp	r3, #2
 23fd314:	d103      	bne.n	23fd31e <_ZNSt15_Sp_counted_ptrIPN8particle6detail10FutureImplIbNS1_13FutureContextEEELN9__gnu_cxx12_Lock_policyE0EE10_M_disposeEv+0x16>
            error_.~Error();
 23fd316:	f104 000c 	add.w	r0, r4, #12
 23fd31a:	f7ff ffee 	bl	23fd2fa <_ZN8particle5ErrorD1Ev>
      {
	memory_order __b = __m & __memory_order_mask;
	__glibcxx_assert(__b != memory_order_release);
	__glibcxx_assert(__b != memory_order_acq_rel);

	return __atomic_load_n(&_M_p, int(__m));
 23fd31e:	1d23      	adds	r3, r4, #4
 23fd320:	681d      	ldr	r5, [r3, #0]
        delete onSuccess_.load(std::memory_order_relaxed);
 23fd322:	b135      	cbz	r5, 23fd332 <_ZNSt15_Sp_counted_ptrIPN8particle6detail10FutureImplIbNS1_13FutureContextEEELN9__gnu_cxx12_Lock_policyE0EE10_M_disposeEv+0x2a>
   *  @ingroup functors
   *
   *  Polymorphic function wrapper.
   */
  template<typename _Res, typename... _ArgTypes>
    class function<_Res(_ArgTypes...)>
 23fd324:	4628      	mov	r0, r5
 23fd326:	f7fe fac9 	bl	23fb8bc <_ZNSt14_Function_baseD1Ev>
 23fd32a:	2110      	movs	r1, #16
 23fd32c:	4628      	mov	r0, r5
 23fd32e:	f7fb fbc4 	bl	23f8aba <_ZdlPvj>
 23fd332:	f104 0308 	add.w	r3, r4, #8
 23fd336:	681d      	ldr	r5, [r3, #0]
        delete onError_.load(std::memory_order_relaxed);
 23fd338:	b135      	cbz	r5, 23fd348 <_ZNSt15_Sp_counted_ptrIPN8particle6detail10FutureImplIbNS1_13FutureContextEEELN9__gnu_cxx12_Lock_policyE0EE10_M_disposeEv+0x40>
 23fd33a:	4628      	mov	r0, r5
 23fd33c:	f7fe fabe 	bl	23fb8bc <_ZNSt14_Function_baseD1Ev>
 23fd340:	2110      	movs	r1, #16
 23fd342:	4628      	mov	r0, r5
 23fd344:	f7fb fbb9 	bl	23f8aba <_ZdlPvj>
 23fd348:	4620      	mov	r0, r4
 23fd34a:	e8bd 4038 	ldmia.w	sp!, {r3, r4, r5, lr}
 23fd34e:	2114      	movs	r1, #20
 23fd350:	f7fb bbb3 	b.w	23f8aba <_ZdlPvj>
 23fd354:	bd38      	pop	{r3, r4, r5, pc}

023fd356 <_ZNSt12__shared_ptrIN8particle6detail10FutureImplIbNS1_13FutureContextEEELN9__gnu_cxx12_Lock_policyE0EEC1ERKS7_>:
      __shared_ptr(const __shared_ptr&) noexcept = default;
 23fd356:	680b      	ldr	r3, [r1, #0]
 23fd358:	6003      	str	r3, [r0, #0]
      : _M_pi(__r._M_pi)
 23fd35a:	684b      	ldr	r3, [r1, #4]
 23fd35c:	6043      	str	r3, [r0, #4]
	if (_M_pi != 0)
 23fd35e:	b113      	cbz	r3, 23fd366 <_ZNSt12__shared_ptrIN8particle6detail10FutureImplIbNS1_13FutureContextEEELN9__gnu_cxx12_Lock_policyE0EEC1ERKS7_+0x10>
    { ++_M_use_count; }
 23fd360:	685a      	ldr	r2, [r3, #4]
 23fd362:	3201      	adds	r2, #1
 23fd364:	605a      	str	r2, [r3, #4]
      __shared_ptr(const __shared_ptr&) noexcept = default;
 23fd366:	4770      	bx	lr

023fd368 <_ZN8particle11PromiseBaseIbNS_6detail13FutureContextEE11fromDataPtrEPv>:
        // TODO: Use custom reference counting object to avoid unnecessary memory allocation
        return new detail::FutureImplPtr<ResultT, ContextT>(p_);
    }

    // Unwraps promise from an object pointer created via dataPtr() method
    static Promise<ResultT, ContextT> fromDataPtr(void* data) {
 23fd368:	b537      	push	{r0, r1, r2, r4, r5, lr}
 23fd36a:	4604      	mov	r4, r0
 23fd36c:	4668      	mov	r0, sp
 23fd36e:	460d      	mov	r5, r1
 23fd370:	f7ff fff1 	bl	23fd356 <_ZNSt12__shared_ptrIN8particle6detail10FutureImplIbNS1_13FutureContextEEELN9__gnu_cxx12_Lock_policyE0EEC1ERKS7_>
      : _M_ptr(__r._M_ptr), _M_refcount()
 23fd374:	9b00      	ldr	r3, [sp, #0]
	_Sp_counted_base<_Lp>* __tmp = __r._M_pi;
 23fd376:	9a01      	ldr	r2, [sp, #4]
      : _M_ptr(__r._M_ptr), _M_refcount()
 23fd378:	6023      	str	r3, [r4, #0]
	__r._M_pi = _M_pi;
 23fd37a:	2300      	movs	r3, #0
	_M_pi = __tmp;
 23fd37c:	6062      	str	r2, [r4, #4]
      ~__shared_ptr() = default;
 23fd37e:	a801      	add	r0, sp, #4
	__r._M_pi = _M_pi;
 23fd380:	9301      	str	r3, [sp, #4]
	__r._M_ptr = 0;
 23fd382:	9300      	str	r3, [sp, #0]
      ~__shared_ptr() = default;
 23fd384:	f7fb fc0c 	bl	23f8ba0 <_ZNSt14__shared_countILN9__gnu_cxx12_Lock_policyE0EED1Ev>
        auto d = static_cast<detail::FutureImplPtr<ResultT, ContextT>*>(data);
        const Promise<ResultT, ContextT> p(*d);
        delete d;
 23fd388:	b135      	cbz	r5, 23fd398 <_ZN8particle11PromiseBaseIbNS_6detail13FutureContextEE11fromDataPtrEPv+0x30>
 23fd38a:	1d28      	adds	r0, r5, #4
 23fd38c:	f7fb fc08 	bl	23f8ba0 <_ZNSt14__shared_countILN9__gnu_cxx12_Lock_policyE0EED1Ev>
 23fd390:	2108      	movs	r1, #8
 23fd392:	4628      	mov	r0, r5
 23fd394:	f7fb fb91 	bl	23f8aba <_ZdlPvj>
        return p;
    }
 23fd398:	4620      	mov	r0, r4
 23fd39a:	b003      	add	sp, #12
 23fd39c:	bd30      	pop	{r4, r5, pc}

023fd39e <_ZNKSt8functionIFvRKN8particle5ErrorEEEclES3_>:
  template<typename _Res, typename... _ArgTypes>
    _Res
    function<_Res(_ArgTypes...)>::
    operator()(_ArgTypes... __args) const
    {
      if (_M_empty())
 23fd39e:	6882      	ldr	r2, [r0, #8]
    function<_Res(_ArgTypes...)>::
 23fd3a0:	b510      	push	{r4, lr}
      if (_M_empty())
 23fd3a2:	b90a      	cbnz	r2, 23fd3a8 <_ZNKSt8functionIFvRKN8particle5ErrorEEEclES3_+0xa>
	__throw_bad_function_call();
 23fd3a4:	f001 f87d 	bl	23fe4a2 <_ZSt25__throw_bad_function_callv>
      return _M_invoker(_M_functor, std::forward<_ArgTypes>(__args)...);
 23fd3a8:	68c3      	ldr	r3, [r0, #12]
    }
 23fd3aa:	e8bd 4010 	ldmia.w	sp!, {r4, lr}
      return _M_invoker(_M_functor, std::forward<_ArgTypes>(__args)...);
 23fd3ae:	4718      	bx	r3

023fd3b0 <_ZNSt17_Function_handlerIFvvESt5_BindIFSt8functionIFvRKN8particle5ErrorEEES4_EEE9_M_invokeERKSt9_Any_data>:
      _M_invoke(const _Any_data& __functor, _ArgTypes&&... __args)
 23fd3b0:	b508      	push	{r3, lr}
	    return __source._M_access<_Functor*>();
 23fd3b2:	6800      	ldr	r0, [r0, #0]
    { return static_cast<_Up&&>(__t); }

  template<typename _Res, typename _Fn, typename... _Args>
    constexpr _Res
    __invoke_impl(__invoke_other, _Fn&& __f, _Args&&... __args)
    { return std::forward<_Fn>(__f)(std::forward<_Args>(__args)...); }
 23fd3b4:	f100 0110 	add.w	r1, r0, #16
 23fd3b8:	f7ff fff1 	bl	23fd39e <_ZNKSt8functionIFvRKN8particle5ErrorEEEclES3_>
      }
 23fd3bc:	bd08      	pop	{r3, pc}

023fd3be <_ZNKSt8functionIFvRKbEEclES1_>:
      if (_M_empty())
 23fd3be:	6882      	ldr	r2, [r0, #8]
    function<_Res(_ArgTypes...)>::
 23fd3c0:	b510      	push	{r4, lr}
      if (_M_empty())
 23fd3c2:	b90a      	cbnz	r2, 23fd3c8 <_ZNKSt8functionIFvRKbEEclES1_+0xa>
	__throw_bad_function_call();
 23fd3c4:	f001 f86d 	bl	23fe4a2 <_ZSt25__throw_bad_function_callv>
      return _M_invoker(_M_functor, std::forward<_ArgTypes>(__args)...);
 23fd3c8:	68c3      	ldr	r3, [r0, #12]
    }
 23fd3ca:	e8bd 4010 	ldmia.w	sp!, {r4, lr}
      return _M_invoker(_M_functor, std::forward<_ArgTypes>(__args)...);
 23fd3ce:	4718      	bx	r3

023fd3d0 <_ZNSt17_Function_handlerIFvvESt5_BindIFSt8functionIFvRKbEEbEEE9_M_invokeERKSt9_Any_data>:
      _M_invoke(const _Any_data& __functor, _ArgTypes&&... __args)
 23fd3d0:	b508      	push	{r3, lr}
	    return __source._M_access<_Functor*>();
 23fd3d2:	6800      	ldr	r0, [r0, #0]
 23fd3d4:	f100 0110 	add.w	r1, r0, #16
 23fd3d8:	f7ff fff1 	bl	23fd3be <_ZNKSt8functionIFvRKbEEclES1_>
      }
 23fd3dc:	bd08      	pop	{r3, pc}
	...

023fd3e0 <_ZNSt14__shared_countILN9__gnu_cxx12_Lock_policyE0EEC1IPN8particle6detail10FutureImplIbNS5_13FutureContextEEEEET_>:
	__shared_count(_Ptr __p) : _M_pi(0)
 23fd3e0:	b538      	push	{r3, r4, r5, lr}
 23fd3e2:	2300      	movs	r3, #0
 23fd3e4:	4604      	mov	r4, r0
 23fd3e6:	6003      	str	r3, [r0, #0]
	      _M_pi = new _Sp_counted_ptr<_Ptr, _Lp>(__p);
 23fd3e8:	2010      	movs	r0, #16
	__shared_count(_Ptr __p) : _M_pi(0)
 23fd3ea:	460d      	mov	r5, r1
	      _M_pi = new _Sp_counted_ptr<_Ptr, _Lp>(__p);
 23fd3ec:	f7fb fb5f 	bl	23f8aae <_Znwj>
 23fd3f0:	b128      	cbz	r0, 23fd3fe <_ZNSt14__shared_countILN9__gnu_cxx12_Lock_policyE0EEC1IPN8particle6detail10FutureImplIbNS5_13FutureContextEEEEET_+0x1e>
      : _M_use_count(1), _M_weak_count(1) { }
 23fd3f2:	2301      	movs	r3, #1
 23fd3f4:	e9c0 3301 	strd	r3, r3, [r0, #4]
      : _M_ptr(__p) { }
 23fd3f8:	4b02      	ldr	r3, [pc, #8]	; (23fd404 <_ZNSt14__shared_countILN9__gnu_cxx12_Lock_policyE0EEC1IPN8particle6detail10FutureImplIbNS5_13FutureContextEEEEET_+0x24>)
 23fd3fa:	60c5      	str	r5, [r0, #12]
 23fd3fc:	6003      	str	r3, [r0, #0]
	      _M_pi = new _Sp_counted_ptr<_Ptr, _Lp>(__p);
 23fd3fe:	6020      	str	r0, [r4, #0]
	}
 23fd400:	4620      	mov	r0, r4
 23fd402:	bd38      	pop	{r3, r4, r5, pc}
 23fd404:	023ffc14 	.word	0x023ffc14

023fd408 <_ZNSt8functionIFvRKN8particle5ErrorEEEC1ERKS5_>:
    function<_Res(_ArgTypes...)>::
 23fd408:	b538      	push	{r3, r4, r5, lr}
    _Function_base() : _M_manager(nullptr) { }
 23fd40a:	2300      	movs	r3, #0
 23fd40c:	6083      	str	r3, [r0, #8]
    bool _M_empty() const { return !_M_manager; }
 23fd40e:	688b      	ldr	r3, [r1, #8]
    function<_Res(_ArgTypes...)>::
 23fd410:	4604      	mov	r4, r0
 23fd412:	460d      	mov	r5, r1
      if (static_cast<bool>(__x))
 23fd414:	b12b      	cbz	r3, 23fd422 <_ZNSt8functionIFvRKN8particle5ErrorEEEC1ERKS5_+0x1a>
	  __x._M_manager(_M_functor, __x._M_functor, __clone_functor);
 23fd416:	2202      	movs	r2, #2
 23fd418:	4798      	blx	r3
	  _M_invoker = __x._M_invoker;
 23fd41a:	68eb      	ldr	r3, [r5, #12]
 23fd41c:	60e3      	str	r3, [r4, #12]
	  _M_manager = __x._M_manager;
 23fd41e:	68ab      	ldr	r3, [r5, #8]
 23fd420:	60a3      	str	r3, [r4, #8]
    }
 23fd422:	4620      	mov	r0, r4
 23fd424:	bd38      	pop	{r3, r4, r5, pc}
	...

023fd428 <_ZN8particle11PromiseBaseIbNS_6detail13FutureContextEE8setErrorENS_5ErrorE>:
    void setError(Error error) {
 23fd428:	b5f0      	push	{r4, r5, r6, r7, lr}
 23fd42a:	b089      	sub	sp, #36	; 0x24
      { return _M_ptr; }
 23fd42c:	6804      	ldr	r4, [r0, #0]
        p_->setError(std::move(error));
 23fd42e:	4668      	mov	r0, sp
 23fd430:	f7ff ff56 	bl	23fd2e0 <_ZN8particle5ErrorC1EOS0_>

      bool
      compare_exchange_strong(_Tp& __e, _Tp __i, memory_order __s,
			      memory_order __f) noexcept
      {
	return __atomic_compare_exchange(std::__addressof(_M_i),
 23fd434:	f04f 0302 	mov.w	r3, #2
 23fd438:	e8d4 2f4f 	ldrexb	r2, [r4]
 23fd43c:	2a00      	cmp	r2, #0
 23fd43e:	d103      	bne.n	23fd448 <_ZN8particle11PromiseBaseIbNS_6detail13FutureContextEE8setErrorENS_5ErrorE+0x20>
 23fd440:	e8c4 3f41 	strexb	r1, r3, [r4]
 23fd444:	2900      	cmp	r1, #0
 23fd446:	d1f7      	bne.n	23fd438 <_ZN8particle11PromiseBaseIbNS_6detail13FutureContextEE8setErrorENS_5ErrorE+0x10>
        if (this->changeState(State::FAILED)) {
 23fd448:	d121      	bne.n	23fd48e <_ZN8particle11PromiseBaseIbNS_6detail13FutureContextEE8setErrorENS_5ErrorE+0x66>
            new(&error_) Error(std::move(error));
 23fd44a:	f104 050c 	add.w	r5, r4, #12
 23fd44e:	4669      	mov	r1, sp
 23fd450:	4628      	mov	r0, r5
 23fd452:	f7ff ff45 	bl	23fd2e0 <_ZN8particle5ErrorC1EOS0_>
	__atomic_store_n(&_M_i, __i, int(__m));
 23fd456:	2201      	movs	r2, #1
 23fd458:	1c63      	adds	r3, r4, #1
 23fd45a:	e8c3 2f8f 	stlb	r2, [r3]

      _GLIBCXX_ALWAYS_INLINE __pointer_type
      exchange(__pointer_type __p,
	       memory_order __m = memory_order_seq_cst) noexcept
      {
	return __atomic_exchange_n(&_M_p, __p, int(__m));
 23fd45e:	2000      	movs	r0, #0
 23fd460:	f104 0308 	add.w	r3, r4, #8
 23fd464:	e8d3 6fef 	ldaex	r6, [r3]
 23fd468:	e8c3 0fe2 	stlex	r2, r0, [r3]
 23fd46c:	2a00      	cmp	r2, #0
 23fd46e:	d1f9      	bne.n	23fd464 <_ZN8particle11PromiseBaseIbNS_6detail13FutureContextEE8setErrorENS_5ErrorE+0x3c>
        if (callbackPtr) {
 23fd470:	b16e      	cbz	r6, 23fd48e <_ZN8particle11PromiseBaseIbNS_6detail13FutureContextEE8setErrorENS_5ErrorE+0x66>
        return (application_thread_current(nullptr) != 0);
 23fd472:	f7fd ff25 	bl	23fb2c0 <application_thread_current>
        if (ContextT::isApplicationThreadCurrent()) {
 23fd476:	b178      	cbz	r0, 23fd498 <_ZN8particle11PromiseBaseIbNS_6detail13FutureContextEE8setErrorENS_5ErrorE+0x70>
            callback(std::forward<ArgsT>(args)...); // Synchronous call
 23fd478:	4629      	mov	r1, r5
 23fd47a:	4630      	mov	r0, r6
 23fd47c:	f7ff ff8f 	bl	23fd39e <_ZNKSt8functionIFvRKN8particle5ErrorEEEclES3_>
    class function<_Res(_ArgTypes...)>
 23fd480:	4630      	mov	r0, r6
 23fd482:	f7fe fa1b 	bl	23fb8bc <_ZNSt14_Function_baseD1Ev>
            delete callbackPtr;
 23fd486:	2110      	movs	r1, #16
 23fd488:	4630      	mov	r0, r6
 23fd48a:	f7fb fb16 	bl	23f8aba <_ZdlPvj>
        p_->setError(std::move(error));
 23fd48e:	4668      	mov	r0, sp
 23fd490:	f7ff ff33 	bl	23fd2fa <_ZN8particle5ErrorD1Ev>
    }
 23fd494:	b009      	add	sp, #36	; 0x24
 23fd496:	bdf0      	pop	{r4, r5, r6, r7, pc}

     public:
      template<typename... _Args>
	explicit _GLIBCXX20_CONSTEXPR
	_Bind(const _Functor& __f, _Args&&... __args)
	: _M_f(__f), _M_bound_args(std::forward<_Args>(__args)...)
 23fd498:	4631      	mov	r1, r6
 23fd49a:	a802      	add	r0, sp, #8
 23fd49c:	f7ff ffb4 	bl	23fd408 <_ZNSt8functionIFvRKN8particle5ErrorEEEC1ERKS5_>
        Error(error.type_, error.msg_) {
 23fd4a0:	68e0      	ldr	r0, [r4, #12]
 23fd4a2:	f9b4 5010 	ldrsh.w	r5, [r4, #16]
        msg_(msg ? (const char*)strdup(msg) : nullptr),
 23fd4a6:	b108      	cbz	r0, 23fd4ac <_ZN8particle11PromiseBaseIbNS_6detail13FutureContextEE8setErrorENS_5ErrorE+0x84>
 23fd4a8:	f001 f99c 	bl	23fe7e4 <strdup>
        type_(type) {
 23fd4ac:	9006      	str	r0, [sp, #24]
            auto callbackPtr = new std::function<void()>(std::bind(callback, std::forward<ArgsT>(args)...));
 23fd4ae:	2010      	movs	r0, #16
 23fd4b0:	f8ad 501c 	strh.w	r5, [sp, #28]
 23fd4b4:	f7fb fafb 	bl	23f8aae <_Znwj>
 23fd4b8:	4605      	mov	r5, r0
 23fd4ba:	b1e8      	cbz	r0, 23fd4f8 <_ZN8particle11PromiseBaseIbNS_6detail13FutureContextEE8setErrorENS_5ErrorE+0xd0>
    _Function_base() : _M_manager(nullptr) { }
 23fd4bc:	2700      	movs	r7, #0
 23fd4be:	6087      	str	r7, [r0, #8]
	{ __functor._M_access<_Functor*>() = new _Functor(std::move(__f)); }
 23fd4c0:	2018      	movs	r0, #24
 23fd4c2:	f7fb faf4 	bl	23f8aae <_Znwj>
 23fd4c6:	4604      	mov	r4, r0
 23fd4c8:	b188      	cbz	r0, 23fd4ee <_ZN8particle11PromiseBaseIbNS_6detail13FutureContextEE8setErrorENS_5ErrorE+0xc6>
	std::swap(_M_functor, __x._M_functor);
 23fd4ca:	4601      	mov	r1, r0
    _Function_base() : _M_manager(nullptr) { }
 23fd4cc:	6087      	str	r7, [r0, #8]
	std::swap(_M_functor, __x._M_functor);
 23fd4ce:	a802      	add	r0, sp, #8
 23fd4d0:	f7fe fc47 	bl	23fbd62 <_ZSt4swapISt9_Any_dataENSt9enable_ifIXsrSt6__and_IJSt6__not_ISt15__is_tuple_likeIT_EESt21is_move_constructibleIS5_ESt18is_move_assignableIS5_EEE5valueEvE4typeERS5_SF_>
      _Tp __tmp = _GLIBCXX_MOVE(__a);
 23fd4d4:	9b04      	ldr	r3, [sp, #16]
      __a = _GLIBCXX_MOVE(__b);
 23fd4d6:	68a2      	ldr	r2, [r4, #8]
      __b = _GLIBCXX_MOVE(__tmp);
 23fd4d8:	60a3      	str	r3, [r4, #8]
      _Tp __tmp = _GLIBCXX_MOVE(__a);
 23fd4da:	9b05      	ldr	r3, [sp, #20]
      __a = _GLIBCXX_MOVE(__b);
 23fd4dc:	9204      	str	r2, [sp, #16]
 23fd4de:	68e2      	ldr	r2, [r4, #12]
      constexpr _Head_base(const _Head_base&) = default;
      constexpr _Head_base(_Head_base&&) = default;

      template<typename _UHead>
        constexpr _Head_base(_UHead&& __h)
	: _M_head_impl(std::forward<_UHead>(__h)) { }
 23fd4e0:	a906      	add	r1, sp, #24
      __b = _GLIBCXX_MOVE(__tmp);
 23fd4e2:	60e3      	str	r3, [r4, #12]
 23fd4e4:	f104 0010 	add.w	r0, r4, #16
      __a = _GLIBCXX_MOVE(__b);
 23fd4e8:	9205      	str	r2, [sp, #20]
 23fd4ea:	f7ff fef9 	bl	23fd2e0 <_ZN8particle5ErrorC1EOS0_>
	    _M_invoker = &_My_handler::_M_invoke;
 23fd4ee:	4b08      	ldr	r3, [pc, #32]	; (23fd510 <_ZN8particle11PromiseBaseIbNS_6detail13FutureContextEE8setErrorENS_5ErrorE+0xe8>)
	{ __functor._M_access<_Functor*>() = new _Functor(std::move(__f)); }
 23fd4f0:	602c      	str	r4, [r5, #0]
	    _M_invoker = &_My_handler::_M_invoke;
 23fd4f2:	60eb      	str	r3, [r5, #12]
	    _M_manager = &_My_handler::_M_manager;
 23fd4f4:	4b07      	ldr	r3, [pc, #28]	; (23fd514 <_ZN8particle11PromiseBaseIbNS_6detail13FutureContextEE8setErrorENS_5ErrorE+0xec>)
 23fd4f6:	60ab      	str	r3, [r5, #8]
    struct _Head_base<_Idx, _Head, false>
 23fd4f8:	a806      	add	r0, sp, #24
 23fd4fa:	f7ff fefe 	bl	23fd2fa <_ZN8particle5ErrorD1Ev>
    class function<_Res(_ArgTypes...)>
 23fd4fe:	a802      	add	r0, sp, #8
 23fd500:	f7fe f9dc 	bl	23fb8bc <_ZNSt14_Function_baseD1Ev>
        return (application_thread_invoke(callback, data, nullptr) == 0);
 23fd504:	2200      	movs	r2, #0
 23fd506:	4629      	mov	r1, r5
 23fd508:	4803      	ldr	r0, [pc, #12]	; (23fd518 <_ZN8particle11PromiseBaseIbNS_6detail13FutureContextEE8setErrorENS_5ErrorE+0xf0>)
 23fd50a:	f7fd fee7 	bl	23fb2dc <application_thread_invoke>
 23fd50e:	e7b7      	b.n	23fd480 <_ZN8particle11PromiseBaseIbNS_6detail13FutureContextEE8setErrorENS_5ErrorE+0x58>
 23fd510:	023fd3b1 	.word	0x023fd3b1
 23fd514:	023fd62d 	.word	0x023fd62d
 23fd518:	023fdb03 	.word	0x023fdb03

023fd51c <_ZN10CloudClass13publish_eventEPKcS1_iN8particle5FlagsI15PublishFlagTypehEE>:
    desc.data = (void*)data;
    desc.funcKey = funcKey;
    return spark_function(NULL, (user_function_int_str_t*)&desc, NULL);
}

Future<bool> CloudClass::publish_event(const char *eventName, const char *eventData, int ttl, PublishFlags flags) {
 23fd51c:	e92d 4ff0 	stmdb	sp!, {r4, r5, r6, r7, r8, r9, sl, fp, lr}
 23fd520:	b08b      	sub	sp, #44	; 0x2c
 23fd522:	4605      	mov	r5, r0
 23fd524:	460f      	mov	r7, r1
 23fd526:	4690      	mov	r8, r2
 23fd528:	4699      	mov	r9, r3
 23fd52a:	f89d a050 	ldrb.w	sl, [sp, #80]	; 0x50
    static void sleep(Spark_Sleep_TypeDef sleepMode, long seconds=0) __attribute__ ((deprecated("Please use System.sleep() instead.")))
    { SystemClass::sleep(sleepMode, seconds); }
    static void sleep(uint16_t wakeUpPin, InterruptMode edgeTriggerMode, long seconds=0) __attribute__ ((deprecated("Please use System.sleep() instead.")))
    { SystemClass::sleep(wakeUpPin, edgeTriggerMode, seconds); }

    static bool connected(void) { return spark_cloud_flag_connected(); }
 23fd52e:	f7fd ffb5 	bl	23fb49c <spark_cloud_flag_connected>
 23fd532:	ae07      	add	r6, sp, #28
    if (!connected()) {
 23fd534:	4683      	mov	fp, r0
 23fd536:	bb38      	cbnz	r0, 23fd588 <_ZN10CloudClass13publish_eventEPKcS1_iN8particle5FlagsI15PublishFlagTypehEE+0x6c>
        type_(type) {
 23fd538:	f64f 732e 	movw	r3, #65326	; 0xff2e
 23fd53c:	9005      	str	r0, [sp, #20]
    typedef typename detail::FutureImpl<ResultT, ContextT>::OnSuccessCallback OnSuccessCallback;
    typedef typename detail::FutureImpl<ResultT, ContextT>::OnErrorCallback OnErrorCallback;

    // Construct failed future
    explicit FutureBase(Error error) :
            p_(new detail::FutureImpl<ResultT, ContextT>(std::move(error))) {
 23fd53e:	a905      	add	r1, sp, #20
 23fd540:	4630      	mov	r0, r6
 23fd542:	f8ad 3018 	strh.w	r3, [sp, #24]
 23fd546:	f7ff fecb 	bl	23fd2e0 <_ZN8particle5ErrorC1EOS0_>
 23fd54a:	2014      	movs	r0, #20
 23fd54c:	f7fb faaf 	bl	23f8aae <_Znwj>
 23fd550:	4604      	mov	r4, r0
 23fd552:	b148      	cbz	r0, 23fd568 <_ZN10CloudClass13publish_eventEPKcS1_iN8particle5FlagsI15PublishFlagTypehEE+0x4c>
      constexpr atomic(_Tp __i) noexcept : _M_i(__i) { }
 23fd554:	2302      	movs	r3, #2
 23fd556:	7003      	strb	r3, [r0, #0]
      constexpr __atomic_base(__int_type __i) noexcept : _M_i (__i) { }
 23fd558:	2301      	movs	r3, #1
      constexpr __atomic_base(__pointer_type __p) noexcept : _M_p (__p) { }
 23fd55a:	e9c0 bb01 	strd	fp, fp, [r0, #4]
      constexpr __atomic_base(__int_type __i) noexcept : _M_i (__i) { }
 23fd55e:	7043      	strb	r3, [r0, #1]
            error_(std::move(error)) {
 23fd560:	4631      	mov	r1, r6
 23fd562:	300c      	adds	r0, #12
 23fd564:	f7ff febc 	bl	23fd2e0 <_ZN8particle5ErrorC1EOS0_>
	: _M_ptr(__p), _M_refcount(__p, typename is_array<_Tp>::type())
 23fd568:	4628      	mov	r0, r5
	: __shared_count(__p)
 23fd56a:	4621      	mov	r1, r4
	: _M_ptr(__p), _M_refcount(__p, typename is_array<_Tp>::type())
 23fd56c:	f840 4b04 	str.w	r4, [r0], #4
	: __shared_count(__p)
 23fd570:	f7ff ff36 	bl	23fd3e0 <_ZNSt14__shared_countILN9__gnu_cxx12_Lock_policyE0EEC1IPN8particle6detail10FutureImplIbNS5_13FutureContextEEEEET_>
            p_(new detail::FutureImpl<ResultT, ContextT>(std::move(error))) {
 23fd574:	4630      	mov	r0, r6
 23fd576:	f7ff fec0 	bl	23fd2fa <_ZN8particle5ErrorD1Ev>
    }

    explicit FutureBase(Error::Type error) :
            FutureBase(Error(error)) {
 23fd57a:	a805      	add	r0, sp, #20
 23fd57c:	f7ff febd 	bl	23fd2fa <_ZN8particle5ErrorD1Ev>
        p.setError(Error::UNKNOWN);
        p.fromDataPtr(d.handler_data); // Free wrapper object
    }

    return p.future();
}
 23fd580:	4628      	mov	r0, r5
 23fd582:	b00b      	add	sp, #44	; 0x2c
 23fd584:	e8bd 8ff0 	ldmia.w	sp!, {r4, r5, r6, r7, r8, r9, sl, fp, pc}
    d.size = sizeof(spark_send_event_data);
 23fd588:	230c      	movs	r3, #12
    spark_send_event_data d = {};
 23fd58a:	2400      	movs	r4, #0
            p_(new detail::FutureImpl<ResultT, ContextT>(State::RUNNING)) {
 23fd58c:	2014      	movs	r0, #20
 23fd58e:	e9cd 4408 	strd	r4, r4, [sp, #32]
    d.size = sizeof(spark_send_event_data);
 23fd592:	9307      	str	r3, [sp, #28]
 23fd594:	f7fb fa8b 	bl	23f8aae <_Znwj>
 23fd598:	4601      	mov	r1, r0
 23fd59a:	b118      	cbz	r0, 23fd5a4 <_ZN10CloudClass13publish_eventEPKcS1_iN8particle5FlagsI15PublishFlagTypehEE+0x88>
      constexpr __atomic_base(__pointer_type __p) noexcept : _M_p (__p) { }
 23fd59c:	e9c0 4401 	strd	r4, r4, [r0, #4]
 23fd5a0:	7004      	strb	r4, [r0, #0]
      constexpr __atomic_base(__int_type __i) noexcept : _M_i (__i) { }
 23fd5a2:	7044      	strb	r4, [r0, #1]
 23fd5a4:	a804      	add	r0, sp, #16
	: _M_ptr(__p), _M_refcount(__p, typename is_array<_Tp>::type())
 23fd5a6:	9103      	str	r1, [sp, #12]
	: __shared_count(__p)
 23fd5a8:	f7ff ff1a 	bl	23fd3e0 <_ZNSt14__shared_countILN9__gnu_cxx12_Lock_policyE0EEC1IPN8particle6detail10FutureImplIbNS5_13FutureContextEEEEET_>
    d.handler_callback = publishCompletionCallback;
 23fd5ac:	4b1e      	ldr	r3, [pc, #120]	; (23fd628 <_ZN10CloudClass13publish_eventEPKcS1_iN8particle5FlagsI15PublishFlagTypehEE+0x10c>)
        return new detail::FutureImplPtr<ResultT, ContextT>(p_);
 23fd5ae:	2008      	movs	r0, #8
 23fd5b0:	9308      	str	r3, [sp, #32]
 23fd5b2:	f7fb fa7c 	bl	23f8aae <_Znwj>
 23fd5b6:	4604      	mov	r4, r0
 23fd5b8:	b110      	cbz	r0, 23fd5c0 <_ZN10CloudClass13publish_eventEPKcS1_iN8particle5FlagsI15PublishFlagTypehEE+0xa4>
 23fd5ba:	a903      	add	r1, sp, #12
 23fd5bc:	f7ff fecb 	bl	23fd356 <_ZNSt12__shared_ptrIN8particle6detail10FutureImplIbNS1_13FutureContextEEELN9__gnu_cxx12_Lock_policyE0EEC1ERKS7_>
    if (!spark_send_event(eventName, eventData, ttl, flags.value(), &d) && !p.isDone()) {
 23fd5c0:	464a      	mov	r2, r9
 23fd5c2:	4641      	mov	r1, r8
 23fd5c4:	4638      	mov	r0, r7
 23fd5c6:	9600      	str	r6, [sp, #0]
 23fd5c8:	fa5f f38a 	uxtb.w	r3, sl
    d.handler_data = p.dataPtr();
 23fd5cc:	9409      	str	r4, [sp, #36]	; 0x24
    if (!spark_send_event(eventName, eventData, ttl, flags.value(), &d) && !p.isDone()) {
 23fd5ce:	f7fd ff73 	bl	23fb4b8 <spark_send_event>
 23fd5d2:	b9b8      	cbnz	r0, 23fd604 <_ZN10CloudClass13publish_eventEPKcS1_iN8particle5FlagsI15PublishFlagTypehEE+0xe8>
	return __atomic_load_n(&_M_i, int(__m));
 23fd5d4:	9b03      	ldr	r3, [sp, #12]
 23fd5d6:	3301      	adds	r3, #1
 23fd5d8:	781b      	ldrb	r3, [r3, #0]
 23fd5da:	b2db      	uxtb	r3, r3
 23fd5dc:	b993      	cbnz	r3, 23fd604 <_ZN10CloudClass13publish_eventEPKcS1_iN8particle5FlagsI15PublishFlagTypehEE+0xe8>
 23fd5de:	9305      	str	r3, [sp, #20]
 23fd5e0:	f64f 739c 	movw	r3, #65436	; 0xff9c
        p.setError(Error::UNKNOWN);
 23fd5e4:	a905      	add	r1, sp, #20
 23fd5e6:	a803      	add	r0, sp, #12
 23fd5e8:	f8ad 3018 	strh.w	r3, [sp, #24]
 23fd5ec:	f7ff ff1c 	bl	23fd428 <_ZN8particle11PromiseBaseIbNS_6detail13FutureContextEE8setErrorENS_5ErrorE>
 23fd5f0:	a805      	add	r0, sp, #20
 23fd5f2:	f7ff fe82 	bl	23fd2fa <_ZN8particle5ErrorD1Ev>
        p.fromDataPtr(d.handler_data); // Free wrapper object
 23fd5f6:	a805      	add	r0, sp, #20
 23fd5f8:	9909      	ldr	r1, [sp, #36]	; 0x24
 23fd5fa:	f7ff feb5 	bl	23fd368 <_ZN8particle11PromiseBaseIbNS_6detail13FutureContextEE11fromDataPtrEPv>
      ~__shared_ptr() = default;
 23fd5fe:	a806      	add	r0, sp, #24
 23fd600:	f7fb face 	bl	23f8ba0 <_ZNSt14__shared_countILN9__gnu_cxx12_Lock_policyE0EED1Ev>
 23fd604:	a903      	add	r1, sp, #12
 23fd606:	a805      	add	r0, sp, #20
 23fd608:	f7ff fea5 	bl	23fd356 <_ZNSt12__shared_ptrIN8particle6detail10FutureImplIbNS1_13FutureContextEEELN9__gnu_cxx12_Lock_policyE0EEC1ERKS7_>
      : _M_ptr(__r._M_ptr), _M_refcount()
 23fd60c:	9b05      	ldr	r3, [sp, #20]
	_Sp_counted_base<_Lp>* __tmp = __r._M_pi;
 23fd60e:	9a06      	ldr	r2, [sp, #24]
      : _M_ptr(__r._M_ptr), _M_refcount()
 23fd610:	602b      	str	r3, [r5, #0]
	__r._M_pi = _M_pi;
 23fd612:	2300      	movs	r3, #0
	_M_pi = __tmp;
 23fd614:	606a      	str	r2, [r5, #4]
      ~__shared_ptr() = default;
 23fd616:	a806      	add	r0, sp, #24
	__r._M_pi = _M_pi;
 23fd618:	9306      	str	r3, [sp, #24]
	__r._M_ptr = 0;
 23fd61a:	9305      	str	r3, [sp, #20]
      ~__shared_ptr() = default;
 23fd61c:	f7fb fac0 	bl	23f8ba0 <_ZNSt14__shared_countILN9__gnu_cxx12_Lock_policyE0EED1Ev>
 23fd620:	a804      	add	r0, sp, #16
 23fd622:	f7fb fabd 	bl	23f8ba0 <_ZNSt14__shared_countILN9__gnu_cxx12_Lock_policyE0EED1Ev>
class Promise: public PromiseBase<ResultT, ContextT> {
 23fd626:	e7ab      	b.n	23fd580 <_ZN10CloudClass13publish_eventEPKcS1_iN8particle5FlagsI15PublishFlagTypehEE+0x64>
 23fd628:	023fd6a9 	.word	0x023fd6a9

023fd62c <_ZNSt17_Function_handlerIFvvESt5_BindIFSt8functionIFvRKN8particle5ErrorEEES4_EEE10_M_managerERSt9_Any_dataRKSC_St18_Manager_operation>:
	switch (__op)
 23fd62c:	2a01      	cmp	r2, #1
      _M_manager(_Any_data& __dest, const _Any_data& __source,
 23fd62e:	b5f8      	push	{r3, r4, r5, r6, r7, lr}
 23fd630:	4605      	mov	r5, r0
	switch (__op)
 23fd632:	d103      	bne.n	23fd63c <_ZNSt17_Function_handlerIFvvESt5_BindIFSt8functionIFvRKN8particle5ErrorEEES4_EEE10_M_managerERSt9_Any_dataRKSC_St18_Manager_operation+0x10>
	    return __source._M_access<_Functor*>();
 23fd634:	680b      	ldr	r3, [r1, #0]
	    __dest._M_access<_Functor*>() = _Base::_M_get_pointer(__source);
 23fd636:	6003      	str	r3, [r0, #0]
      }
 23fd638:	2000      	movs	r0, #0
 23fd63a:	bdf8      	pop	{r3, r4, r5, r6, r7, pc}
	  switch (__op)
 23fd63c:	2a02      	cmp	r2, #2
 23fd63e:	d010      	beq.n	23fd662 <_ZNSt17_Function_handlerIFvvESt5_BindIFSt8functionIFvRKN8particle5ErrorEEES4_EEE10_M_managerERSt9_Any_dataRKSC_St18_Manager_operation+0x36>
 23fd640:	2a03      	cmp	r2, #3
 23fd642:	d1f9      	bne.n	23fd638 <_ZNSt17_Function_handlerIFvvESt5_BindIFSt8functionIFvRKN8particle5ErrorEEES4_EEE10_M_managerERSt9_Any_dataRKSC_St18_Manager_operation+0xc>
	  delete __victim._M_access<_Functor*>();
 23fd644:	6804      	ldr	r4, [r0, #0]
 23fd646:	2c00      	cmp	r4, #0
 23fd648:	d0f6      	beq.n	23fd638 <_ZNSt17_Function_handlerIFvvESt5_BindIFSt8functionIFvRKN8particle5ErrorEEES4_EEE10_M_managerERSt9_Any_dataRKSC_St18_Manager_operation+0xc>
 23fd64a:	f104 0010 	add.w	r0, r4, #16
 23fd64e:	f7ff fe54 	bl	23fd2fa <_ZN8particle5ErrorD1Ev>
    class function<_Res(_ArgTypes...)>
 23fd652:	4620      	mov	r0, r4
 23fd654:	f7fe f932 	bl	23fb8bc <_ZNSt14_Function_baseD1Ev>
	  delete __victim._M_access<_Functor*>();
 23fd658:	2118      	movs	r1, #24
 23fd65a:	4620      	mov	r0, r4
 23fd65c:	f7fb fa2d 	bl	23f8aba <_ZdlPvj>
 23fd660:	e7ea      	b.n	23fd638 <_ZNSt17_Function_handlerIFvvESt5_BindIFSt8functionIFvRKN8particle5ErrorEEES4_EEE10_M_managerERSt9_Any_dataRKSC_St18_Manager_operation+0xc>
	    new _Functor(*__source._M_access<const _Functor*>());
 23fd662:	2018      	movs	r0, #24
	  __dest._M_access<_Functor*>() =
 23fd664:	680e      	ldr	r6, [r1, #0]
	    new _Functor(*__source._M_access<const _Functor*>());
 23fd666:	f7fb fa22 	bl	23f8aae <_Znwj>
 23fd66a:	4604      	mov	r4, r0
 23fd66c:	b150      	cbz	r0, 23fd684 <_ZNSt17_Function_handlerIFvvESt5_BindIFSt8functionIFvRKN8particle5ErrorEEES4_EEE10_M_managerERSt9_Any_dataRKSC_St18_Manager_operation+0x58>
	explicit _GLIBCXX20_CONSTEXPR
	_Bind(_Functor&& __f, _Args&&... __args)
	: _M_f(std::move(__f)), _M_bound_args(std::forward<_Args>(__args)...)
	{ }

      _Bind(const _Bind&) = default;
 23fd66e:	4631      	mov	r1, r6
 23fd670:	f7ff feca 	bl	23fd408 <_ZNSt8functionIFvRKN8particle5ErrorEEEC1ERKS5_>
        Error(error.type_, error.msg_) {
 23fd674:	6930      	ldr	r0, [r6, #16]
 23fd676:	f9b6 7014 	ldrsh.w	r7, [r6, #20]
        msg_(msg ? (const char*)strdup(msg) : nullptr),
 23fd67a:	b108      	cbz	r0, 23fd680 <_ZNSt17_Function_handlerIFvvESt5_BindIFSt8functionIFvRKN8particle5ErrorEEES4_EEE10_M_managerERSt9_Any_dataRKSC_St18_Manager_operation+0x54>
 23fd67c:	f001 f8b2 	bl	23fe7e4 <strdup>
        type_(type) {
 23fd680:	6120      	str	r0, [r4, #16]
 23fd682:	82a7      	strh	r7, [r4, #20]
	  __dest._M_access<_Functor*>() =
 23fd684:	602c      	str	r4, [r5, #0]
	}
 23fd686:	e7d7      	b.n	23fd638 <_ZNSt17_Function_handlerIFvvESt5_BindIFSt8functionIFvRKN8particle5ErrorEEES4_EEE10_M_managerERSt9_Any_dataRKSC_St18_Manager_operation+0xc>

023fd688 <_ZNSt8functionIFvRKbEEC1ERKS3_>:
    function<_Res(_ArgTypes...)>::
 23fd688:	b538      	push	{r3, r4, r5, lr}
    _Function_base() : _M_manager(nullptr) { }
 23fd68a:	2300      	movs	r3, #0
 23fd68c:	6083      	str	r3, [r0, #8]
    bool _M_empty() const { return !_M_manager; }
 23fd68e:	688b      	ldr	r3, [r1, #8]
    function<_Res(_ArgTypes...)>::
 23fd690:	4604      	mov	r4, r0
 23fd692:	460d      	mov	r5, r1
      if (static_cast<bool>(__x))
 23fd694:	b12b      	cbz	r3, 23fd6a2 <_ZNSt8functionIFvRKbEEC1ERKS3_+0x1a>
	  __x._M_manager(_M_functor, __x._M_functor, __clone_functor);
 23fd696:	2202      	movs	r2, #2
 23fd698:	4798      	blx	r3
	  _M_invoker = __x._M_invoker;
 23fd69a:	68eb      	ldr	r3, [r5, #12]
 23fd69c:	60e3      	str	r3, [r4, #12]
	  _M_manager = __x._M_manager;
 23fd69e:	68ab      	ldr	r3, [r5, #8]
 23fd6a0:	60a3      	str	r3, [r4, #8]
    }
 23fd6a2:	4620      	mov	r0, r4
 23fd6a4:	bd38      	pop	{r3, r4, r5, pc}
	...

023fd6a8 <_ZN12_GLOBAL__N_125publishCompletionCallbackEiPKvPvS2_>:
void publishCompletionCallback(int error, const void* data, void* callbackData, void* reserved) {
 23fd6a8:	b5f0      	push	{r4, r5, r6, r7, lr}
 23fd6aa:	4604      	mov	r4, r0
 23fd6ac:	b089      	sub	sp, #36	; 0x24
 23fd6ae:	460d      	mov	r5, r1
    auto p = Promise<bool>::fromDataPtr(callbackData);
 23fd6b0:	a801      	add	r0, sp, #4
 23fd6b2:	4611      	mov	r1, r2
 23fd6b4:	f7ff fe58 	bl	23fd368 <_ZN8particle11PromiseBaseIbNS_6detail13FutureContextEE11fromDataPtrEPv>
    if (error != Error::NONE) {
 23fd6b8:	b1a4      	cbz	r4, 23fd6e4 <_ZN12_GLOBAL__N_125publishCompletionCallbackEiPKvPvS2_+0x3c>
        p.setError(Error((Error::Type)error, (const char*)data));
 23fd6ba:	b224      	sxth	r4, r4
        msg_(msg ? (const char*)strdup(msg) : nullptr),
 23fd6bc:	b11d      	cbz	r5, 23fd6c6 <_ZN12_GLOBAL__N_125publishCompletionCallbackEiPKvPvS2_+0x1e>
 23fd6be:	4628      	mov	r0, r5
 23fd6c0:	f001 f890 	bl	23fe7e4 <strdup>
 23fd6c4:	4605      	mov	r5, r0
 23fd6c6:	a801      	add	r0, sp, #4
 23fd6c8:	a903      	add	r1, sp, #12
        type_(type) {
 23fd6ca:	9503      	str	r5, [sp, #12]
 23fd6cc:	f8ad 4010 	strh.w	r4, [sp, #16]
 23fd6d0:	f7ff feaa 	bl	23fd428 <_ZN8particle11PromiseBaseIbNS_6detail13FutureContextEE8setErrorENS_5ErrorE>
 23fd6d4:	a803      	add	r0, sp, #12
 23fd6d6:	f7ff fe10 	bl	23fd2fa <_ZN8particle5ErrorD1Ev>
 23fd6da:	a802      	add	r0, sp, #8
 23fd6dc:	f7fb fa60 	bl	23f8ba0 <_ZNSt14__shared_countILN9__gnu_cxx12_Lock_policyE0EED1Ev>
}
 23fd6e0:	b009      	add	sp, #36	; 0x24
 23fd6e2:	bdf0      	pop	{r4, r5, r6, r7, pc}
	return __atomic_compare_exchange(std::__addressof(_M_i),
 23fd6e4:	2301      	movs	r3, #1
      { return _M_ptr; }
 23fd6e6:	9d01      	ldr	r5, [sp, #4]
 23fd6e8:	e8d5 2f4f 	ldrexb	r2, [r5]
 23fd6ec:	2a00      	cmp	r2, #0
 23fd6ee:	d103      	bne.n	23fd6f8 <_ZN12_GLOBAL__N_125publishCompletionCallbackEiPKvPvS2_+0x50>
 23fd6f0:	e8c5 3f41 	strexb	r1, r3, [r5]
 23fd6f4:	2900      	cmp	r1, #0
 23fd6f6:	d1f7      	bne.n	23fd6e8 <_ZN12_GLOBAL__N_125publishCompletionCallbackEiPKvPvS2_+0x40>
        if (this->changeState(State::SUCCEEDED)) {
 23fd6f8:	d1ef      	bne.n	23fd6da <_ZN12_GLOBAL__N_125publishCompletionCallbackEiPKvPvS2_+0x32>
            new(&result_) ResultT(std::move(result));
 23fd6fa:	732b      	strb	r3, [r5, #12]
	__atomic_store_n(&_M_i, __i, int(__m));
 23fd6fc:	2201      	movs	r2, #1
 23fd6fe:	18eb      	adds	r3, r5, r3
 23fd700:	e8c3 2f8f 	stlb	r2, [r3]
	return __atomic_exchange_n(&_M_p, __p, int(__m));
 23fd704:	1d2b      	adds	r3, r5, #4
 23fd706:	e8d3 6fef 	ldaex	r6, [r3]
 23fd70a:	e8c3 4fe2 	stlex	r2, r4, [r3]
 23fd70e:	2a00      	cmp	r2, #0
 23fd710:	d1f9      	bne.n	23fd706 <_ZN12_GLOBAL__N_125publishCompletionCallbackEiPKvPvS2_+0x5e>
        if (callbackPtr) {
 23fd712:	2e00      	cmp	r6, #0
 23fd714:	d0e1      	beq.n	23fd6da <_ZN12_GLOBAL__N_125publishCompletionCallbackEiPKvPvS2_+0x32>
        return (application_thread_current(nullptr) != 0);
 23fd716:	4620      	mov	r0, r4
 23fd718:	f7fd fdd2 	bl	23fb2c0 <application_thread_current>
        if (ContextT::isApplicationThreadCurrent()) {
 23fd71c:	4607      	mov	r7, r0
 23fd71e:	b160      	cbz	r0, 23fd73a <_ZN12_GLOBAL__N_125publishCompletionCallbackEiPKvPvS2_+0x92>
            callback(std::forward<ArgsT>(args)...); // Synchronous call
 23fd720:	4630      	mov	r0, r6
 23fd722:	f105 010c 	add.w	r1, r5, #12
 23fd726:	f7ff fe4a 	bl	23fd3be <_ZNKSt8functionIFvRKbEEclES1_>
    class function<_Res(_ArgTypes...)>
 23fd72a:	4630      	mov	r0, r6
 23fd72c:	f7fe f8c6 	bl	23fb8bc <_ZNSt14_Function_baseD1Ev>
            delete callbackPtr;
 23fd730:	2110      	movs	r1, #16
 23fd732:	4630      	mov	r0, r6
 23fd734:	f7fb f9c1 	bl	23f8aba <_ZdlPvj>
 23fd738:	e7cf      	b.n	23fd6da <_ZN12_GLOBAL__N_125publishCompletionCallbackEiPKvPvS2_+0x32>
	: _M_f(__f), _M_bound_args(std::forward<_Args>(__args)...)
 23fd73a:	4631      	mov	r1, r6
 23fd73c:	a803      	add	r0, sp, #12
 23fd73e:	f7ff ffa3 	bl	23fd688 <_ZNSt8functionIFvRKbEEC1ERKS3_>
	: _M_head_impl(std::forward<_UHead>(__h)) { }
 23fd742:	7b2b      	ldrb	r3, [r5, #12]
            auto callbackPtr = new std::function<void()>(std::bind(callback, std::forward<ArgsT>(args)...));
 23fd744:	2010      	movs	r0, #16
 23fd746:	f88d 301c 	strb.w	r3, [sp, #28]
 23fd74a:	f7fb f9b0 	bl	23f8aae <_Znwj>
 23fd74e:	4605      	mov	r5, r0
 23fd750:	b1d0      	cbz	r0, 23fd788 <_ZN12_GLOBAL__N_125publishCompletionCallbackEiPKvPvS2_+0xe0>
    _Function_base() : _M_manager(nullptr) { }
 23fd752:	6087      	str	r7, [r0, #8]
	{ __functor._M_access<_Functor*>() = new _Functor(std::move(__f)); }
 23fd754:	2014      	movs	r0, #20
 23fd756:	f7fb f9aa 	bl	23f8aae <_Znwj>
 23fd75a:	4604      	mov	r4, r0
 23fd75c:	b178      	cbz	r0, 23fd77e <_ZN12_GLOBAL__N_125publishCompletionCallbackEiPKvPvS2_+0xd6>
	std::swap(_M_functor, __x._M_functor);
 23fd75e:	4601      	mov	r1, r0
    _Function_base() : _M_manager(nullptr) { }
 23fd760:	6087      	str	r7, [r0, #8]
	std::swap(_M_functor, __x._M_functor);
 23fd762:	a803      	add	r0, sp, #12
 23fd764:	f7fe fafd 	bl	23fbd62 <_ZSt4swapISt9_Any_dataENSt9enable_ifIXsrSt6__and_IJSt6__not_ISt15__is_tuple_likeIT_EESt21is_move_constructibleIS5_ESt18is_move_assignableIS5_EEE5valueEvE4typeERS5_SF_>
      _Tp __tmp = _GLIBCXX_MOVE(__a);
 23fd768:	9b05      	ldr	r3, [sp, #20]
      __a = _GLIBCXX_MOVE(__b);
 23fd76a:	68a2      	ldr	r2, [r4, #8]
      __b = _GLIBCXX_MOVE(__tmp);
 23fd76c:	60a3      	str	r3, [r4, #8]
      _Tp __tmp = _GLIBCXX_MOVE(__a);
 23fd76e:	9b06      	ldr	r3, [sp, #24]
      __a = _GLIBCXX_MOVE(__b);
 23fd770:	9205      	str	r2, [sp, #20]
 23fd772:	68e2      	ldr	r2, [r4, #12]
      __b = _GLIBCXX_MOVE(__tmp);
 23fd774:	60e3      	str	r3, [r4, #12]
 23fd776:	f89d 301c 	ldrb.w	r3, [sp, #28]
      __a = _GLIBCXX_MOVE(__b);
 23fd77a:	9206      	str	r2, [sp, #24]
 23fd77c:	7423      	strb	r3, [r4, #16]
	    _M_invoker = &_My_handler::_M_invoke;
 23fd77e:	4b07      	ldr	r3, [pc, #28]	; (23fd79c <_ZN12_GLOBAL__N_125publishCompletionCallbackEiPKvPvS2_+0xf4>)
	{ __functor._M_access<_Functor*>() = new _Functor(std::move(__f)); }
 23fd780:	602c      	str	r4, [r5, #0]
	    _M_invoker = &_My_handler::_M_invoke;
 23fd782:	60eb      	str	r3, [r5, #12]
	    _M_manager = &_My_handler::_M_manager;
 23fd784:	4b06      	ldr	r3, [pc, #24]	; (23fd7a0 <_ZN12_GLOBAL__N_125publishCompletionCallbackEiPKvPvS2_+0xf8>)
 23fd786:	60ab      	str	r3, [r5, #8]
    class function<_Res(_ArgTypes...)>
 23fd788:	a803      	add	r0, sp, #12
 23fd78a:	f7fe f897 	bl	23fb8bc <_ZNSt14_Function_baseD1Ev>
        return (application_thread_invoke(callback, data, nullptr) == 0);
 23fd78e:	2200      	movs	r2, #0
 23fd790:	4629      	mov	r1, r5
 23fd792:	4804      	ldr	r0, [pc, #16]	; (23fd7a4 <_ZN12_GLOBAL__N_125publishCompletionCallbackEiPKvPvS2_+0xfc>)
 23fd794:	f7fd fda2 	bl	23fb2dc <application_thread_invoke>
 23fd798:	e7c7      	b.n	23fd72a <_ZN12_GLOBAL__N_125publishCompletionCallbackEiPKvPvS2_+0x82>
 23fd79a:	bf00      	nop
 23fd79c:	023fd3d1 	.word	0x023fd3d1
 23fd7a0:	023fd7a9 	.word	0x023fd7a9
 23fd7a4:	023fdb03 	.word	0x023fdb03

023fd7a8 <_ZNSt17_Function_handlerIFvvESt5_BindIFSt8functionIFvRKbEEbEEE10_M_managerERSt9_Any_dataRKSA_St18_Manager_operation>:
	switch (__op)
 23fd7a8:	2a01      	cmp	r2, #1
      _M_manager(_Any_data& __dest, const _Any_data& __source,
 23fd7aa:	b570      	push	{r4, r5, r6, lr}
 23fd7ac:	4604      	mov	r4, r0
	switch (__op)
 23fd7ae:	d103      	bne.n	23fd7b8 <_ZNSt17_Function_handlerIFvvESt5_BindIFSt8functionIFvRKbEEbEEE10_M_managerERSt9_Any_dataRKSA_St18_Manager_operation+0x10>
	    return __source._M_access<_Functor*>();
 23fd7b0:	680b      	ldr	r3, [r1, #0]
	    __dest._M_access<_Functor*>() = _Base::_M_get_pointer(__source);
 23fd7b2:	6003      	str	r3, [r0, #0]
      }
 23fd7b4:	2000      	movs	r0, #0
 23fd7b6:	bd70      	pop	{r4, r5, r6, pc}
	  switch (__op)
 23fd7b8:	2a02      	cmp	r2, #2
 23fd7ba:	d00c      	beq.n	23fd7d6 <_ZNSt17_Function_handlerIFvvESt5_BindIFSt8functionIFvRKbEEbEEE10_M_managerERSt9_Any_dataRKSA_St18_Manager_operation+0x2e>
 23fd7bc:	2a03      	cmp	r2, #3
 23fd7be:	d1f9      	bne.n	23fd7b4 <_ZNSt17_Function_handlerIFvvESt5_BindIFSt8functionIFvRKbEEbEEE10_M_managerERSt9_Any_dataRKSA_St18_Manager_operation+0xc>
	  delete __victim._M_access<_Functor*>();
 23fd7c0:	6804      	ldr	r4, [r0, #0]
 23fd7c2:	2c00      	cmp	r4, #0
 23fd7c4:	d0f6      	beq.n	23fd7b4 <_ZNSt17_Function_handlerIFvvESt5_BindIFSt8functionIFvRKbEEbEEE10_M_managerERSt9_Any_dataRKSA_St18_Manager_operation+0xc>
    class function<_Res(_ArgTypes...)>
 23fd7c6:	4620      	mov	r0, r4
 23fd7c8:	f7fe f878 	bl	23fb8bc <_ZNSt14_Function_baseD1Ev>
	  delete __victim._M_access<_Functor*>();
 23fd7cc:	2114      	movs	r1, #20
 23fd7ce:	4620      	mov	r0, r4
 23fd7d0:	f7fb f973 	bl	23f8aba <_ZdlPvj>
 23fd7d4:	e7ee      	b.n	23fd7b4 <_ZNSt17_Function_handlerIFvvESt5_BindIFSt8functionIFvRKbEEbEEE10_M_managerERSt9_Any_dataRKSA_St18_Manager_operation+0xc>
	    new _Functor(*__source._M_access<const _Functor*>());
 23fd7d6:	2014      	movs	r0, #20
	  __dest._M_access<_Functor*>() =
 23fd7d8:	680e      	ldr	r6, [r1, #0]
	    new _Functor(*__source._M_access<const _Functor*>());
 23fd7da:	f7fb f968 	bl	23f8aae <_Znwj>
 23fd7de:	4605      	mov	r5, r0
 23fd7e0:	b120      	cbz	r0, 23fd7ec <_ZNSt17_Function_handlerIFvvESt5_BindIFSt8functionIFvRKbEEbEEE10_M_managerERSt9_Any_dataRKSA_St18_Manager_operation+0x44>
      _Bind(const _Bind&) = default;
 23fd7e2:	4631      	mov	r1, r6
 23fd7e4:	f7ff ff50 	bl	23fd688 <_ZNSt8functionIFvRKbEEC1ERKS3_>
 23fd7e8:	7c33      	ldrb	r3, [r6, #16]
 23fd7ea:	742b      	strb	r3, [r5, #16]
	  __dest._M_access<_Functor*>() =
 23fd7ec:	6025      	str	r5, [r4, #0]
	}
 23fd7ee:	e7e1      	b.n	23fd7b4 <_ZNSt17_Function_handlerIFvvESt5_BindIFSt8functionIFvRKbEEbEEE10_M_managerERSt9_Any_dataRKSA_St18_Manager_operation+0xc>

023fd7f0 <_ZN9IPAddressD1Ev>:
    IPAddress(uint32_t address);
    // 4 bytes defining the IP address in network order
    IPAddress(const uint8_t* address);
    IPAddress(const HAL_IPAddress& address);

    virtual ~IPAddress() {}
 23fd7f0:	4770      	bx	lr

023fd7f2 <_ZN9IPAddressD0Ev>:
 23fd7f2:	b510      	push	{r4, lr}
 23fd7f4:	4604      	mov	r4, r0
 23fd7f6:	2118      	movs	r1, #24
 23fd7f8:	f7fb f95f 	bl	23f8aba <_ZdlPvj>
 23fd7fc:	4620      	mov	r0, r4
 23fd7fe:	bd10      	pop	{r4, pc}

023fd800 <_ZNK9IPAddress7printToER5Print>:
#endif // Wiring_IPv6
	return address.ipv4==that.address.ipv4;
}

size_t IPAddress::printTo(Print& p) const
{
 23fd800:	b5f0      	push	{r4, r5, r6, r7, lr}
#if Wiring_IPv6
#if HAL_USE_INET_HAL_POSIX
	if (address.v==6) {
 23fd802:	7d03      	ldrb	r3, [r0, #20]
{
 23fd804:	460e      	mov	r6, r1
	if (address.v==6) {
 23fd806:	2b06      	cmp	r3, #6
 23fd808:	f04f 0400 	mov.w	r4, #0
{
 23fd80c:	b08d      	sub	sp, #52	; 0x34
		char buf[INET6_ADDRSTRLEN+1];
		buf[0] = 0;
		inet_inet_ntop(AF_INET6, address.ipv6, buf, sizeof(buf));
 23fd80e:	f100 0704 	add.w	r7, r0, #4
	if (address.v==6) {
 23fd812:	d012      	beq.n	23fd83a <_ZNK9IPAddress7printToER5Print+0x3a>
 23fd814:	f100 0508 	add.w	r5, r0, #8
            val = n;
        }
#if __GNUC__ >= 9
#pragma GCC diagnostic pop
#endif // __GNUC__ >= 9
        return printNumber(val, base) + t;
 23fd818:	f815 1d01 	ldrb.w	r1, [r5, #-1]!
 23fd81c:	220a      	movs	r2, #10
 23fd81e:	4630      	mov	r0, r6
 23fd820:	f7fe fad3 	bl	23fbdca <_ZN5Print11printNumberEmh>
#else
#pragma message "HAL_USE_INET_HAL_POSIX is required for IPv6 support in IPAddress::printTo()"
#endif // HAL_USE_INET_HAL_POSIX
#endif // Wiring_IPv6
    size_t n = 0;
    for (int i = 0; i < 4; i++)
 23fd824:	42af      	cmp	r7, r5
    {
        if (n)
            n += p.print('.');
        n += p.print((*this)[i], DEC);
 23fd826:	4404      	add	r4, r0
    for (int i = 0; i < 4; i++)
 23fd828:	d019      	beq.n	23fd85e <_ZNK9IPAddress7printToER5Print+0x5e>
        if (n)
 23fd82a:	2c00      	cmp	r4, #0
 23fd82c:	d0f4      	beq.n	23fd818 <_ZNK9IPAddress7printToER5Print+0x18>
            n += p.print('.');
 23fd82e:	212e      	movs	r1, #46	; 0x2e
 23fd830:	4630      	mov	r0, r6
 23fd832:	f7fe fac7 	bl	23fbdc4 <_ZN5Print5printEc>
 23fd836:	4404      	add	r4, r0
 23fd838:	e7ee      	b.n	23fd818 <_ZNK9IPAddress7printToER5Print+0x18>
		inet_inet_ntop(AF_INET6, address.ipv6, buf, sizeof(buf));
 23fd83a:	232f      	movs	r3, #47	; 0x2f
 23fd83c:	466a      	mov	r2, sp
 23fd83e:	4639      	mov	r1, r7
 23fd840:	200a      	movs	r0, #10
		buf[0] = 0;
 23fd842:	f88d 4000 	strb.w	r4, [sp]
		inet_inet_ntop(AF_INET6, address.ipv6, buf, sizeof(buf));
 23fd846:	f7fd fab7 	bl	23fadb8 <inet_inet_ntop>
      return write((const uint8_t *)str, strlen(str));
 23fd84a:	4668      	mov	r0, sp
 23fd84c:	f7fb f90a 	bl	23f8a64 <strlen>
 23fd850:	6833      	ldr	r3, [r6, #0]
 23fd852:	4602      	mov	r2, r0
 23fd854:	4669      	mov	r1, sp
 23fd856:	4630      	mov	r0, r6
 23fd858:	68db      	ldr	r3, [r3, #12]
 23fd85a:	4798      	blx	r3
 23fd85c:	4604      	mov	r4, r0
    }
    return n;
}
 23fd85e:	4620      	mov	r0, r4
 23fd860:	b00d      	add	sp, #52	; 0x34
 23fd862:	bdf0      	pop	{r4, r5, r6, r7, pc}

023fd864 <_ZN9IPAddressC1Ev>:
IPAddress::IPAddress()
 23fd864:	b510      	push	{r4, lr}
 23fd866:	4604      	mov	r4, r0
 23fd868:	4b04      	ldr	r3, [pc, #16]	; (23fd87c <_ZN9IPAddressC1Ev+0x18>)
        return address;
    }

    virtual size_t printTo(Print& p) const;

    void clear() { memset(&address, 0, sizeof (address)); }
 23fd86a:	2211      	movs	r2, #17
 23fd86c:	2100      	movs	r1, #0
 23fd86e:	f840 3b04 	str.w	r3, [r0], #4
 23fd872:	f000 ff60 	bl	23fe736 <memset>
}
 23fd876:	4620      	mov	r0, r4
 23fd878:	bd10      	pop	{r4, pc}
 23fd87a:	bf00      	nop
 23fd87c:	023ffc30 	.word	0x023ffc30

023fd880 <_ZN9IPAddressC1ERK16_HAL_IPAddress_t>:
IPAddress::IPAddress(const HAL_IPAddress& address)
 23fd880:	4603      	mov	r3, r0
 23fd882:	4a07      	ldr	r2, [pc, #28]	; (23fd8a0 <_ZN9IPAddressC1ERK16_HAL_IPAddress_t+0x20>)
 23fd884:	b510      	push	{r4, lr}
 23fd886:	f843 2b04 	str.w	r2, [r3], #4
    memcpy(&this->address, &address, sizeof(address));
 23fd88a:	f101 0210 	add.w	r2, r1, #16
 23fd88e:	f851 4b04 	ldr.w	r4, [r1], #4
 23fd892:	4291      	cmp	r1, r2
 23fd894:	f843 4b04 	str.w	r4, [r3], #4
 23fd898:	d1f9      	bne.n	23fd88e <_ZN9IPAddressC1ERK16_HAL_IPAddress_t+0xe>
 23fd89a:	780a      	ldrb	r2, [r1, #0]
 23fd89c:	701a      	strb	r2, [r3, #0]
}
 23fd89e:	bd10      	pop	{r4, pc}
 23fd8a0:	023ffc30 	.word	0x023ffc30

023fd8a4 <_ZN9IPAddress8set_ipv4Ehhhh>:
{
 23fd8a4:	b510      	push	{r4, lr}
    address.ipv4 = b0<<24 | b1 << 16 | b2 << 8 | b3;
 23fd8a6:	f89d 4008 	ldrb.w	r4, [sp, #8]
 23fd8aa:	ea44 2303 	orr.w	r3, r4, r3, lsl #8
 23fd8ae:	ea43 4202 	orr.w	r2, r3, r2, lsl #16
        address.v = version;
 23fd8b2:	2304      	movs	r3, #4
 23fd8b4:	ea42 6101 	orr.w	r1, r2, r1, lsl #24
 23fd8b8:	6041      	str	r1, [r0, #4]
 23fd8ba:	7503      	strb	r3, [r0, #20]
}
 23fd8bc:	bd10      	pop	{r4, pc}
	...

023fd8c0 <_ZN9IPAddressC1EPKh>:
IPAddress::IPAddress(const uint8_t* addr)
 23fd8c0:	b507      	push	{r0, r1, r2, lr}
 23fd8c2:	4b06      	ldr	r3, [pc, #24]	; (23fd8dc <_ZN9IPAddressC1EPKh+0x1c>)
 23fd8c4:	6003      	str	r3, [r0, #0]
    set_ipv4(addr[0], addr[1], addr[2], addr[3]);
 23fd8c6:	78cb      	ldrb	r3, [r1, #3]
 23fd8c8:	9300      	str	r3, [sp, #0]
 23fd8ca:	788b      	ldrb	r3, [r1, #2]
 23fd8cc:	784a      	ldrb	r2, [r1, #1]
 23fd8ce:	7809      	ldrb	r1, [r1, #0]
 23fd8d0:	f7ff ffe8 	bl	23fd8a4 <_ZN9IPAddress8set_ipv4Ehhhh>
}
 23fd8d4:	b003      	add	sp, #12
 23fd8d6:	f85d fb04 	ldr.w	pc, [sp], #4
 23fd8da:	bf00      	nop
 23fd8dc:	023ffc30 	.word	0x023ffc30

023fd8e0 <_ZN9USBSerial14blockOnOverrunEb>:
  HAL_USB_USART_Flush_Data(_serial);
}

void USBSerial::blockOnOverrun(bool block)
{
  _blocking = block;
 23fd8e0:	7441      	strb	r1, [r0, #17]
}
 23fd8e2:	4770      	bx	lr

023fd8e4 <__tcf_0>:
}

USBSerial& _fetch_usbserial()
{
  HAL_USB_USART_Config conf = acquireSerialBuffer();
	static USBSerial _usbserial(HAL_USB_USART_SERIAL, conf);
 23fd8e4:	4770      	bx	lr

023fd8e6 <_ZN9USBSerialD1Ev>:
#include "usb_hal.h"
#include "system_task.h"
#include "spark_wiring_startup.h"
#include "concurrent_hal.h"

class USBSerial : public Stream
 23fd8e6:	4770      	bx	lr

023fd8e8 <_ZN9USBSerial4readEv>:
{
 23fd8e8:	b508      	push	{r3, lr}
	return std::max(-1, (int)HAL_USB_USART_Receive_Data(_serial, false));
 23fd8ea:	2100      	movs	r1, #0
 23fd8ec:	7c00      	ldrb	r0, [r0, #16]
 23fd8ee:	f7fd fc5b 	bl	23fb1a8 <HAL_USB_USART_Receive_Data>
}
 23fd8f2:	ea40 70e0 	orr.w	r0, r0, r0, asr #31
 23fd8f6:	bd08      	pop	{r3, pc}

023fd8f8 <_ZN9USBSerial4peekEv>:
{
 23fd8f8:	b508      	push	{r3, lr}
	return std::max(-1, (int)HAL_USB_USART_Receive_Data(_serial, true));
 23fd8fa:	2101      	movs	r1, #1
 23fd8fc:	7c00      	ldrb	r0, [r0, #16]
 23fd8fe:	f7fd fc53 	bl	23fb1a8 <HAL_USB_USART_Receive_Data>
}
 23fd902:	ea40 70e0 	orr.w	r0, r0, r0, asr #31
 23fd906:	bd08      	pop	{r3, pc}

023fd908 <_ZN9USBSerial17availableForWriteEv>:
{
 23fd908:	b508      	push	{r3, lr}
  return std::max(0, (int)HAL_USB_USART_Available_Data_For_Write(_serial));
 23fd90a:	7c00      	ldrb	r0, [r0, #16]
 23fd90c:	f7fd fc3e 	bl	23fb18c <HAL_USB_USART_Available_Data_For_Write>
}
 23fd910:	ea20 70e0 	bic.w	r0, r0, r0, asr #31
 23fd914:	bd08      	pop	{r3, pc}

023fd916 <_ZN9USBSerial9availableEv>:
{
 23fd916:	b508      	push	{r3, lr}
	return std::max(0, (int)HAL_USB_USART_Available_Data(_serial));
 23fd918:	7c00      	ldrb	r0, [r0, #16]
 23fd91a:	f7fd fc29 	bl	23fb170 <HAL_USB_USART_Available_Data>
}
 23fd91e:	ea20 70e0 	bic.w	r0, r0, r0, asr #31
 23fd922:	bd08      	pop	{r3, pc}

023fd924 <_ZN9USBSerial5writeEh>:
{
 23fd924:	b513      	push	{r0, r1, r4, lr}
 23fd926:	4604      	mov	r4, r0
  if (HAL_USB_USART_Available_Data_For_Write(_serial) > 0 || _blocking) {
 23fd928:	7c00      	ldrb	r0, [r0, #16]
{
 23fd92a:	9101      	str	r1, [sp, #4]
  if (HAL_USB_USART_Available_Data_For_Write(_serial) > 0 || _blocking) {
 23fd92c:	f7fd fc2e 	bl	23fb18c <HAL_USB_USART_Available_Data_For_Write>
 23fd930:	2800      	cmp	r0, #0
 23fd932:	9901      	ldr	r1, [sp, #4]
 23fd934:	dc01      	bgt.n	23fd93a <_ZN9USBSerial5writeEh+0x16>
 23fd936:	7c60      	ldrb	r0, [r4, #17]
 23fd938:	b120      	cbz	r0, 23fd944 <_ZN9USBSerial5writeEh+0x20>
    return std::max(0, (int)HAL_USB_USART_Send_Data(_serial, byte));
 23fd93a:	7c20      	ldrb	r0, [r4, #16]
 23fd93c:	f7fd fc42 	bl	23fb1c4 <HAL_USB_USART_Send_Data>
 23fd940:	ea20 70e0 	bic.w	r0, r0, r0, asr #31
}
 23fd944:	b002      	add	sp, #8
 23fd946:	bd10      	pop	{r4, pc}

023fd948 <_ZN9USBSerial5flushEv>:
  HAL_USB_USART_Flush_Data(_serial);
 23fd948:	7c00      	ldrb	r0, [r0, #16]
 23fd94a:	f7fd bc49 	b.w	23fb1e0 <HAL_USB_USART_Flush_Data>

023fd94e <_ZN9USBSerialD0Ev>:
 23fd94e:	b510      	push	{r4, lr}
 23fd950:	4604      	mov	r4, r0
 23fd952:	2114      	movs	r1, #20
 23fd954:	f7fb f8b1 	bl	23f8aba <_ZdlPvj>
 23fd958:	4620      	mov	r0, r4
 23fd95a:	bd10      	pop	{r4, pc}

023fd95c <_ZN9USBSerialC1E20HAL_USB_USART_SerialRK20HAL_USB_USART_Config>:
USBSerial::USBSerial(HAL_USB_USART_Serial serial, const HAL_USB_USART_Config& conf)
 23fd95c:	b510      	push	{r4, lr}
 23fd95e:	f44f 737a 	mov.w	r3, #1000	; 0x3e8
 23fd962:	4604      	mov	r4, r0
 23fd964:	4608      	mov	r0, r1
 23fd966:	2100      	movs	r1, #0
 23fd968:	e9c4 1301 	strd	r1, r3, [r4, #4]
 23fd96c:	4b04      	ldr	r3, [pc, #16]	; (23fd980 <_ZN9USBSerialC1E20HAL_USB_USART_SerialRK20HAL_USB_USART_Config+0x24>)
  _serial = serial;
 23fd96e:	7420      	strb	r0, [r4, #16]
USBSerial::USBSerial(HAL_USB_USART_Serial serial, const HAL_USB_USART_Config& conf)
 23fd970:	6023      	str	r3, [r4, #0]
  _blocking = true;
 23fd972:	2301      	movs	r3, #1
  HAL_USB_USART_Init(_serial, &conf);
 23fd974:	4611      	mov	r1, r2
  _blocking = true;
 23fd976:	7463      	strb	r3, [r4, #17]
  HAL_USB_USART_Init(_serial, &conf);
 23fd978:	f7fd fbd0 	bl	23fb11c <HAL_USB_USART_Init>
}
 23fd97c:	4620      	mov	r0, r4
 23fd97e:	bd10      	pop	{r4, pc}
 23fd980:	023ffc44 	.word	0x023ffc44

023fd984 <_ZN9USBSerial5beginEl>:
    HAL_USB_USART_Begin(_serial, speed, NULL);
 23fd984:	2200      	movs	r2, #0
 23fd986:	7c00      	ldrb	r0, [r0, #16]
 23fd988:	f7fd bbd6 	b.w	23fb138 <HAL_USB_USART_Begin>

023fd98c <_ZN9USBSerial3endEv>:
    HAL_USB_USART_End(_serial);
 23fd98c:	7c00      	ldrb	r0, [r0, #16]
 23fd98e:	f7fd bbe1 	b.w	23fb154 <HAL_USB_USART_End>

023fd992 <_ZN9USBSerial11isConnectedEv>:
  return HAL_USB_USART_Is_Connected(_serial);
 23fd992:	7c00      	ldrb	r0, [r0, #16]
 23fd994:	f7fd bc32 	b.w	23fb1fc <HAL_USB_USART_Is_Connected>

023fd998 <_Z19acquireSerialBufferv>:
{
 23fd998:	b510      	push	{r4, lr}
 23fd99a:	4604      	mov	r4, r0
  HAL_USB_USART_Config conf = {};
 23fd99c:	2214      	movs	r2, #20
 23fd99e:	2100      	movs	r1, #0
 23fd9a0:	f000 fec9 	bl	23fe736 <memset>
}
 23fd9a4:	4620      	mov	r0, r4
 23fd9a6:	bd10      	pop	{r4, pc}

023fd9a8 <_Z16_fetch_usbserialv>:
{
 23fd9a8:	b510      	push	{r4, lr}
 23fd9aa:	b088      	sub	sp, #32
  HAL_USB_USART_Config conf = acquireSerialBuffer();
 23fd9ac:	a803      	add	r0, sp, #12
 23fd9ae:	f7ff fff3 	bl	23fd998 <_Z19acquireSerialBufferv>
	static USBSerial _usbserial(HAL_USB_USART_SERIAL, conf);
 23fd9b2:	4c0c      	ldr	r4, [pc, #48]	; (23fd9e4 <_Z16_fetch_usbserialv+0x3c>)
 23fd9b4:	e8d4 1f8f 	ldab	r1, [r4]
 23fd9b8:	f011 0101 	ands.w	r1, r1, #1
 23fd9bc:	d10f      	bne.n	23fd9de <_Z16_fetch_usbserialv+0x36>
 23fd9be:	4620      	mov	r0, r4
 23fd9c0:	9101      	str	r1, [sp, #4]
 23fd9c2:	f7fb f889 	bl	23f8ad8 <__cxa_guard_acquire>
 23fd9c6:	9901      	ldr	r1, [sp, #4]
 23fd9c8:	b148      	cbz	r0, 23fd9de <_Z16_fetch_usbserialv+0x36>
 23fd9ca:	aa03      	add	r2, sp, #12
 23fd9cc:	4806      	ldr	r0, [pc, #24]	; (23fd9e8 <_Z16_fetch_usbserialv+0x40>)
 23fd9ce:	f7ff ffc5 	bl	23fd95c <_ZN9USBSerialC1E20HAL_USB_USART_SerialRK20HAL_USB_USART_Config>
 23fd9d2:	4620      	mov	r0, r4
 23fd9d4:	f7fb f885 	bl	23f8ae2 <__cxa_guard_release>
 23fd9d8:	4804      	ldr	r0, [pc, #16]	; (23fd9ec <_Z16_fetch_usbserialv+0x44>)
 23fd9da:	f000 fe77 	bl	23fe6cc <atexit>
	return _usbserial;
}
 23fd9de:	4802      	ldr	r0, [pc, #8]	; (23fd9e8 <_Z16_fetch_usbserialv+0x40>)
 23fd9e0:	b008      	add	sp, #32
 23fd9e2:	bd10      	pop	{r4, pc}
 23fd9e4:	1007aec4 	.word	0x1007aec4
 23fd9e8:	1007aec8 	.word	0x1007aec8
 23fd9ec:	023fd8e5 	.word	0x023fd8e5

023fd9f0 <_Z26call_raw_interrupt_handlerPv>:
}

void call_raw_interrupt_handler(void* data)
{
    raw_interrupt_handler_t handler = raw_interrupt_handler_t(data);
    handler();
 23fd9f0:	4700      	bx	r0
	...

023fd9f4 <_Z15attachInterrupttPFvvE13InterruptModeah>:
    }
    return handler!=NULL;
}

bool attachInterrupt(uint16_t pin, raw_interrupt_handler_t handler, InterruptMode mode, int8_t priority, uint8_t subpriority)
{
 23fd9f4:	e92d 41ff 	stmdb	sp!, {r0, r1, r2, r3, r4, r5, r6, r7, r8, lr}
 23fd9f8:	461d      	mov	r5, r3
    hal_interrupt_detach(pin);
    hal_interrupt_extra_configuration_t extra = {};
 23fd9fa:	2400      	movs	r4, #0
{
 23fd9fc:	460f      	mov	r7, r1
 23fd9fe:	4690      	mov	r8, r2
 23fda00:	4606      	mov	r6, r0
    hal_interrupt_detach(pin);
 23fda02:	f7fd f8dd 	bl	23fabc0 <hal_interrupt_detach>
  extra.version = HAL_INTERRUPT_EXTRA_CONFIGURATION_VERSION_1;
 23fda06:	2304      	movs	r3, #4
  if (priority >= 0) {
 23fda08:	42a5      	cmp	r5, r4
  extra.version = HAL_INTERRUPT_EXTRA_CONFIGURATION_VERSION_1;
 23fda0a:	f88d 3008 	strb.w	r3, [sp, #8]
    extra.IRQChannelSubPriority = subpriority;
 23fda0e:	bfa8      	it	ge
 23fda10:	f89d 3028 	ldrbge.w	r3, [sp, #40]	; 0x28
    hal_interrupt_extra_configuration_t extra = {};
 23fda14:	f8cd 4009 	str.w	r4, [sp, #9]
    return &extra;
 23fda18:	bfa4      	itt	ge
 23fda1a:	ac02      	addge	r4, sp, #8
    extra.IRQChannelSubPriority = subpriority;
 23fda1c:	f88d 300a 	strbge.w	r3, [sp, #10]
    if (SYSTEM_ERROR_NONE != hal_interrupt_attach(pin, call_raw_interrupt_handler, (void*)handler, mode, configure_interrupt(extra, priority, subpriority))) {
 23fda20:	463a      	mov	r2, r7
 23fda22:	4643      	mov	r3, r8
 23fda24:	4630      	mov	r0, r6
 23fda26:	4906      	ldr	r1, [pc, #24]	; (23fda40 <_Z15attachInterrupttPFvvE13InterruptModeah+0x4c>)
 23fda28:	9400      	str	r4, [sp, #0]
    extra.IRQChannelPreemptionPriority = (uint8_t)priority;
 23fda2a:	bfa8      	it	ge
 23fda2c:	f88d 5009 	strbge.w	r5, [sp, #9]
    if (SYSTEM_ERROR_NONE != hal_interrupt_attach(pin, call_raw_interrupt_handler, (void*)handler, mode, configure_interrupt(extra, priority, subpriority))) {
 23fda30:	f7fd f8b8 	bl	23faba4 <hal_interrupt_attach>
        return false;
    }
    return true;
}
 23fda34:	fab0 f080 	clz	r0, r0
 23fda38:	0940      	lsrs	r0, r0, #5
 23fda3a:	b004      	add	sp, #16
 23fda3c:	e8bd 81f0 	ldmia.w	sp!, {r4, r5, r6, r7, r8, pc}
 23fda40:	023fd9f1 	.word	0x023fd9f1

023fda44 <_ZN11USARTSerialD1Ev>:
private:
  hal_usart_interface_t _serial;
  bool _blocking;
public:
  USARTSerial(hal_usart_interface_t serial, const hal_usart_buffer_config_t& config);
  virtual ~USARTSerial() {};
 23fda44:	4770      	bx	lr

023fda46 <_ZN11USARTSerial14blockOnOverrunEb>:
    hal_usart_half_duplex(_serial, Enable);
}

void USARTSerial::blockOnOverrun(bool block)
{
  _blocking = block;
 23fda46:	7441      	strb	r1, [r0, #17]
}
 23fda48:	4770      	bx	lr

023fda4a <_ZN11USARTSerial17availableForWriteEv>:


int USARTSerial::availableForWrite(void)
{
 23fda4a:	b508      	push	{r3, lr}
  return std::max(0, (int)hal_usart_available_data_for_write(_serial));
 23fda4c:	7c00      	ldrb	r0, [r0, #16]
 23fda4e:	f7fd fa23 	bl	23fae98 <hal_usart_available_data_for_write>
}
 23fda52:	ea20 70e0 	bic.w	r0, r0, r0, asr #31
 23fda56:	bd08      	pop	{r3, pc}

023fda58 <_ZN11USARTSerial9availableEv>:

int USARTSerial::available(void)
{
 23fda58:	b508      	push	{r3, lr}
  return std::max(0, (int)hal_usart_available(_serial));
 23fda5a:	7c00      	ldrb	r0, [r0, #16]
 23fda5c:	f7fd f9d6 	bl	23fae0c <hal_usart_available>
}
 23fda60:	ea20 70e0 	bic.w	r0, r0, r0, asr #31
 23fda64:	bd08      	pop	{r3, pc}

023fda66 <_ZN11USARTSerial4peekEv>:

int USARTSerial::peek(void)
{
 23fda66:	b508      	push	{r3, lr}
  return std::max(-1, (int)hal_usart_peek(_serial));
 23fda68:	7c00      	ldrb	r0, [r0, #16]
 23fda6a:	f7fd f9eb 	bl	23fae44 <hal_usart_peek>
}
 23fda6e:	ea40 70e0 	orr.w	r0, r0, r0, asr #31
 23fda72:	bd08      	pop	{r3, pc}

023fda74 <_ZN11USARTSerial4readEv>:

int USARTSerial::read(void)
{
 23fda74:	b508      	push	{r3, lr}
  return std::max(-1, (int)hal_usart_read(_serial));
 23fda76:	7c00      	ldrb	r0, [r0, #16]
 23fda78:	f7fd f9d6 	bl	23fae28 <hal_usart_read>
}
 23fda7c:	ea40 70e0 	orr.w	r0, r0, r0, asr #31
 23fda80:	bd08      	pop	{r3, pc}

023fda82 <_ZN11USARTSerial5flushEv>:

void USARTSerial::flush()
{
  hal_usart_flush(_serial);
 23fda82:	7c00      	ldrb	r0, [r0, #16]
 23fda84:	f7fd b9ec 	b.w	23fae60 <hal_usart_flush>

023fda88 <_ZN11USARTSerial5writeEh>:
}

size_t USARTSerial::write(uint8_t c)
{
 23fda88:	b537      	push	{r0, r1, r2, r4, r5, lr}
  // attempt a write if blocking, or for non-blocking if there is room.
  if (_blocking || hal_usart_available_data_for_write(_serial) > 0) {
 23fda8a:	7c45      	ldrb	r5, [r0, #17]
{
 23fda8c:	4604      	mov	r4, r0
  if (_blocking || hal_usart_available_data_for_write(_serial) > 0) {
 23fda8e:	b12d      	cbz	r5, 23fda9c <_ZN11USARTSerial5writeEh+0x14>
    // the HAL always blocks.
	  return hal_usart_write(_serial, c);
 23fda90:	7c20      	ldrb	r0, [r4, #16]
  }
  return 0;
}
 23fda92:	b003      	add	sp, #12
 23fda94:	e8bd 4030 	ldmia.w	sp!, {r4, r5, lr}
	  return hal_usart_write(_serial, c);
 23fda98:	f7fd b9aa 	b.w	23fadf0 <hal_usart_write>
  if (_blocking || hal_usart_available_data_for_write(_serial) > 0) {
 23fda9c:	7c00      	ldrb	r0, [r0, #16]
 23fda9e:	9101      	str	r1, [sp, #4]
 23fdaa0:	f7fd f9fa 	bl	23fae98 <hal_usart_available_data_for_write>
 23fdaa4:	2800      	cmp	r0, #0
 23fdaa6:	9901      	ldr	r1, [sp, #4]
 23fdaa8:	dcf2      	bgt.n	23fda90 <_ZN11USARTSerial5writeEh+0x8>
}
 23fdaaa:	4628      	mov	r0, r5
 23fdaac:	b003      	add	sp, #12
 23fdaae:	bd30      	pop	{r4, r5, pc}

023fdab0 <_ZN11USARTSerialD0Ev>:
 23fdab0:	b510      	push	{r4, lr}
 23fdab2:	4604      	mov	r4, r0
 23fdab4:	2114      	movs	r1, #20
 23fdab6:	f7fb f800 	bl	23f8aba <_ZdlPvj>
 23fdaba:	4620      	mov	r0, r4
 23fdabc:	bd10      	pop	{r4, pc}
	...

023fdac0 <_ZN11USARTSerialC1E21hal_usart_interface_tRK25hal_usart_buffer_config_t>:
USARTSerial::USARTSerial(hal_usart_interface_t serial, const hal_usart_buffer_config_t& config)
 23fdac0:	b510      	push	{r4, lr}
 23fdac2:	f44f 737a 	mov.w	r3, #1000	; 0x3e8
 23fdac6:	4604      	mov	r4, r0
 23fdac8:	4608      	mov	r0, r1
 23fdaca:	4611      	mov	r1, r2
 23fdacc:	2200      	movs	r2, #0
 23fdace:	e9c4 2301 	strd	r2, r3, [r4, #4]
 23fdad2:	4b04      	ldr	r3, [pc, #16]	; (23fdae4 <_ZN11USARTSerialC1E21hal_usart_interface_tRK25hal_usart_buffer_config_t+0x24>)
  _serial = serial;
 23fdad4:	7420      	strb	r0, [r4, #16]
USARTSerial::USARTSerial(hal_usart_interface_t serial, const hal_usart_buffer_config_t& config)
 23fdad6:	6023      	str	r3, [r4, #0]
  _blocking = true;
 23fdad8:	2301      	movs	r3, #1
 23fdada:	7463      	strb	r3, [r4, #17]
  hal_usart_init_ex(serial, &config, nullptr);
 23fdadc:	f7fd f9f8 	bl	23faed0 <hal_usart_init_ex>
}
 23fdae0:	4620      	mov	r0, r4
 23fdae2:	bd10      	pop	{r4, pc}
 23fdae4:	023ffc74 	.word	0x023ffc74

023fdae8 <_ZN11USARTSerial5beginEmm>:
  hal_usart_begin_config(_serial, baud, config, nullptr);
 23fdae8:	2300      	movs	r3, #0
 23fdaea:	7c00      	ldrb	r0, [r0, #16]
 23fdaec:	f7fd b9e2 	b.w	23faeb4 <hal_usart_begin_config>

023fdaf0 <_ZN11USARTSerial5beginEm>:
  begin(baud, SERIAL_8N1);
 23fdaf0:	2200      	movs	r2, #0
 23fdaf2:	f7ff bff9 	b.w	23fdae8 <_ZN11USARTSerial5beginEmm>

023fdaf6 <_ZN11USARTSerial3endEv>:
  hal_usart_end(_serial);
 23fdaf6:	7c00      	ldrb	r0, [r0, #16]
 23fdaf8:	f7fd b96c 	b.w	23fadd4 <hal_usart_end>

023fdafc <_ZN11USARTSerial9isEnabledEv>:
USARTSerial::operator bool() {
  return true;
}

bool USARTSerial::isEnabled() {
  return hal_usart_is_enabled(_serial);
 23fdafc:	7c00      	ldrb	r0, [r0, #16]
 23fdafe:	f7fd b9bd 	b.w	23fae7c <hal_usart_is_enabled>

023fdb02 <_ZN8particle6detail21futureCallbackWrapperEPv>:
 * License along with this library; if not, see <http://www.gnu.org/licenses/>.
 */

#include "spark_wiring_async.h"

void particle::detail::futureCallbackWrapper(void* data) {
 23fdb02:	b510      	push	{r4, lr}
      if (_M_empty())
 23fdb04:	6883      	ldr	r3, [r0, #8]
 23fdb06:	4604      	mov	r4, r0
 23fdb08:	b90b      	cbnz	r3, 23fdb0e <_ZN8particle6detail21futureCallbackWrapperEPv+0xc>
	__throw_bad_function_call();
 23fdb0a:	f000 fcca 	bl	23fe4a2 <_ZSt25__throw_bad_function_callv>
      return _M_invoker(_M_functor, std::forward<_ArgTypes>(__args)...);
 23fdb0e:	68c3      	ldr	r3, [r0, #12]
 23fdb10:	4798      	blx	r3
      if (_M_manager)
 23fdb12:	68a3      	ldr	r3, [r4, #8]
 23fdb14:	b11b      	cbz	r3, 23fdb1e <_ZN8particle6detail21futureCallbackWrapperEPv+0x1c>
	_M_manager(_M_functor, _M_functor, __destroy_functor);
 23fdb16:	2203      	movs	r2, #3
 23fdb18:	4621      	mov	r1, r4
 23fdb1a:	4620      	mov	r0, r4
 23fdb1c:	4798      	blx	r3
    auto callbackPtr = static_cast<const std::function<void()>*>(data);
    (*callbackPtr)();
    delete callbackPtr;
 23fdb1e:	4620      	mov	r0, r4
}
 23fdb20:	e8bd 4010 	ldmia.w	sp!, {r4, lr}
    delete callbackPtr;
 23fdb24:	2110      	movs	r1, #16
 23fdb26:	f7fa bfc8 	b.w	23f8aba <_ZdlPvj>

023fdb2a <_ZN7TwoWireD1Ev>:
private:
  hal_i2c_interface_t _i2c;

public:
  TwoWire(hal_i2c_interface_t i2c, const hal_i2c_config_t& config);
  virtual ~TwoWire() {};
 23fdb2a:	4770      	bx	lr

023fdb2c <_ZN7TwoWire5writeEPKhj>:

// must be called in:
// slave tx event callback
// or after beginTransmission(address)
size_t TwoWire::write(const uint8_t *data, size_t quantity)
{
 23fdb2c:	b5f8      	push	{r3, r4, r5, r6, r7, lr}
 23fdb2e:	4606      	mov	r6, r0
 23fdb30:	4615      	mov	r5, r2
 23fdb32:	460c      	mov	r4, r1
 23fdb34:	188f      	adds	r7, r1, r2
  // in master/slave transmitter mode
  for(size_t i = 0; i < quantity; ++i)
 23fdb36:	42bc      	cmp	r4, r7
 23fdb38:	d006      	beq.n	23fdb48 <_ZN7TwoWire5writeEPKhj+0x1c>
  {
    write(data[i]);
 23fdb3a:	6833      	ldr	r3, [r6, #0]
 23fdb3c:	4630      	mov	r0, r6
 23fdb3e:	689b      	ldr	r3, [r3, #8]
 23fdb40:	f814 1b01 	ldrb.w	r1, [r4], #1
 23fdb44:	4798      	blx	r3
  for(size_t i = 0; i < quantity; ++i)
 23fdb46:	e7f6      	b.n	23fdb36 <_ZN7TwoWire5writeEPKhj+0xa>
  }

  return quantity;
}
 23fdb48:	4628      	mov	r0, r5
 23fdb4a:	bdf8      	pop	{r3, r4, r5, r6, r7, pc}

023fdb4c <_ZN7TwoWire5writeEh>:
  return hal_i2c_write(_i2c, data, NULL);
 23fdb4c:	2200      	movs	r2, #0
 23fdb4e:	7c00      	ldrb	r0, [r0, #16]
 23fdb50:	f7fd b9f6 	b.w	23faf40 <hal_i2c_write>

023fdb54 <_ZN7TwoWire9availableEv>:
// must be called in:
// slave rx event callback
// or after requestFrom(address, numBytes)
int TwoWire::available(void)
{
  return hal_i2c_available(_i2c, NULL);
 23fdb54:	2100      	movs	r1, #0
 23fdb56:	7c00      	ldrb	r0, [r0, #16]
 23fdb58:	f7fd ba00 	b.w	23faf5c <hal_i2c_available>

023fdb5c <_ZN7TwoWire4readEv>:
// must be called in:
// slave rx event callback
// or after requestFrom(address, numBytes)
int TwoWire::read(void)
{
  return hal_i2c_read(_i2c, NULL);
 23fdb5c:	2100      	movs	r1, #0
 23fdb5e:	7c00      	ldrb	r0, [r0, #16]
 23fdb60:	f7fd ba0a 	b.w	23faf78 <hal_i2c_read>

023fdb64 <_ZN7TwoWire4peekEv>:
// must be called in:
// slave rx event callback
// or after requestFrom(address, numBytes)
int TwoWire::peek(void)
{
  return hal_i2c_peek(_i2c, NULL);
 23fdb64:	2100      	movs	r1, #0
 23fdb66:	7c00      	ldrb	r0, [r0, #16]
 23fdb68:	f7fd ba14 	b.w	23faf94 <hal_i2c_peek>

023fdb6c <_ZN7TwoWire5flushEv>:
}

void TwoWire::flush(void)
{
  hal_i2c_flush(_i2c, NULL);
 23fdb6c:	2100      	movs	r1, #0
 23fdb6e:	7c00      	ldrb	r0, [r0, #16]
 23fdb70:	f7fd ba1e 	b.w	23fafb0 <hal_i2c_flush>

023fdb74 <_ZN7TwoWireD0Ev>:
 23fdb74:	b510      	push	{r4, lr}
 23fdb76:	4604      	mov	r4, r0
 23fdb78:	2114      	movs	r1, #20
 23fdb7a:	f7fa ff9e 	bl	23f8aba <_ZdlPvj>
 23fdb7e:	4620      	mov	r0, r4
 23fdb80:	bd10      	pop	{r4, pc}
	...

023fdb84 <_ZN7TwoWireC1E19hal_i2c_interface_tRK16hal_i2c_config_t>:
TwoWire::TwoWire(hal_i2c_interface_t i2c, const hal_i2c_config_t& conf)
 23fdb84:	b538      	push	{r3, r4, r5, lr}
 23fdb86:	4604      	mov	r4, r0
 23fdb88:	4615      	mov	r5, r2
 23fdb8a:	f44f 737a 	mov.w	r3, #1000	; 0x3e8
 23fdb8e:	2200      	movs	r2, #0
 23fdb90:	e9c4 2301 	strd	r2, r3, [r4, #4]
 23fdb94:	4b09      	ldr	r3, [pc, #36]	; (23fdbbc <_ZN7TwoWireC1E19hal_i2c_interface_tRK16hal_i2c_config_t+0x38>)
 23fdb96:	4608      	mov	r0, r1
  _i2c = i2c;
 23fdb98:	7421      	strb	r1, [r4, #16]
TwoWire::TwoWire(hal_i2c_interface_t i2c, const hal_i2c_config_t& conf)
 23fdb9a:	6023      	str	r3, [r4, #0]
  int result = hal_i2c_init(_i2c, &conf);
 23fdb9c:	4629      	mov	r1, r5
 23fdb9e:	f7fd fa23 	bl	23fafe8 <hal_i2c_init>
  if (result == SYSTEM_ERROR_NOT_ENOUGH_DATA && 
 23fdba2:	30bf      	adds	r0, #191	; 0xbf
 23fdba4:	d108      	bne.n	23fdbb8 <_ZN7TwoWireC1E19hal_i2c_interface_tRK16hal_i2c_config_t+0x34>
      (conf.flags & HAL_I2C_CONFIG_FLAG_FREEABLE)) {
 23fdba6:	696b      	ldr	r3, [r5, #20]
  if (result == SYSTEM_ERROR_NOT_ENOUGH_DATA && 
 23fdba8:	07db      	lsls	r3, r3, #31
 23fdbaa:	d505      	bpl.n	23fdbb8 <_ZN7TwoWireC1E19hal_i2c_interface_tRK16hal_i2c_config_t+0x34>
    free(conf.rx_buffer);
 23fdbac:	6868      	ldr	r0, [r5, #4]
 23fdbae:	f7fd fd2b 	bl	23fb608 <free>
    free(conf.tx_buffer);
 23fdbb2:	68e8      	ldr	r0, [r5, #12]
 23fdbb4:	f7fd fd28 	bl	23fb608 <free>
}
 23fdbb8:	4620      	mov	r0, r4
 23fdbba:	bd38      	pop	{r3, r4, r5, pc}
 23fdbbc:	023ffca4 	.word	0x023ffca4

023fdbc0 <_ZN7TwoWire5beginEv>:
	hal_i2c_begin(_i2c, I2C_MODE_MASTER, 0x00, NULL);
 23fdbc0:	2300      	movs	r3, #0
 23fdbc2:	7c00      	ldrb	r0, [r0, #16]
 23fdbc4:	461a      	mov	r2, r3
 23fdbc6:	4619      	mov	r1, r3
 23fdbc8:	f7fd b990 	b.w	23faeec <hal_i2c_begin>

023fdbcc <_ZN7TwoWire11requestFromERK16WireTransmission>:
size_t TwoWire::requestFrom(const WireTransmission& transfer) {
 23fdbcc:	b57f      	push	{r0, r1, r2, r3, r4, r5, r6, lr}
    hal_i2c_transmission_config_t conf = {
 23fdbce:	2200      	movs	r2, #0
 23fdbd0:	2314      	movs	r3, #20
 23fdbd2:	e9cd 2201 	strd	r2, r2, [sp, #4]
 23fdbd6:	f8ad 3004 	strh.w	r3, [sp, #4]
    };
 23fdbda:	780b      	ldrb	r3, [r1, #0]
  return hal_i2c_request_ex(_i2c, &conf, nullptr);
 23fdbdc:	7c00      	ldrb	r0, [r0, #16]
 23fdbde:	f88d 3008 	strb.w	r3, [sp, #8]
 23fdbe2:	684b      	ldr	r3, [r1, #4]
 23fdbe4:	9303      	str	r3, [sp, #12]
 23fdbe6:	68cb      	ldr	r3, [r1, #12]
 23fdbe8:	9304      	str	r3, [sp, #16]
      .flags = (uint32_t)(stop_ ? HAL_I2C_TRANSMISSION_FLAG_STOP : 0)
 23fdbea:	7a0b      	ldrb	r3, [r1, #8]
 23fdbec:	a901      	add	r1, sp, #4
 23fdbee:	9305      	str	r3, [sp, #20]
 23fdbf0:	f7fd fa08 	bl	23fb004 <hal_i2c_request_ex>
}
 23fdbf4:	b007      	add	sp, #28
 23fdbf6:	f85d fb04 	ldr.w	pc, [sp], #4

023fdbfa <_ZN7TwoWire11requestFromEhjh>:
{
 23fdbfa:	b51f      	push	{r0, r1, r2, r3, r4, lr}
  return requestFrom(WireTransmission(address).quantity(quantity).stop(sendStop));
 23fdbfc:	3b00      	subs	r3, #0
        timeout_{HAL_I2C_DEFAULT_TIMEOUT_MS} {
 23fdbfe:	f88d 1000 	strb.w	r1, [sp]
 23fdc02:	f04f 0164 	mov.w	r1, #100	; 0x64
 23fdc06:	bf18      	it	ne
 23fdc08:	2301      	movne	r3, #1
 23fdc0a:	9103      	str	r1, [sp, #12]
 23fdc0c:	4669      	mov	r1, sp
    size_ = size;
 23fdc0e:	9201      	str	r2, [sp, #4]
 23fdc10:	f88d 3008 	strb.w	r3, [sp, #8]
 23fdc14:	f7ff ffda 	bl	23fdbcc <_ZN7TwoWire11requestFromERK16WireTransmission>
}
 23fdc18:	b005      	add	sp, #20
 23fdc1a:	f85d fb04 	ldr.w	pc, [sp], #4

023fdc1e <_ZN7TwoWire11requestFromEhj>:
  return requestFrom(address, quantity, (uint8_t)true);
 23fdc1e:	2301      	movs	r3, #1
 23fdc20:	f7ff bfeb 	b.w	23fdbfa <_ZN7TwoWire11requestFromEhjh>

023fdc24 <_ZN7TwoWire17beginTransmissionEh>:
	hal_i2c_begin_transmission(_i2c, address, NULL);
 23fdc24:	2200      	movs	r2, #0
 23fdc26:	7c00      	ldrb	r0, [r0, #16]
 23fdc28:	f7fd b96e 	b.w	23faf08 <hal_i2c_begin_transmission>

023fdc2c <_ZN7TwoWire15endTransmissionEh>:
	return hal_i2c_end_transmission(_i2c, sendStop, NULL);
 23fdc2c:	2200      	movs	r2, #0
 23fdc2e:	7c00      	ldrb	r0, [r0, #16]
 23fdc30:	f7fd b978 	b.w	23faf24 <hal_i2c_end_transmission>

023fdc34 <_ZN5spark9WiFiClass5readyEv>:
    bool connecting(void) {
        return network_connecting(*this, 0, NULL);
    }

    bool ready(void) {
        return network_ready(*this, 0, NULL);
 23fdc34:	2200      	movs	r2, #0
 23fdc36:	6840      	ldr	r0, [r0, #4]
 23fdc38:	4611      	mov	r1, r2
 23fdc3a:	f7fd bba3 	b.w	23fb384 <network_ready>

023fdc3e <_ZN5spark9WiFiClass9listeningEv>:
    uint16_t getListenTimeout(void) {
        return network_get_listen_timeout(*this, 0, NULL);
    }

    bool listening(void) {
        return network_listening(*this, 0, NULL);
 23fdc3e:	2200      	movs	r2, #0
 23fdc40:	6840      	ldr	r0, [r0, #4]
 23fdc42:	4611      	mov	r1, r2
 23fdc44:	f7fd bbd6 	b.w	23fb3f4 <network_listening>

023fdc48 <_ZN5spark9WiFiClass16getListenTimeoutEv>:
        return network_get_listen_timeout(*this, 0, NULL);
 23fdc48:	2200      	movs	r2, #0
 23fdc4a:	6840      	ldr	r0, [r0, #4]
 23fdc4c:	4611      	mov	r1, r2
 23fdc4e:	f7fd bbed 	b.w	23fb42c <network_get_listen_timeout>

023fdc52 <_ZN5spark9WiFiClass16setListenTimeoutEt>:
        network_set_listen_timeout(*this, timeout, NULL);
 23fdc52:	2200      	movs	r2, #0
 23fdc54:	6840      	ldr	r0, [r0, #4]
 23fdc56:	f7fd bbdb 	b.w	23fb410 <network_set_listen_timeout>

023fdc5a <_ZN5spark9WiFiClass6listenEb>:
        network_listen(*this, begin ? 0 : 1, NULL);
 23fdc5a:	2200      	movs	r2, #0
 23fdc5c:	6840      	ldr	r0, [r0, #4]
 23fdc5e:	f081 0101 	eor.w	r1, r1, #1
 23fdc62:	f7fd bbb9 	b.w	23fb3d8 <network_listen>

023fdc66 <_ZN5spark9WiFiClass3offEv>:
        network_off(*this, 0, 0, NULL);
 23fdc66:	2300      	movs	r3, #0
 23fdc68:	6840      	ldr	r0, [r0, #4]
 23fdc6a:	461a      	mov	r2, r3
 23fdc6c:	4619      	mov	r1, r3
 23fdc6e:	f7fd bba5 	b.w	23fb3bc <network_off>

023fdc72 <_ZN5spark9WiFiClass2onEv>:
        network_on(*this, 0, 0, NULL);
 23fdc72:	2300      	movs	r3, #0
 23fdc74:	6840      	ldr	r0, [r0, #4]
 23fdc76:	461a      	mov	r2, r3
 23fdc78:	4619      	mov	r1, r3
 23fdc7a:	f7fd bb91 	b.w	23fb3a0 <network_on>

023fdc7e <_ZN5spark9WiFiClass10connectingEv>:
        return network_connecting(*this, 0, NULL);
 23fdc7e:	2200      	movs	r2, #0
 23fdc80:	6840      	ldr	r0, [r0, #4]
 23fdc82:	4611      	mov	r1, r2
 23fdc84:	f7fd bb62 	b.w	23fb34c <network_connecting>

023fdc88 <_ZN5spark9WiFiClass10disconnectEv>:
        network_disconnect(*this, NETWORK_DISCONNECT_REASON_USER, NULL);
 23fdc88:	2200      	movs	r2, #0
 23fdc8a:	2102      	movs	r1, #2
 23fdc8c:	6840      	ldr	r0, [r0, #4]
 23fdc8e:	f7fd bb6b 	b.w	23fb368 <network_disconnect>

023fdc92 <_ZN5spark9WiFiClass7connectEj>:
        network_connect(*this, flags, 0, NULL);
 23fdc92:	2300      	movs	r3, #0
 23fdc94:	6840      	ldr	r0, [r0, #4]
 23fdc96:	461a      	mov	r2, r3
 23fdc98:	f7fd bb4a 	b.w	23fb330 <network_connect>

023fdc9c <_GLOBAL__sub_I__ZN10WiFiSignalC2ERK21wlan_connected_info_t>:
 23fdc9c:	2204      	movs	r2, #4
 23fdc9e:	4b02      	ldr	r3, [pc, #8]	; (23fdca8 <_GLOBAL__sub_I__ZN10WiFiSignalC2ERK21wlan_connected_info_t+0xc>)
 23fdca0:	605a      	str	r2, [r3, #4]
            NetworkClass(NETWORK_INTERFACE_WIFI_STA) {
 23fdca2:	4a02      	ldr	r2, [pc, #8]	; (23fdcac <_GLOBAL__sub_I__ZN10WiFiSignalC2ERK21wlan_connected_info_t+0x10>)
 23fdca4:	601a      	str	r2, [r3, #0]
the same way.
*****************************************************************************/

    WiFiClass WiFi;
    // NetworkClass& Network = WiFi;
}
 23fdca6:	4770      	bx	lr
 23fdca8:	1007aedc 	.word	0x1007aedc
 23fdcac:	023ffccc 	.word	0x023ffccc

023fdcb0 <_ZN5spark12NetworkClass7connectEj>:
        return Network;
    }
}

void NetworkClass::connect(unsigned flags) {
    network_connect(*this, flags, 0, nullptr);
 23fdcb0:	2300      	movs	r3, #0
 23fdcb2:	6840      	ldr	r0, [r0, #4]
 23fdcb4:	461a      	mov	r2, r3
 23fdcb6:	f7fd bb3b 	b.w	23fb330 <network_connect>

023fdcba <_ZN5spark12NetworkClass10disconnectEv>:
}

void NetworkClass::disconnect() {
    network_disconnect(*this, NETWORK_DISCONNECT_REASON_USER, nullptr);
 23fdcba:	2200      	movs	r2, #0
 23fdcbc:	2102      	movs	r1, #2
 23fdcbe:	6840      	ldr	r0, [r0, #4]
 23fdcc0:	f7fd bb52 	b.w	23fb368 <network_disconnect>

023fdcc4 <_ZN5spark12NetworkClass10connectingEv>:
}

bool NetworkClass::connecting() {
    return network_connecting(*this, 0, nullptr);
 23fdcc4:	2200      	movs	r2, #0
 23fdcc6:	6840      	ldr	r0, [r0, #4]
 23fdcc8:	4611      	mov	r1, r2
 23fdcca:	f7fd bb3f 	b.w	23fb34c <network_connecting>

023fdcce <_ZN5spark12NetworkClass5readyEv>:
}

bool NetworkClass::ready() {
    return network_ready(*this, 0, nullptr);
 23fdcce:	2200      	movs	r2, #0
 23fdcd0:	6840      	ldr	r0, [r0, #4]
 23fdcd2:	4611      	mov	r1, r2
 23fdcd4:	f7fd bb56 	b.w	23fb384 <network_ready>

023fdcd8 <_ZN5spark12NetworkClass2onEv>:
}

void NetworkClass::on() {
    network_on(*this, 0, 0, nullptr);
 23fdcd8:	2300      	movs	r3, #0
 23fdcda:	6840      	ldr	r0, [r0, #4]
 23fdcdc:	461a      	mov	r2, r3
 23fdcde:	4619      	mov	r1, r3
 23fdce0:	f7fd bb5e 	b.w	23fb3a0 <network_on>

023fdce4 <_ZN5spark12NetworkClass3offEv>:
}

void NetworkClass::off() {
    network_off(*this, 0, 0, nullptr);
 23fdce4:	2300      	movs	r3, #0
 23fdce6:	6840      	ldr	r0, [r0, #4]
 23fdce8:	461a      	mov	r2, r3
 23fdcea:	4619      	mov	r1, r3
 23fdcec:	f7fd bb66 	b.w	23fb3bc <network_off>

023fdcf0 <_ZN5spark12NetworkClass4isOnEv>:
}

bool NetworkClass::isOn() {
    return network_is_on(*this, nullptr);
 23fdcf0:	2100      	movs	r1, #0
 23fdcf2:	6840      	ldr	r0, [r0, #4]
 23fdcf4:	f7fd bba8 	b.w	23fb448 <network_is_on>

023fdcf8 <_ZN5spark12NetworkClass5isOffEv>:
}

bool NetworkClass::isOff() {
    return network_is_off(*this, nullptr);
 23fdcf8:	2100      	movs	r1, #0
 23fdcfa:	6840      	ldr	r0, [r0, #4]
 23fdcfc:	f7fd bbb2 	b.w	23fb464 <network_is_off>

023fdd00 <_ZN5spark12NetworkClass6listenEb>:
}

void NetworkClass::listen(bool begin) {
    network_listen(*this, begin ? 0 : 1, nullptr);
 23fdd00:	2200      	movs	r2, #0
 23fdd02:	6840      	ldr	r0, [r0, #4]
 23fdd04:	f081 0101 	eor.w	r1, r1, #1
 23fdd08:	f7fd bb66 	b.w	23fb3d8 <network_listen>

023fdd0c <_ZN5spark12NetworkClass16setListenTimeoutEt>:
}

void NetworkClass::setListenTimeout(uint16_t timeout) {
    network_set_listen_timeout(*this, timeout, nullptr);
 23fdd0c:	2200      	movs	r2, #0
 23fdd0e:	6840      	ldr	r0, [r0, #4]
 23fdd10:	f7fd bb7e 	b.w	23fb410 <network_set_listen_timeout>

023fdd14 <_ZN5spark12NetworkClass16getListenTimeoutEv>:
}

uint16_t NetworkClass::getListenTimeout() {
    return network_get_listen_timeout(*this, 0, nullptr);
 23fdd14:	2200      	movs	r2, #0
 23fdd16:	6840      	ldr	r0, [r0, #4]
 23fdd18:	4611      	mov	r1, r2
 23fdd1a:	f7fd bb87 	b.w	23fb42c <network_get_listen_timeout>

023fdd1e <_ZN5spark12NetworkClass9listeningEv>:
}

bool NetworkClass::listening() {
    return network_listening(*this, 0, nullptr);
 23fdd1e:	2200      	movs	r2, #0
 23fdd20:	6840      	ldr	r0, [r0, #4]
 23fdd22:	4611      	mov	r1, r2
 23fdd24:	f7fd bb66 	b.w	23fb3f4 <network_listening>

023fdd28 <_ZN5spark12NetworkClass7resolveEPKc>:
}

IPAddress NetworkClass::resolve(const char* name) {
 23fdd28:	e92d 43f0 	stmdb	sp!, {r4, r5, r6, r7, r8, r9, lr}
 23fdd2c:	b095      	sub	sp, #84	; 0x54
 23fdd2e:	4614      	mov	r4, r2
 23fdd30:	460d      	mov	r5, r1
 23fdd32:	4607      	mov	r7, r0
    IPAddress addr;
 23fdd34:	f7ff fd96 	bl	23fd864 <_ZN9IPAddressC1Ev>
#if HAL_USE_INET_HAL_POSIX
    struct addrinfo *ai = nullptr;
 23fdd38:	2100      	movs	r1, #0
    struct addrinfo hints = {};
 23fdd3a:	221c      	movs	r2, #28
 23fdd3c:	a80d      	add	r0, sp, #52	; 0x34
    struct addrinfo *ai = nullptr;
 23fdd3e:	9100      	str	r1, [sp, #0]
    struct addrinfo hints = {};
 23fdd40:	f000 fcf9 	bl	23fe736 <memset>
    hints.ai_flags = AI_ADDRCONFIG;
 23fdd44:	2340      	movs	r3, #64	; 0x40
    hints.ai_family = AF_UNSPEC;
    const int r = getaddrinfo(name, nullptr, &hints, &ai);
 23fdd46:	4620      	mov	r0, r4
    hints.ai_flags = AI_ADDRCONFIG;
 23fdd48:	930c      	str	r3, [sp, #48]	; 0x30
    const int r = getaddrinfo(name, nullptr, &hints, &ai);
 23fdd4a:	2100      	movs	r1, #0
 23fdd4c:	466b      	mov	r3, sp
 23fdd4e:	aa0c      	add	r2, sp, #48	; 0x30
 23fdd50:	f7fc fee2 	bl	23fab18 <netdb_getaddrinfo>
    if (!r) {
 23fdd54:	4604      	mov	r4, r0
 23fdd56:	2800      	cmp	r0, #0
 23fdd58:	d14b      	bne.n	23fddf2 <_ZN5spark12NetworkClass7resolveEPKc+0xca>
        bool ok = false;
        // This is not really needed if AI_ADDRCONFIG is properly supported
        bool ipv4 = network_ready(*this, NETWORK_READY_TYPE_IPV4, nullptr);
 23fdd5a:	4602      	mov	r2, r0
 23fdd5c:	2101      	movs	r1, #1
 23fdd5e:	6868      	ldr	r0, [r5, #4]
 23fdd60:	f7fd fb10 	bl	23fb384 <network_ready>
        bool ipv6 = network_ready(*this, NETWORK_READY_TYPE_IPV6, nullptr);
 23fdd64:	2102      	movs	r1, #2
        bool ipv4 = network_ready(*this, NETWORK_READY_TYPE_IPV4, nullptr);
 23fdd66:	4680      	mov	r8, r0
        bool ipv6 = network_ready(*this, NETWORK_READY_TYPE_IPV6, nullptr);
 23fdd68:	4622      	mov	r2, r4
 23fdd6a:	6868      	ldr	r0, [r5, #4]
 23fdd6c:	f7fd fb0a 	bl	23fb384 <network_ready>
        bool ok = false;
 23fdd70:	4621      	mov	r1, r4
        bool ipv6 = network_ready(*this, NETWORK_READY_TYPE_IPV6, nullptr);
 23fdd72:	4681      	mov	r9, r0
        for (auto cur = ai; cur != nullptr && !ok; cur = cur->ai_next) {
 23fdd74:	9e00      	ldr	r6, [sp, #0]
 23fdd76:	2e00      	cmp	r6, #0
 23fdd78:	d03b      	beq.n	23fddf2 <_ZN5spark12NetworkClass7resolveEPKc+0xca>
 23fdd7a:	2900      	cmp	r1, #0
 23fdd7c:	d139      	bne.n	23fddf2 <_ZN5spark12NetworkClass7resolveEPKc+0xca>
            // NOTE: using only the first entry that matches the current state of IPv4/IPv6 connectivity
            switch (cur->ai_family) {
 23fdd7e:	6873      	ldr	r3, [r6, #4]
 23fdd80:	2b02      	cmp	r3, #2
 23fdd82:	d003      	beq.n	23fdd8c <_ZN5spark12NetworkClass7resolveEPKc+0x64>
 23fdd84:	2b0a      	cmp	r3, #10
 23fdd86:	d011      	beq.n	23fddac <_ZN5spark12NetworkClass7resolveEPKc+0x84>
        for (auto cur = ai; cur != nullptr && !ok; cur = cur->ai_next) {
 23fdd88:	69f6      	ldr	r6, [r6, #28]
 23fdd8a:	e7f4      	b.n	23fdd76 <_ZN5spark12NetworkClass7resolveEPKc+0x4e>
                case AF_INET: {
                    if (!ipv4) {
 23fdd8c:	f1b8 0f00 	cmp.w	r8, #0
 23fdd90:	d0fa      	beq.n	23fdd88 <_ZN5spark12NetworkClass7resolveEPKc+0x60>
                        continue;
                    }
                    // NOTE: HAL_IPAddress is little-endian
                    auto in = (struct sockaddr_in*)cur->ai_addr;
                    addr = (const uint8_t*)(&in->sin_addr.s_addr);
 23fdd92:	6971      	ldr	r1, [r6, #20]
        return *this = IPAddress(address);
 23fdd94:	a806      	add	r0, sp, #24
 23fdd96:	3104      	adds	r1, #4
class IPAddress : public Printable {
 23fdd98:	1d3c      	adds	r4, r7, #4
 23fdd9a:	ad07      	add	r5, sp, #28
        return *this = IPAddress(address);
 23fdd9c:	f7ff fd90 	bl	23fd8c0 <_ZN9IPAddressC1EPKh>
class IPAddress : public Printable {
 23fdda0:	cd0f      	ldmia	r5!, {r0, r1, r2, r3}
 23fdda2:	c40f      	stmia	r4!, {r0, r1, r2, r3}
 23fdda4:	682b      	ldr	r3, [r5, #0]
                    ok = true;
 23fdda6:	4641      	mov	r1, r8
 23fdda8:	7023      	strb	r3, [r4, #0]
        return *this = IPAddress(address);
 23fddaa:	e7ed      	b.n	23fdd88 <_ZN5spark12NetworkClass7resolveEPKc+0x60>
                    break;
                }
                case AF_INET6: {
                    if (!ipv6) {
 23fddac:	f1b9 0f00 	cmp.w	r9, #0
 23fddb0:	d0ea      	beq.n	23fdd88 <_ZN5spark12NetworkClass7resolveEPKc+0x60>
                        continue;
                    }
                    auto in6 = (struct sockaddr_in6*)cur->ai_addr;
                    HAL_IPAddress a = {};
 23fddb2:	2210      	movs	r2, #16
 23fddb4:	a801      	add	r0, sp, #4
                    auto in6 = (struct sockaddr_in6*)cur->ai_addr;
 23fddb6:	6974      	ldr	r4, [r6, #20]
                    HAL_IPAddress a = {};
 23fddb8:	f000 fcbd 	bl	23fe736 <memset>
                    a.v = 6;
 23fddbc:	2306      	movs	r3, #6
                    memcpy(a.ipv6, in6->sin6_addr.s6_addr, sizeof(a.ipv6));
 23fddbe:	ad01      	add	r5, sp, #4
                    a.v = 6;
 23fddc0:	f88d 3014 	strb.w	r3, [sp, #20]
                    memcpy(a.ipv6, in6->sin6_addr.s6_addr, sizeof(a.ipv6));
 23fddc4:	f104 0308 	add.w	r3, r4, #8
 23fddc8:	3418      	adds	r4, #24
 23fddca:	462a      	mov	r2, r5
 23fddcc:	6818      	ldr	r0, [r3, #0]
 23fddce:	6859      	ldr	r1, [r3, #4]
 23fddd0:	3308      	adds	r3, #8
 23fddd2:	c203      	stmia	r2!, {r0, r1}
 23fddd4:	42a3      	cmp	r3, r4
 23fddd6:	4615      	mov	r5, r2
 23fddd8:	d1f7      	bne.n	23fddca <_ZN5spark12NetworkClass7resolveEPKc+0xa2>
                    addr = IPAddress(a);
 23fddda:	a901      	add	r1, sp, #4
 23fdddc:	a806      	add	r0, sp, #24
class IPAddress : public Printable {
 23fddde:	1d3c      	adds	r4, r7, #4
 23fdde0:	ad07      	add	r5, sp, #28
 23fdde2:	f7ff fd4d 	bl	23fd880 <_ZN9IPAddressC1ERK16_HAL_IPAddress_t>
 23fdde6:	cd0f      	ldmia	r5!, {r0, r1, r2, r3}
 23fdde8:	c40f      	stmia	r4!, {r0, r1, r2, r3}
 23fddea:	682b      	ldr	r3, [r5, #0]
                    ok = true;
 23fddec:	4649      	mov	r1, r9
 23fddee:	7023      	strb	r3, [r4, #0]
                    break;
 23fddf0:	e7ca      	b.n	23fdd88 <_ZN5spark12NetworkClass7resolveEPKc+0x60>
                }
            }
        }
    }
    freeaddrinfo(ai);
 23fddf2:	9800      	ldr	r0, [sp, #0]
 23fddf4:	f7fc fe82 	bl	23faafc <netdb_freeaddrinfo>
    return Cellular.resolve(name);
#endif // Wiring_Cellular

#endif // HAL_USE_INET_HAL_POSIX
    return addr;
}
 23fddf8:	4638      	mov	r0, r7
 23fddfa:	b015      	add	sp, #84	; 0x54
 23fddfc:	e8bd 83f0 	ldmia.w	sp!, {r4, r5, r6, r7, r8, r9, pc}

023fde00 <_GLOBAL__sub_I__ZN5spark7NetworkE>:
 23fde00:	4b02      	ldr	r3, [pc, #8]	; (23fde0c <_GLOBAL__sub_I__ZN5spark7NetworkE+0xc>)
 23fde02:	4a03      	ldr	r2, [pc, #12]	; (23fde10 <_GLOBAL__sub_I__ZN5spark7NetworkE+0x10>)
 23fde04:	601a      	str	r2, [r3, #0]
 23fde06:	2200      	movs	r2, #0
 23fde08:	605a      	str	r2, [r3, #4]
    network_free_configuration(c, count, nullptr);
    return res;
}
#endif // HAL_USE_SOCKET_HAL_POSIX

} // spark
 23fde0a:	4770      	bx	lr
 23fde0c:	1007aee4 	.word	0x1007aee4
 23fde10:	023ffd08 	.word	0x023ffd08

023fde14 <_ZN12_GLOBAL__N_19skipTokenEPK9jsmntok_t>:

namespace {

// Skips token and all its children tokens if any
const jsmntok_t* skipToken(const jsmntok_t *t) {
    size_t n = 1;
 23fde14:	2201      	movs	r2, #1
 23fde16:	f100 0310 	add.w	r3, r0, #16
    do {
        if (t->type == JSMN_OBJECT) {
 23fde1a:	f813 1c10 	ldrb.w	r1, [r3, #-16]
 23fde1e:	4618      	mov	r0, r3
 23fde20:	2901      	cmp	r1, #1
 23fde22:	d108      	bne.n	23fde36 <_ZN12_GLOBAL__N_19skipTokenEPK9jsmntok_t+0x22>
            n += t->size * 2; // Number of name and value tokens
 23fde24:	f853 1c04 	ldr.w	r1, [r3, #-4]
 23fde28:	eb02 0241 	add.w	r2, r2, r1, lsl #1
        } else if (t->type == JSMN_ARRAY) {
            n += t->size; // Number of value tokens
        }
        ++t;
        --n;
    } while (n);
 23fde2c:	3a01      	subs	r2, #1
 23fde2e:	f103 0310 	add.w	r3, r3, #16
 23fde32:	d1f2      	bne.n	23fde1a <_ZN12_GLOBAL__N_19skipTokenEPK9jsmntok_t+0x6>
    return t;
}
 23fde34:	4770      	bx	lr
        } else if (t->type == JSMN_ARRAY) {
 23fde36:	2902      	cmp	r1, #2
            n += t->size; // Number of value tokens
 23fde38:	bf04      	itt	eq
 23fde3a:	f853 1c04 	ldreq.w	r1, [r3, #-4]
 23fde3e:	1852      	addeq	r2, r2, r1
 23fde40:	e7f4      	b.n	23fde2c <_ZN12_GLOBAL__N_19skipTokenEPK9jsmntok_t+0x18>

023fde42 <_ZN5spark10JSONWriter6printfEPKcz>:
    write("null", 4);
    state_ = NEXT;
    return *this;
}

void spark::JSONWriter::printf(const char *fmt, ...) {
 23fde42:	b40e      	push	{r1, r2, r3}
 23fde44:	b5f0      	push	{r4, r5, r6, r7, lr}
 23fde46:	b088      	sub	sp, #32
    char buf[16];
    va_list args;
    va_start(args, fmt);
    int n = vsnprintf(buf, sizeof(buf), fmt, args);
 23fde48:	2110      	movs	r1, #16
void spark::JSONWriter::printf(const char *fmt, ...) {
 23fde4a:	af00      	add	r7, sp, #0
 23fde4c:	f107 0534 	add.w	r5, r7, #52	; 0x34
 23fde50:	f855 2b04 	ldr.w	r2, [r5], #4
 23fde54:	4604      	mov	r4, r0
    int n = vsnprintf(buf, sizeof(buf), fmt, args);
 23fde56:	462b      	mov	r3, r5
 23fde58:	1878      	adds	r0, r7, r1
 23fde5a:	607a      	str	r2, [r7, #4]
    va_start(args, fmt);
 23fde5c:	60fd      	str	r5, [r7, #12]
    int n = vsnprintf(buf, sizeof(buf), fmt, args);
 23fde5e:	f7fd fbef 	bl	23fb640 <vsnprintf>
    va_end(args);
    if ((size_t)n >= sizeof(buf)) {
 23fde62:	280f      	cmp	r0, #15
 23fde64:	687a      	ldr	r2, [r7, #4]
 23fde66:	d91a      	bls.n	23fde9e <_ZN5spark10JSONWriter6printfEPKcz+0x5c>
        char buf[n + 1]; // Use larger buffer
 23fde68:	f100 0308 	add.w	r3, r0, #8
 23fde6c:	f023 0307 	bic.w	r3, r3, #7
        va_start(args, fmt);
        n = vsnprintf(buf, sizeof(buf), fmt, args);
        va_end(args);
        if (n > 0) {
            write(buf, n);
        }
 23fde70:	466e      	mov	r6, sp
        char buf[n + 1]; // Use larger buffer
 23fde72:	ebad 0d03 	sub.w	sp, sp, r3
        n = vsnprintf(buf, sizeof(buf), fmt, args);
 23fde76:	1c41      	adds	r1, r0, #1
 23fde78:	462b      	mov	r3, r5
 23fde7a:	4668      	mov	r0, sp
        va_start(args, fmt);
 23fde7c:	60fd      	str	r5, [r7, #12]
        n = vsnprintf(buf, sizeof(buf), fmt, args);
 23fde7e:	f7fd fbdf 	bl	23fb640 <vsnprintf>
        if (n > 0) {
 23fde82:	1e02      	subs	r2, r0, #0
 23fde84:	dd04      	ble.n	23fde90 <_ZN5spark10JSONWriter6printfEPKcz+0x4e>
            write(buf, n);
 23fde86:	6823      	ldr	r3, [r4, #0]
 23fde88:	4669      	mov	r1, sp
 23fde8a:	4620      	mov	r0, r4
 23fde8c:	689b      	ldr	r3, [r3, #8]
 23fde8e:	4798      	blx	r3
 23fde90:	46b5      	mov	sp, r6
    } else if (n > 0) {
        write(buf, n);
    }
}
 23fde92:	3720      	adds	r7, #32
 23fde94:	46bd      	mov	sp, r7
 23fde96:	e8bd 40f0 	ldmia.w	sp!, {r4, r5, r6, r7, lr}
 23fde9a:	b003      	add	sp, #12
 23fde9c:	4770      	bx	lr
    } else if (n > 0) {
 23fde9e:	2800      	cmp	r0, #0
 23fdea0:	d0f7      	beq.n	23fde92 <_ZN5spark10JSONWriter6printfEPKcz+0x50>
        write(buf, n);
 23fdea2:	6823      	ldr	r3, [r4, #0]
 23fdea4:	4602      	mov	r2, r0
 23fdea6:	689b      	ldr	r3, [r3, #8]
 23fdea8:	4620      	mov	r0, r4
 23fdeaa:	f107 0110 	add.w	r1, r7, #16
 23fdeae:	4798      	blx	r3
}
 23fdeb0:	e7ef      	b.n	23fde92 <_ZN5spark10JSONWriter6printfEPKcz+0x50>

023fdeb2 <_ZNSt12__shared_ptrIN5spark6detail8JSONDataELN9__gnu_cxx12_Lock_policyE0EEaSERKS5_.isra.0>:
      __shared_ptr& operator=(const __shared_ptr&) noexcept = default;
 23fdeb2:	b538      	push	{r3, r4, r5, lr}
 23fdeb4:	680b      	ldr	r3, [r1, #0]
 23fdeb6:	4604      	mov	r4, r0
 23fdeb8:	6003      	str	r3, [r0, #0]
 23fdeba:	684d      	ldr	r5, [r1, #4]
	if (__tmp != _M_pi)
 23fdebc:	6843      	ldr	r3, [r0, #4]
 23fdebe:	429d      	cmp	r5, r3
 23fdec0:	d008      	beq.n	23fded4 <_ZNSt12__shared_ptrIN5spark6detail8JSONDataELN9__gnu_cxx12_Lock_policyE0EEaSERKS5_.isra.0+0x22>
	    if (__tmp != 0)
 23fdec2:	b115      	cbz	r5, 23fdeca <_ZNSt12__shared_ptrIN5spark6detail8JSONDataELN9__gnu_cxx12_Lock_policyE0EEaSERKS5_.isra.0+0x18>
    { ++_M_use_count; }
 23fdec4:	686b      	ldr	r3, [r5, #4]
 23fdec6:	3301      	adds	r3, #1
 23fdec8:	606b      	str	r3, [r5, #4]
	    if (_M_pi != 0)
 23fdeca:	6860      	ldr	r0, [r4, #4]
 23fdecc:	b108      	cbz	r0, 23fded2 <_ZNSt12__shared_ptrIN5spark6detail8JSONDataELN9__gnu_cxx12_Lock_policyE0EEaSERKS5_.isra.0+0x20>
	      _M_pi->_M_release();
 23fdece:	f7fd ff22 	bl	23fbd16 <_ZNSt16_Sp_counted_baseILN9__gnu_cxx12_Lock_policyE0EE10_M_releaseEv>
	    _M_pi = __tmp;
 23fded2:	6065      	str	r5, [r4, #4]
      __shared_ptr& operator=(const __shared_ptr&) noexcept = default;
 23fded4:	bd38      	pop	{r3, r4, r5, pc}

023fded6 <_ZN5spark10JSONWriter5writeEc>:
inline void spark::JSONWriter::write(char c) {
 23fded6:	b507      	push	{r0, r1, r2, lr}
    write(&c, 1);
 23fded8:	6803      	ldr	r3, [r0, #0]
inline void spark::JSONWriter::write(char c) {
 23fdeda:	f88d 1007 	strb.w	r1, [sp, #7]
    write(&c, 1);
 23fdede:	2201      	movs	r2, #1
 23fdee0:	689b      	ldr	r3, [r3, #8]
 23fdee2:	f10d 0107 	add.w	r1, sp, #7
 23fdee6:	4798      	blx	r3
}
 23fdee8:	b003      	add	sp, #12
 23fdeea:	f85d fb04 	ldr.w	pc, [sp], #4

023fdeee <_ZN5spark9JSONValueC1EPK9jsmntok_tSt10shared_ptrINS_6detail8JSONDataEE>:
spark::JSONValue::JSONValue(const jsmntok_t *t, detail::JSONDataPtr d) :
 23fdeee:	460b      	mov	r3, r1
 23fdef0:	4611      	mov	r1, r2
      : _M_ptr(0), _M_refcount()
 23fdef2:	2200      	movs	r2, #0
 23fdef4:	b510      	push	{r4, lr}
 23fdef6:	4604      	mov	r4, r0
      constexpr __shared_count() noexcept : _M_pi(0)
 23fdef8:	e9c0 2200 	strd	r2, r2, [r0]
        t_ = t;
 23fdefc:	6083      	str	r3, [r0, #8]
    if (t) {
 23fdefe:	b90b      	cbnz	r3, 23fdf04 <_ZN5spark9JSONValueC1EPK9jsmntok_tSt10shared_ptrINS_6detail8JSONDataEE+0x16>
}
 23fdf00:	4620      	mov	r0, r4
 23fdf02:	bd10      	pop	{r4, pc}
       *  @brief  Construct an empty %shared_ptr.
       *  @post   use_count() == 0 && get() == nullptr
       */
      constexpr shared_ptr(nullptr_t) noexcept : shared_ptr() { }

      shared_ptr& operator=(const shared_ptr&) noexcept = default;
 23fdf04:	f7ff ffd5 	bl	23fdeb2 <_ZNSt12__shared_ptrIN5spark6detail8JSONDataELN9__gnu_cxx12_Lock_policyE0EEaSERKS5_.isra.0>
 23fdf08:	e7fa      	b.n	23fdf00 <_ZN5spark9JSONValueC1EPK9jsmntok_tSt10shared_ptrINS_6detail8JSONDataEE+0x12>

023fdf0a <_ZNK5spark9JSONValue4typeEv>:
    if (!t_) {
 23fdf0a:	6883      	ldr	r3, [r0, #8]
 23fdf0c:	b1eb      	cbz	r3, 23fdf4a <_ZNK5spark9JSONValue4typeEv+0x40>
    switch (t_->type) {
 23fdf0e:	781a      	ldrb	r2, [r3, #0]
 23fdf10:	2a03      	cmp	r2, #3
 23fdf12:	d81a      	bhi.n	23fdf4a <_ZNK5spark9JSONValue4typeEv+0x40>
 23fdf14:	e8df f002 	tbb	[pc, r2]
 23fdf18:	1b021704 	.word	0x1b021704
 23fdf1c:	2005      	movs	r0, #5
 23fdf1e:	4770      	bx	lr
        const char c = d_->json[t_->start];
 23fdf20:	6802      	ldr	r2, [r0, #0]
 23fdf22:	685b      	ldr	r3, [r3, #4]
 23fdf24:	6852      	ldr	r2, [r2, #4]
 23fdf26:	5cd0      	ldrb	r0, [r2, r3]
        if (c == '-' || (c >= '0' && c <= '9')) {
 23fdf28:	282d      	cmp	r0, #45	; 0x2d
 23fdf2a:	d012      	beq.n	23fdf52 <_ZNK5spark9JSONValue4typeEv+0x48>
 23fdf2c:	f1a0 0330 	sub.w	r3, r0, #48	; 0x30
 23fdf30:	2b09      	cmp	r3, #9
 23fdf32:	d90e      	bls.n	23fdf52 <_ZNK5spark9JSONValue4typeEv+0x48>
        } else if (c == 't' || c == 'f') { // Literal names are always in lower case
 23fdf34:	2874      	cmp	r0, #116	; 0x74
 23fdf36:	d00e      	beq.n	23fdf56 <_ZNK5spark9JSONValue4typeEv+0x4c>
 23fdf38:	2866      	cmp	r0, #102	; 0x66
 23fdf3a:	d00c      	beq.n	23fdf56 <_ZNK5spark9JSONValue4typeEv+0x4c>
        return JSON_TYPE_INVALID;
 23fdf3c:	f1a0 036e 	sub.w	r3, r0, #110	; 0x6e
 23fdf40:	4258      	negs	r0, r3
 23fdf42:	4158      	adcs	r0, r3
 23fdf44:	4770      	bx	lr
        return JSON_TYPE_OBJECT;
 23fdf46:	2006      	movs	r0, #6
 23fdf48:	4770      	bx	lr
        return JSON_TYPE_INVALID;
 23fdf4a:	2000      	movs	r0, #0
 23fdf4c:	4770      	bx	lr
        return JSON_TYPE_STRING;
 23fdf4e:	2004      	movs	r0, #4
 23fdf50:	4770      	bx	lr
            return JSON_TYPE_NUMBER;
 23fdf52:	2003      	movs	r0, #3
 23fdf54:	4770      	bx	lr
            return JSON_TYPE_BOOL;
 23fdf56:	2002      	movs	r0, #2
}
 23fdf58:	4770      	bx	lr

023fdf5a <_ZNK5spark9JSONValue5toIntEv>:
int spark::JSONValue::toInt() const {
 23fdf5a:	b510      	push	{r4, lr}
 23fdf5c:	4604      	mov	r4, r0
    switch (type()) {
 23fdf5e:	f7ff ffd4 	bl	23fdf0a <_ZNK5spark9JSONValue4typeEv>
 23fdf62:	2802      	cmp	r0, #2
 23fdf64:	d00e      	beq.n	23fdf84 <_ZNK5spark9JSONValue5toIntEv+0x2a>
 23fdf66:	1ec3      	subs	r3, r0, #3
 23fdf68:	b2db      	uxtb	r3, r3
 23fdf6a:	2b01      	cmp	r3, #1
 23fdf6c:	d814      	bhi.n	23fdf98 <_ZNK5spark9JSONValue5toIntEv+0x3e>
        const char* const s = d_->json + t_->start;
 23fdf6e:	6822      	ldr	r2, [r4, #0]
 23fdf70:	68a3      	ldr	r3, [r4, #8]
 23fdf72:	6850      	ldr	r0, [r2, #4]
 23fdf74:	685b      	ldr	r3, [r3, #4]
        return strtol(s, nullptr, 10);
 23fdf76:	220a      	movs	r2, #10
}
 23fdf78:	e8bd 4010 	ldmia.w	sp!, {r4, lr}
        return strtol(s, nullptr, 10);
 23fdf7c:	2100      	movs	r1, #0
 23fdf7e:	4418      	add	r0, r3
 23fdf80:	f000 bcf8 	b.w	23fe974 <strtol>
        const char* const s = d_->json + t_->start;
 23fdf84:	6822      	ldr	r2, [r4, #0]
 23fdf86:	68a3      	ldr	r3, [r4, #8]
        return *s == 't';
 23fdf88:	6852      	ldr	r2, [r2, #4]
 23fdf8a:	685b      	ldr	r3, [r3, #4]
 23fdf8c:	5cd0      	ldrb	r0, [r2, r3]
 23fdf8e:	f1a0 0374 	sub.w	r3, r0, #116	; 0x74
 23fdf92:	4258      	negs	r0, r3
 23fdf94:	4158      	adcs	r0, r3
}
 23fdf96:	bd10      	pop	{r4, pc}
    switch (type()) {
 23fdf98:	2000      	movs	r0, #0
 23fdf9a:	e7fc      	b.n	23fdf96 <_ZNK5spark9JSONValue5toIntEv+0x3c>

023fdf9c <_ZN5spark10JSONStringC1EPK9jsmntok_tSt10shared_ptrINS_6detail8JSONDataEE>:
spark::JSONString::JSONString(const jsmntok_t *t, detail::JSONDataPtr d) :
 23fdf9c:	b538      	push	{r3, r4, r5, lr}
      : _M_ptr(0), _M_refcount()
 23fdf9e:	2300      	movs	r3, #0
 23fdfa0:	4604      	mov	r4, r0
      constexpr __shared_count() noexcept : _M_pi(0)
 23fdfa2:	e9c0 3300 	strd	r3, r3, [r0]
        n_(0) {
 23fdfa6:	480e      	ldr	r0, [pc, #56]	; (23fdfe0 <_ZN5spark10JSONStringC1EPK9jsmntok_tSt10shared_ptrINS_6detail8JSONDataEE+0x44>)
 23fdfa8:	e9c4 0302 	strd	r0, r3, [r4, #8]
    if (t && (t->type == JSMN_STRING || t->type == JSMN_PRIMITIVE)) {
 23fdfac:	b1a9      	cbz	r1, 23fdfda <_ZN5spark10JSONStringC1EPK9jsmntok_tSt10shared_ptrINS_6detail8JSONDataEE+0x3e>
 23fdfae:	780b      	ldrb	r3, [r1, #0]
 23fdfb0:	2b03      	cmp	r3, #3
 23fdfb2:	d006      	beq.n	23fdfc2 <_ZN5spark10JSONStringC1EPK9jsmntok_tSt10shared_ptrINS_6detail8JSONDataEE+0x26>
 23fdfb4:	b98b      	cbnz	r3, 23fdfda <_ZN5spark10JSONStringC1EPK9jsmntok_tSt10shared_ptrINS_6detail8JSONDataEE+0x3e>
        if (t->type != JSMN_PRIMITIVE || d->json[t->start] != 'n') { // Nulls are treated as empty strings
 23fdfb6:	6813      	ldr	r3, [r2, #0]
 23fdfb8:	6858      	ldr	r0, [r3, #4]
 23fdfba:	684b      	ldr	r3, [r1, #4]
 23fdfbc:	5cc3      	ldrb	r3, [r0, r3]
 23fdfbe:	2b6e      	cmp	r3, #110	; 0x6e
 23fdfc0:	d007      	beq.n	23fdfd2 <_ZN5spark10JSONStringC1EPK9jsmntok_tSt10shared_ptrINS_6detail8JSONDataEE+0x36>
            s_ = d->json + t->start;
 23fdfc2:	6813      	ldr	r3, [r2, #0]
 23fdfc4:	684d      	ldr	r5, [r1, #4]
 23fdfc6:	6858      	ldr	r0, [r3, #4]
            n_ = t->end - t->start;
 23fdfc8:	688b      	ldr	r3, [r1, #8]
            s_ = d->json + t->start;
 23fdfca:	4428      	add	r0, r5
            n_ = t->end - t->start;
 23fdfcc:	1b5b      	subs	r3, r3, r5
            s_ = d->json + t->start;
 23fdfce:	60a0      	str	r0, [r4, #8]
            n_ = t->end - t->start;
 23fdfd0:	60e3      	str	r3, [r4, #12]
 23fdfd2:	4611      	mov	r1, r2
 23fdfd4:	4620      	mov	r0, r4
 23fdfd6:	f7ff ff6c 	bl	23fdeb2 <_ZNSt12__shared_ptrIN5spark6detail8JSONDataELN9__gnu_cxx12_Lock_policyE0EEaSERKS5_.isra.0>
}
 23fdfda:	4620      	mov	r0, r4
 23fdfdc:	bd38      	pop	{r3, r4, r5, pc}
 23fdfde:	bf00      	nop
 23fdfe0:	023ffb5e 	.word	0x023ffb5e

023fdfe4 <_ZN5spark18JSONObjectIteratorC1EPK9jsmntok_tSt10shared_ptrINS_6detail8JSONDataEE>:
spark::JSONObjectIterator::JSONObjectIterator(const jsmntok_t *t, detail::JSONDataPtr d) :
 23fdfe4:	b538      	push	{r3, r4, r5, lr}
      : _M_ptr(0), _M_refcount()
 23fdfe6:	2500      	movs	r5, #0
 23fdfe8:	460b      	mov	r3, r1
 23fdfea:	4604      	mov	r4, r0
 23fdfec:	4611      	mov	r1, r2
      constexpr __shared_count() noexcept : _M_pi(0)
 23fdfee:	e9c0 5500 	strd	r5, r5, [r0]
        n_(0) {
 23fdff2:	e9c0 5502 	strd	r5, r5, [r0, #8]
 23fdff6:	e9c0 5504 	strd	r5, r5, [r0, #16]
    if (t && t->type == JSMN_OBJECT) {
 23fdffa:	b14b      	cbz	r3, 23fe010 <_ZN5spark18JSONObjectIteratorC1EPK9jsmntok_tSt10shared_ptrINS_6detail8JSONDataEE+0x2c>
 23fdffc:	781a      	ldrb	r2, [r3, #0]
 23fdffe:	2a01      	cmp	r2, #1
 23fe000:	d106      	bne.n	23fe010 <_ZN5spark18JSONObjectIteratorC1EPK9jsmntok_tSt10shared_ptrINS_6detail8JSONDataEE+0x2c>
        t_ = t + 1; // First property's name
 23fe002:	f103 0210 	add.w	r2, r3, #16
        n_ = t->size; // Number of properties
 23fe006:	68db      	ldr	r3, [r3, #12]
        t_ = t + 1; // First property's name
 23fe008:	6082      	str	r2, [r0, #8]
        n_ = t->size; // Number of properties
 23fe00a:	6143      	str	r3, [r0, #20]
 23fe00c:	f7ff ff51 	bl	23fdeb2 <_ZNSt12__shared_ptrIN5spark6detail8JSONDataELN9__gnu_cxx12_Lock_policyE0EEaSERKS5_.isra.0>
}
 23fe010:	4620      	mov	r0, r4
 23fe012:	bd38      	pop	{r3, r4, r5, pc}

023fe014 <_ZN5spark18JSONObjectIterator4nextEv>:
bool spark::JSONObjectIterator::next() {
 23fe014:	b510      	push	{r4, lr}
    if (!n_) {
 23fe016:	6943      	ldr	r3, [r0, #20]
bool spark::JSONObjectIterator::next() {
 23fe018:	4604      	mov	r4, r0
    if (!n_) {
 23fe01a:	b163      	cbz	r3, 23fe036 <_ZN5spark18JSONObjectIterator4nextEv+0x22>
    k_ = t_; // Name
 23fe01c:	6880      	ldr	r0, [r0, #8]
    --n_;
 23fe01e:	3b01      	subs	r3, #1
    k_ = t_; // Name
 23fe020:	60e0      	str	r0, [r4, #12]
    ++t_;
 23fe022:	3010      	adds	r0, #16
 23fe024:	60a0      	str	r0, [r4, #8]
    v_ = t_; // Value
 23fe026:	6120      	str	r0, [r4, #16]
    --n_;
 23fe028:	6163      	str	r3, [r4, #20]
    if (n_) {
 23fe02a:	b113      	cbz	r3, 23fe032 <_ZN5spark18JSONObjectIterator4nextEv+0x1e>
        t_ = skipToken(t_);
 23fe02c:	f7ff fef2 	bl	23fde14 <_ZN12_GLOBAL__N_19skipTokenEPK9jsmntok_t>
 23fe030:	60a0      	str	r0, [r4, #8]
    return true;
 23fe032:	2001      	movs	r0, #1
 23fe034:	e000      	b.n	23fe038 <_ZN5spark18JSONObjectIterator4nextEv+0x24>
        return false;
 23fe036:	4618      	mov	r0, r3
}
 23fe038:	bd10      	pop	{r4, pc}

023fe03a <_ZN5spark10JSONWriter9endObjectEv>:
spark::JSONWriter& spark::JSONWriter::endObject() {
 23fe03a:	b510      	push	{r4, lr}
    write('}');
 23fe03c:	217d      	movs	r1, #125	; 0x7d
spark::JSONWriter& spark::JSONWriter::endObject() {
 23fe03e:	4604      	mov	r4, r0
    write('}');
 23fe040:	f7ff ff49 	bl	23fded6 <_ZN5spark10JSONWriter5writeEc>
    state_ = NEXT;
 23fe044:	2301      	movs	r3, #1
}
 23fe046:	4620      	mov	r0, r4
    state_ = NEXT;
 23fe048:	7123      	strb	r3, [r4, #4]
}
 23fe04a:	bd10      	pop	{r4, pc}

023fe04c <_ZN5spark10JSONWriter14writeSeparatorEv>:

void spark::JSONWriter::writeSeparator() {
 23fe04c:	b508      	push	{r3, lr}
    switch (state_) {
 23fe04e:	7903      	ldrb	r3, [r0, #4]
 23fe050:	2b01      	cmp	r3, #1
 23fe052:	d002      	beq.n	23fe05a <_ZN5spark10JSONWriter14writeSeparatorEv+0xe>
 23fe054:	2b02      	cmp	r3, #2
 23fe056:	d004      	beq.n	23fe062 <_ZN5spark10JSONWriter14writeSeparatorEv+0x16>
        write(':');
        break;
    default:
        break;
    }
}
 23fe058:	bd08      	pop	{r3, pc}
        write(',');
 23fe05a:	212c      	movs	r1, #44	; 0x2c
        write(':');
 23fe05c:	f7ff ff3b 	bl	23fded6 <_ZN5spark10JSONWriter5writeEc>
}
 23fe060:	e7fa      	b.n	23fe058 <_ZN5spark10JSONWriter14writeSeparatorEv+0xc>
        write(':');
 23fe062:	213a      	movs	r1, #58	; 0x3a
 23fe064:	e7fa      	b.n	23fe05c <_ZN5spark10JSONWriter14writeSeparatorEv+0x10>

023fe066 <_ZN5spark10JSONWriter11beginObjectEv>:
spark::JSONWriter& spark::JSONWriter::beginObject() {
 23fe066:	b510      	push	{r4, lr}
 23fe068:	4604      	mov	r4, r0
    writeSeparator();
 23fe06a:	f7ff ffef 	bl	23fe04c <_ZN5spark10JSONWriter14writeSeparatorEv>
    write('{');
 23fe06e:	4620      	mov	r0, r4
 23fe070:	217b      	movs	r1, #123	; 0x7b
 23fe072:	f7ff ff30 	bl	23fded6 <_ZN5spark10JSONWriter5writeEc>
    state_ = BEGIN;
 23fe076:	2300      	movs	r3, #0
}
 23fe078:	4620      	mov	r0, r4
    state_ = BEGIN;
 23fe07a:	7123      	strb	r3, [r4, #4]
}
 23fe07c:	bd10      	pop	{r4, pc}
	...

023fe080 <_ZN5spark10JSONWriter5valueEi>:
spark::JSONWriter& spark::JSONWriter::value(int val) {
 23fe080:	b513      	push	{r0, r1, r4, lr}
 23fe082:	4604      	mov	r4, r0
 23fe084:	9101      	str	r1, [sp, #4]
    writeSeparator();
 23fe086:	f7ff ffe1 	bl	23fe04c <_ZN5spark10JSONWriter14writeSeparatorEv>
    printf("%d", val);
 23fe08a:	6823      	ldr	r3, [r4, #0]
 23fe08c:	4620      	mov	r0, r4
 23fe08e:	68db      	ldr	r3, [r3, #12]
 23fe090:	9a01      	ldr	r2, [sp, #4]
 23fe092:	4903      	ldr	r1, [pc, #12]	; (23fe0a0 <_ZN5spark10JSONWriter5valueEi+0x20>)
 23fe094:	4798      	blx	r3
    state_ = NEXT;
 23fe096:	2301      	movs	r3, #1
}
 23fe098:	4620      	mov	r0, r4
    state_ = NEXT;
 23fe09a:	7123      	strb	r3, [r4, #4]
}
 23fe09c:	b002      	add	sp, #8
 23fe09e:	bd10      	pop	{r4, pc}
 23fe0a0:	023fec0e 	.word	0x023fec0e

023fe0a4 <_ZN5spark10JSONWriter5valueEj>:
spark::JSONWriter& spark::JSONWriter::value(unsigned val) {
 23fe0a4:	b513      	push	{r0, r1, r4, lr}
 23fe0a6:	4604      	mov	r4, r0
 23fe0a8:	9101      	str	r1, [sp, #4]
    writeSeparator();
 23fe0aa:	f7ff ffcf 	bl	23fe04c <_ZN5spark10JSONWriter14writeSeparatorEv>
    printf("%u", val);
 23fe0ae:	6823      	ldr	r3, [r4, #0]
 23fe0b0:	4620      	mov	r0, r4
 23fe0b2:	68db      	ldr	r3, [r3, #12]
 23fe0b4:	9a01      	ldr	r2, [sp, #4]
 23fe0b6:	4903      	ldr	r1, [pc, #12]	; (23fe0c4 <_ZN5spark10JSONWriter5valueEj+0x20>)
 23fe0b8:	4798      	blx	r3
    state_ = NEXT;
 23fe0ba:	2301      	movs	r3, #1
}
 23fe0bc:	4620      	mov	r0, r4
    state_ = NEXT;
 23fe0be:	7123      	strb	r3, [r4, #4]
}
 23fe0c0:	b002      	add	sp, #8
 23fe0c2:	bd10      	pop	{r4, pc}
 23fe0c4:	023ffd3c 	.word	0x023ffd3c

023fe0c8 <_ZN5spark10JSONWriter12writeEscapedEPKcj>:

void spark::JSONWriter::writeEscaped(const char *str, size_t size) {
 23fe0c8:	e92d 47f0 	stmdb	sp!, {r4, r5, r6, r7, r8, r9, sl, lr}
 23fe0cc:	460d      	mov	r5, r1
 23fe0ce:	4690      	mov	r8, r2
    write('"');
 23fe0d0:	2122      	movs	r1, #34	; 0x22
void spark::JSONWriter::writeEscaped(const char *str, size_t size) {
 23fe0d2:	4604      	mov	r4, r0
 23fe0d4:	462f      	mov	r7, r5
    write('"');
 23fe0d6:	f7ff fefe 	bl	23fded6 <_ZN5spark10JSONWriter5writeEc>
            case 0x0d: // Carriage return
                write('r');
                break;
            default:
                // All other control characters are written in hex, e.g. "\u001f"
                printf("u%04x", (unsigned)c);
 23fe0da:	f8df 90a4 	ldr.w	r9, [pc, #164]	; 23fe180 <_ZN5spark10JSONWriter12writeEscapedEPKcj+0xb8>
    const char* const end = str + size;
 23fe0de:	44a8      	add	r8, r5
    while (s != end) {
 23fe0e0:	4547      	cmp	r7, r8
 23fe0e2:	46ba      	mov	sl, r7
 23fe0e4:	d03d      	beq.n	23fe162 <_ZN5spark10JSONWriter12writeEscapedEPKcj+0x9a>
        const char c = *s;
 23fe0e6:	f817 6b01 	ldrb.w	r6, [r7], #1
        if (c == '"' || c == '\\' || !std::isprint((unsigned char)c)) {
 23fe0ea:	2e22      	cmp	r6, #34	; 0x22
 23fe0ec:	d006      	beq.n	23fe0fc <_ZN5spark10JSONWriter12writeEscapedEPKcj+0x34>
 23fe0ee:	2e5c      	cmp	r6, #92	; 0x5c
 23fe0f0:	d004      	beq.n	23fe0fc <_ZN5spark10JSONWriter12writeEscapedEPKcj+0x34>
 23fe0f2:	4630      	mov	r0, r6
 23fe0f4:	f000 faf0 	bl	23fe6d8 <isprint>
 23fe0f8:	2800      	cmp	r0, #0
 23fe0fa:	d1f1      	bne.n	23fe0e0 <_ZN5spark10JSONWriter12writeEscapedEPKcj+0x18>
            write(str, s - str); // Write preceeding characters
 23fe0fc:	6823      	ldr	r3, [r4, #0]
 23fe0fe:	4629      	mov	r1, r5
 23fe100:	4620      	mov	r0, r4
 23fe102:	689b      	ldr	r3, [r3, #8]
 23fe104:	ebaa 0205 	sub.w	r2, sl, r5
 23fe108:	4798      	blx	r3
            write('\\');
 23fe10a:	215c      	movs	r1, #92	; 0x5c
 23fe10c:	4620      	mov	r0, r4
 23fe10e:	f7ff fee2 	bl	23fded6 <_ZN5spark10JSONWriter5writeEc>
            switch (c) {
 23fe112:	2e0d      	cmp	r6, #13
 23fe114:	d80a      	bhi.n	23fe12c <_ZN5spark10JSONWriter12writeEscapedEPKcj+0x64>
 23fe116:	2e07      	cmp	r6, #7
 23fe118:	d91c      	bls.n	23fe154 <_ZN5spark10JSONWriter12writeEscapedEPKcj+0x8c>
 23fe11a:	f1a6 0308 	sub.w	r3, r6, #8
 23fe11e:	2b05      	cmp	r3, #5
 23fe120:	d818      	bhi.n	23fe154 <_ZN5spark10JSONWriter12writeEscapedEPKcj+0x8c>
 23fe122:	e8df f003 	tbb	[pc, r3]
 23fe126:	0f0d      	.short	0x0f0d
 23fe128:	15131711 	.word	0x15131711
 23fe12c:	2e22      	cmp	r6, #34	; 0x22
 23fe12e:	d001      	beq.n	23fe134 <_ZN5spark10JSONWriter12writeEscapedEPKcj+0x6c>
 23fe130:	2e5c      	cmp	r6, #92	; 0x5c
 23fe132:	d10f      	bne.n	23fe154 <_ZN5spark10JSONWriter12writeEscapedEPKcj+0x8c>
                write(c);
 23fe134:	4631      	mov	r1, r6
                write('b');
 23fe136:	4620      	mov	r0, r4
 23fe138:	f7ff fecd 	bl	23fded6 <_ZN5spark10JSONWriter5writeEc>
                break;
            }
            str = s + 1;
 23fe13c:	463d      	mov	r5, r7
    while (s != end) {
 23fe13e:	e7cf      	b.n	23fe0e0 <_ZN5spark10JSONWriter12writeEscapedEPKcj+0x18>
                write('b');
 23fe140:	2162      	movs	r1, #98	; 0x62
 23fe142:	e7f8      	b.n	23fe136 <_ZN5spark10JSONWriter12writeEscapedEPKcj+0x6e>
                write('t');
 23fe144:	2174      	movs	r1, #116	; 0x74
 23fe146:	e7f6      	b.n	23fe136 <_ZN5spark10JSONWriter12writeEscapedEPKcj+0x6e>
                write('n');
 23fe148:	216e      	movs	r1, #110	; 0x6e
 23fe14a:	e7f4      	b.n	23fe136 <_ZN5spark10JSONWriter12writeEscapedEPKcj+0x6e>
                write('f');
 23fe14c:	2166      	movs	r1, #102	; 0x66
 23fe14e:	e7f2      	b.n	23fe136 <_ZN5spark10JSONWriter12writeEscapedEPKcj+0x6e>
                write('r');
 23fe150:	2172      	movs	r1, #114	; 0x72
 23fe152:	e7f0      	b.n	23fe136 <_ZN5spark10JSONWriter12writeEscapedEPKcj+0x6e>
                printf("u%04x", (unsigned)c);
 23fe154:	6823      	ldr	r3, [r4, #0]
 23fe156:	4632      	mov	r2, r6
 23fe158:	4649      	mov	r1, r9
 23fe15a:	4620      	mov	r0, r4
 23fe15c:	68db      	ldr	r3, [r3, #12]
 23fe15e:	4798      	blx	r3
                break;
 23fe160:	e7ec      	b.n	23fe13c <_ZN5spark10JSONWriter12writeEscapedEPKcj+0x74>
        }
        ++s;
    }
    if (s != str) {
 23fe162:	42bd      	cmp	r5, r7
 23fe164:	d005      	beq.n	23fe172 <_ZN5spark10JSONWriter12writeEscapedEPKcj+0xaa>
        write(str, s - str); // Write remaining characters
 23fe166:	6823      	ldr	r3, [r4, #0]
 23fe168:	4629      	mov	r1, r5
 23fe16a:	4620      	mov	r0, r4
 23fe16c:	689b      	ldr	r3, [r3, #8]
 23fe16e:	1b7a      	subs	r2, r7, r5
 23fe170:	4798      	blx	r3
    }
    write('"');
 23fe172:	2122      	movs	r1, #34	; 0x22
 23fe174:	4620      	mov	r0, r4
 23fe176:	f7ff feae 	bl	23fded6 <_ZN5spark10JSONWriter5writeEc>
}
 23fe17a:	e8bd 87f0 	ldmia.w	sp!, {r4, r5, r6, r7, r8, r9, sl, pc}
 23fe17e:	bf00      	nop
 23fe180:	023ffd3f 	.word	0x023ffd3f

023fe184 <_ZN5spark10JSONWriter4nameEPKcj>:
spark::JSONWriter& spark::JSONWriter::name(const char *name, size_t size) {
 23fe184:	b513      	push	{r0, r1, r4, lr}
 23fe186:	4604      	mov	r4, r0
 23fe188:	e9cd 2100 	strd	r2, r1, [sp]
    writeSeparator();
 23fe18c:	f7ff ff5e 	bl	23fe04c <_ZN5spark10JSONWriter14writeSeparatorEv>
    writeEscaped(name, size);
 23fe190:	e9dd 2100 	ldrd	r2, r1, [sp]
 23fe194:	4620      	mov	r0, r4
 23fe196:	f7ff ff97 	bl	23fe0c8 <_ZN5spark10JSONWriter12writeEscapedEPKcj>
    state_ = VALUE;
 23fe19a:	2302      	movs	r3, #2
}
 23fe19c:	4620      	mov	r0, r4
    state_ = VALUE;
 23fe19e:	7123      	strb	r3, [r4, #4]
}
 23fe1a0:	b002      	add	sp, #8
 23fe1a2:	bd10      	pop	{r4, pc}

023fe1a4 <_ZN5spark10JSONWriter5valueEPKcj>:
spark::JSONWriter& spark::JSONWriter::value(const char *val, size_t size) {
 23fe1a4:	b513      	push	{r0, r1, r4, lr}
 23fe1a6:	4604      	mov	r4, r0
 23fe1a8:	e9cd 2100 	strd	r2, r1, [sp]
    writeSeparator();
 23fe1ac:	f7ff ff4e 	bl	23fe04c <_ZN5spark10JSONWriter14writeSeparatorEv>
    writeEscaped(val, size);
 23fe1b0:	e9dd 2100 	ldrd	r2, r1, [sp]
 23fe1b4:	4620      	mov	r0, r4
 23fe1b6:	f7ff ff87 	bl	23fe0c8 <_ZN5spark10JSONWriter12writeEscapedEPKcj>
    state_ = NEXT;
 23fe1ba:	2301      	movs	r3, #1
}
 23fe1bc:	4620      	mov	r0, r4
    state_ = NEXT;
 23fe1be:	7123      	strb	r3, [r4, #4]
}
 23fe1c0:	b002      	add	sp, #8
 23fe1c2:	bd10      	pop	{r4, pc}

023fe1c4 <pinAvailable>:
/*
 * @brief Perform safety check on desired pin to see if it's already
 * being used.  Return 0 if used, otherwise return 1 if available.
 */
bool pinAvailable(uint16_t pin) {
  if (pin >= TOTAL_PINS) {
 23fe1c4:	281b      	cmp	r0, #27
bool pinAvailable(uint16_t pin) {
 23fe1c6:	b537      	push	{r0, r1, r2, r4, r5, lr}
 23fe1c8:	4604      	mov	r4, r0
  if (pin >= TOTAL_PINS) {
 23fe1ca:	d902      	bls.n	23fe1d2 <pinAvailable+0xe>
    return false;
 23fe1cc:	2000      	movs	r0, #0
    return false; // 'pin' is used
  }
#endif

  return true; // 'pin' is available
}
 23fe1ce:	b003      	add	sp, #12
 23fe1d0:	bd30      	pop	{r4, r5, pc}
  if((pin == SCK || pin == MOSI || pin == MISO) && hal_spi_is_enabled(SPI.interface()) == true)
 23fe1d2:	f1a0 030f 	sub.w	r3, r0, #15
 23fe1d6:	2b02      	cmp	r3, #2
 23fe1d8:	d90b      	bls.n	23fe1f2 <pinAvailable+0x2e>
  if((pin == SCL || pin == SDA) && hal_i2c_is_enabled(Wire.interface(), nullptr) == true)
 23fe1da:	2801      	cmp	r0, #1
 23fe1dc:	d821      	bhi.n	23fe222 <pinAvailable+0x5e>
 23fe1de:	f000 f935 	bl	23fe44c <_Z19__fetch_global_Wirev>
 23fe1e2:	2100      	movs	r1, #0
 23fe1e4:	7c00      	ldrb	r0, [r0, #16]
 23fe1e6:	f7fc fef1 	bl	23fafcc <hal_i2c_is_enabled>
  if((pin == RX || pin == TX) && hal_usart_is_enabled(Serial1.interface()) == true)
 23fe1ea:	f080 0001 	eor.w	r0, r0, #1
 23fe1ee:	b2c0      	uxtb	r0, r0
 23fe1f0:	e7ed      	b.n	23fe1ce <pinAvailable+0xa>

template <hal_spi_interface_t Interface>
class SpiProxy {
public:
    static SPIClass& instance() {
        static SPIClass instance(Interface);
 23fe1f2:	4d11      	ldr	r5, [pc, #68]	; (23fe238 <pinAvailable+0x74>)
 23fe1f4:	e8d5 1f8f 	ldab	r1, [r5]
 23fe1f8:	f011 0101 	ands.w	r1, r1, #1
 23fe1fc:	d10b      	bne.n	23fe216 <pinAvailable+0x52>
 23fe1fe:	4628      	mov	r0, r5
 23fe200:	9101      	str	r1, [sp, #4]
 23fe202:	f7fa fc69 	bl	23f8ad8 <__cxa_guard_acquire>
 23fe206:	9901      	ldr	r1, [sp, #4]
 23fe208:	b128      	cbz	r0, 23fe216 <pinAvailable+0x52>
 23fe20a:	480c      	ldr	r0, [pc, #48]	; (23fe23c <pinAvailable+0x78>)
 23fe20c:	f7fd fab0 	bl	23fb770 <_ZN8SPIClassC1E19hal_spi_interface_t>
 23fe210:	4628      	mov	r0, r5
 23fe212:	f7fa fc66 	bl	23f8ae2 <__cxa_guard_release>
  if((pin == SCK || pin == MOSI || pin == MISO) && hal_spi_is_enabled(SPI.interface()) == true)
 23fe216:	4b09      	ldr	r3, [pc, #36]	; (23fe23c <pinAvailable+0x78>)
 23fe218:	7818      	ldrb	r0, [r3, #0]
 23fe21a:	f7fc ff47 	bl	23fb0ac <hal_spi_is_enabled>
 23fe21e:	2800      	cmp	r0, #0
 23fe220:	d1d4      	bne.n	23fe1cc <pinAvailable+0x8>
  if((pin == RX || pin == TX) && hal_usart_is_enabled(Serial1.interface()) == true)
 23fe222:	3c08      	subs	r4, #8
 23fe224:	2c01      	cmp	r4, #1
 23fe226:	d805      	bhi.n	23fe234 <pinAvailable+0x70>
 23fe228:	f000 f864 	bl	23fe2f4 <_Z22__fetch_global_Serial1v>
 23fe22c:	7c00      	ldrb	r0, [r0, #16]
 23fe22e:	f7fc fe25 	bl	23fae7c <hal_usart_is_enabled>
 23fe232:	e7da      	b.n	23fe1ea <pinAvailable+0x26>
  return true; // 'pin' is available
 23fe234:	2001      	movs	r0, #1
 23fe236:	e7ca      	b.n	23fe1ce <pinAvailable+0xa>
 23fe238:	1007ae40 	.word	0x1007ae40
 23fe23c:	1007ae44 	.word	0x1007ae44

023fe240 <pinMode>:
  if(pin >= TOTAL_PINS || setMode == PIN_MODE_NONE )
 23fe240:	281b      	cmp	r0, #27
{
 23fe242:	b538      	push	{r3, r4, r5, lr}
 23fe244:	4604      	mov	r4, r0
 23fe246:	460d      	mov	r5, r1
  if(pin >= TOTAL_PINS || setMode == PIN_MODE_NONE )
 23fe248:	d80a      	bhi.n	23fe260 <pinMode+0x20>
 23fe24a:	29ff      	cmp	r1, #255	; 0xff
 23fe24c:	d008      	beq.n	23fe260 <pinMode+0x20>
  if( !pinAvailable(pin) ) {
 23fe24e:	f7ff ffb9 	bl	23fe1c4 <pinAvailable>
 23fe252:	b128      	cbz	r0, 23fe260 <pinMode+0x20>
  hal_gpio_mode(pin, setMode);
 23fe254:	4629      	mov	r1, r5
 23fe256:	4620      	mov	r0, r4
}
 23fe258:	e8bd 4038 	ldmia.w	sp!, {r3, r4, r5, lr}
  hal_gpio_mode(pin, setMode);
 23fe25c:	f7fc bc78 	b.w	23fab50 <hal_gpio_mode>
}
 23fe260:	bd38      	pop	{r3, r4, r5, pc}

023fe262 <digitalWrite>:

/*
 * @brief Sets a GPIO pin to HIGH or LOW.
 */
void digitalWrite(hal_pin_t pin, uint8_t value)
{
 23fe262:	b538      	push	{r3, r4, r5, lr}
 23fe264:	4604      	mov	r4, r0
 23fe266:	460d      	mov	r5, r1
    PinMode mode = hal_gpio_get_mode(pin);
 23fe268:	f7fc fc80 	bl	23fab6c <hal_gpio_get_mode>
    if (mode==PIN_MODE_NONE || is_input_mode(mode))
 23fe26c:	28ff      	cmp	r0, #255	; 0xff
 23fe26e:	d010      	beq.n	23fe292 <digitalWrite+0x30>
            mode == INPUT_PULLDOWN ||
 23fe270:	2806      	cmp	r0, #6
 23fe272:	d804      	bhi.n	23fe27e <digitalWrite+0x1c>
 23fe274:	234d      	movs	r3, #77	; 0x4d
 23fe276:	fa23 f000 	lsr.w	r0, r3, r0
 23fe27a:	07c3      	lsls	r3, r0, #31
 23fe27c:	d409      	bmi.n	23fe292 <digitalWrite+0x30>
        return;
  // Safety check
  if( !pinAvailable(pin) ) {
 23fe27e:	4620      	mov	r0, r4
 23fe280:	f7ff ffa0 	bl	23fe1c4 <pinAvailable>
 23fe284:	b128      	cbz	r0, 23fe292 <digitalWrite+0x30>
    return;
  }

  hal_gpio_write(pin, value);
 23fe286:	4629      	mov	r1, r5
 23fe288:	4620      	mov	r0, r4
}
 23fe28a:	e8bd 4038 	ldmia.w	sp!, {r3, r4, r5, lr}
  hal_gpio_write(pin, value);
 23fe28e:	f7fc bc7b 	b.w	23fab88 <hal_gpio_write>
}
 23fe292:	bd38      	pop	{r3, r4, r5, pc}

023fe294 <__tcf_0>:
}
#endif

USARTSerial& __fetch_global_Serial1()
{
    static USARTSerial serial1(HAL_USART_SERIAL1, acquireSerial1Buffer());
 23fe294:	4770      	bx	lr
	...

023fe298 <_ZN12_GLOBAL__N_118defaultUsartConfigEv>:
hal_usart_buffer_config_t defaultUsartConfig() {
 23fe298:	b538      	push	{r3, r4, r5, lr}
    hal_usart_buffer_config_t config = {
 23fe29a:	2514      	movs	r5, #20
hal_usart_buffer_config_t defaultUsartConfig() {
 23fe29c:	4604      	mov	r4, r0
    hal_usart_buffer_config_t config = {
 23fe29e:	462a      	mov	r2, r5
 23fe2a0:	2100      	movs	r1, #0
 23fe2a2:	f000 fa48 	bl	23fe736 <memset>
 23fe2a6:	8025      	strh	r5, [r4, #0]
 23fe2a8:	2540      	movs	r5, #64	; 0x40
        .rx_buffer = new (std::nothrow) uint8_t[bufferSize],
 23fe2aa:	4907      	ldr	r1, [pc, #28]	; (23fe2c8 <_ZN12_GLOBAL__N_118defaultUsartConfigEv+0x30>)
 23fe2ac:	4628      	mov	r0, r5
    hal_usart_buffer_config_t config = {
 23fe2ae:	8125      	strh	r5, [r4, #8]
 23fe2b0:	8225      	strh	r5, [r4, #16]
        .rx_buffer = new (std::nothrow) uint8_t[bufferSize],
 23fe2b2:	f000 f8f1 	bl	23fe498 <_ZnajRKSt9nothrow_t>
        .tx_buffer = new (std::nothrow) uint8_t[bufferSize],
 23fe2b6:	4904      	ldr	r1, [pc, #16]	; (23fe2c8 <_ZN12_GLOBAL__N_118defaultUsartConfigEv+0x30>)
    };
 23fe2b8:	6060      	str	r0, [r4, #4]
        .tx_buffer = new (std::nothrow) uint8_t[bufferSize],
 23fe2ba:	4628      	mov	r0, r5
 23fe2bc:	f000 f8ec 	bl	23fe498 <_ZnajRKSt9nothrow_t>
    };
 23fe2c0:	60e0      	str	r0, [r4, #12]
}
 23fe2c2:	4620      	mov	r0, r4
 23fe2c4:	bd38      	pop	{r3, r4, r5, pc}
 23fe2c6:	bf00      	nop
 23fe2c8:	023ffd45 	.word	0x023ffd45

023fe2cc <__tcf_2>:
 23fe2cc:	4770      	bx	lr

023fe2ce <__tcf_1>:
 23fe2ce:	4770      	bx	lr

023fe2d0 <_Z20acquireSerial1Bufferv>:
{
 23fe2d0:	b510      	push	{r4, lr}
 23fe2d2:	4604      	mov	r4, r0
    return defaultUsartConfig();
 23fe2d4:	f7ff ffe0 	bl	23fe298 <_ZN12_GLOBAL__N_118defaultUsartConfigEv>
}
 23fe2d8:	4620      	mov	r0, r4
 23fe2da:	bd10      	pop	{r4, pc}

023fe2dc <_Z20acquireSerial2Bufferv>:
 23fe2dc:	b510      	push	{r4, lr}
 23fe2de:	4604      	mov	r4, r0
 23fe2e0:	f7ff ffda 	bl	23fe298 <_ZN12_GLOBAL__N_118defaultUsartConfigEv>
 23fe2e4:	4620      	mov	r0, r4
 23fe2e6:	bd10      	pop	{r4, pc}

023fe2e8 <_Z20acquireSerial3Bufferv>:
 23fe2e8:	b510      	push	{r4, lr}
 23fe2ea:	4604      	mov	r4, r0
 23fe2ec:	f7ff ffd4 	bl	23fe298 <_ZN12_GLOBAL__N_118defaultUsartConfigEv>
 23fe2f0:	4620      	mov	r0, r4
 23fe2f2:	bd10      	pop	{r4, pc}

023fe2f4 <_Z22__fetch_global_Serial1v>:
{
 23fe2f4:	b530      	push	{r4, r5, lr}
    static USARTSerial serial1(HAL_USART_SERIAL1, acquireSerial1Buffer());
 23fe2f6:	4d0e      	ldr	r5, [pc, #56]	; (23fe330 <_Z22__fetch_global_Serial1v+0x3c>)
{
 23fe2f8:	b087      	sub	sp, #28
    static USARTSerial serial1(HAL_USART_SERIAL1, acquireSerial1Buffer());
 23fe2fa:	e8d5 1f8f 	ldab	r1, [r5]
 23fe2fe:	f011 0401 	ands.w	r4, r1, #1
 23fe302:	d111      	bne.n	23fe328 <_Z22__fetch_global_Serial1v+0x34>
 23fe304:	4628      	mov	r0, r5
 23fe306:	f7fa fbe7 	bl	23f8ad8 <__cxa_guard_acquire>
 23fe30a:	b168      	cbz	r0, 23fe328 <_Z22__fetch_global_Serial1v+0x34>
 23fe30c:	a801      	add	r0, sp, #4
 23fe30e:	f7ff ffdf 	bl	23fe2d0 <_Z20acquireSerial1Bufferv>
 23fe312:	4621      	mov	r1, r4
 23fe314:	aa01      	add	r2, sp, #4
 23fe316:	4807      	ldr	r0, [pc, #28]	; (23fe334 <_Z22__fetch_global_Serial1v+0x40>)
 23fe318:	f7ff fbd2 	bl	23fdac0 <_ZN11USARTSerialC1E21hal_usart_interface_tRK25hal_usart_buffer_config_t>
 23fe31c:	4628      	mov	r0, r5
 23fe31e:	f7fa fbe0 	bl	23f8ae2 <__cxa_guard_release>
 23fe322:	4805      	ldr	r0, [pc, #20]	; (23fe338 <_Z22__fetch_global_Serial1v+0x44>)
 23fe324:	f000 f9d2 	bl	23fe6cc <atexit>
    return serial1;
}
 23fe328:	4802      	ldr	r0, [pc, #8]	; (23fe334 <_Z22__fetch_global_Serial1v+0x40>)
 23fe32a:	b007      	add	sp, #28
 23fe32c:	bd30      	pop	{r4, r5, pc}
 23fe32e:	bf00      	nop
 23fe330:	1007aeec 	.word	0x1007aeec
 23fe334:	1007aef8 	.word	0x1007aef8
 23fe338:	023fe295 	.word	0x023fe295

023fe33c <_Z22__fetch_global_Serial2v>:

#if Wiring_Serial2
USARTSerial& __fetch_global_Serial2()
{
 23fe33c:	b510      	push	{r4, lr}
	static USARTSerial serial2(HAL_USART_SERIAL2, acquireSerial2Buffer());
 23fe33e:	4c0d      	ldr	r4, [pc, #52]	; (23fe374 <_Z22__fetch_global_Serial2v+0x38>)
{
 23fe340:	b086      	sub	sp, #24
	static USARTSerial serial2(HAL_USART_SERIAL2, acquireSerial2Buffer());
 23fe342:	e8d4 3f8f 	ldab	r3, [r4]
 23fe346:	07db      	lsls	r3, r3, #31
 23fe348:	d411      	bmi.n	23fe36e <_Z22__fetch_global_Serial2v+0x32>
 23fe34a:	4620      	mov	r0, r4
 23fe34c:	f7fa fbc4 	bl	23f8ad8 <__cxa_guard_acquire>
 23fe350:	b168      	cbz	r0, 23fe36e <_Z22__fetch_global_Serial2v+0x32>
 23fe352:	a801      	add	r0, sp, #4
 23fe354:	f7ff ffc2 	bl	23fe2dc <_Z20acquireSerial2Bufferv>
 23fe358:	2101      	movs	r1, #1
 23fe35a:	aa01      	add	r2, sp, #4
 23fe35c:	4806      	ldr	r0, [pc, #24]	; (23fe378 <_Z22__fetch_global_Serial2v+0x3c>)
 23fe35e:	f7ff fbaf 	bl	23fdac0 <_ZN11USARTSerialC1E21hal_usart_interface_tRK25hal_usart_buffer_config_t>
 23fe362:	4620      	mov	r0, r4
 23fe364:	f7fa fbbd 	bl	23f8ae2 <__cxa_guard_release>
 23fe368:	4804      	ldr	r0, [pc, #16]	; (23fe37c <_Z22__fetch_global_Serial2v+0x40>)
 23fe36a:	f000 f9af 	bl	23fe6cc <atexit>
	return serial2;
}
 23fe36e:	4802      	ldr	r0, [pc, #8]	; (23fe378 <_Z22__fetch_global_Serial2v+0x3c>)
 23fe370:	b006      	add	sp, #24
 23fe372:	bd10      	pop	{r4, pc}
 23fe374:	1007aef0 	.word	0x1007aef0
 23fe378:	1007af0c 	.word	0x1007af0c
 23fe37c:	023fe2cf 	.word	0x023fe2cf

023fe380 <_Z15serialEventRun2v>:

void serialEventRun2()
{
 23fe380:	b510      	push	{r4, lr}
    __handleSerialEvent(Serial2, serialEvent2);
 23fe382:	f7ff ffdb 	bl	23fe33c <_Z22__fetch_global_Serial2v>

inline void __handleSerialEvent(USARTSerial& serial, void (*handler)(void)) __attribute__((always_inline));

inline void __handleSerialEvent(USARTSerial& serial, void (*handler)(void))
{
    if (handler && serial.isEnabled() && serial.available()>0)
 23fe386:	4b07      	ldr	r3, [pc, #28]	; (23fe3a4 <_Z15serialEventRun2v+0x24>)
 23fe388:	4604      	mov	r4, r0
 23fe38a:	b153      	cbz	r3, 23fe3a2 <_Z15serialEventRun2v+0x22>
 23fe38c:	f7ff fbb6 	bl	23fdafc <_ZN11USARTSerial9isEnabledEv>
 23fe390:	b138      	cbz	r0, 23fe3a2 <_Z15serialEventRun2v+0x22>
 23fe392:	6823      	ldr	r3, [r4, #0]
 23fe394:	4620      	mov	r0, r4
 23fe396:	691b      	ldr	r3, [r3, #16]
 23fe398:	4798      	blx	r3
 23fe39a:	2800      	cmp	r0, #0
 23fe39c:	dd01      	ble.n	23fe3a2 <_Z15serialEventRun2v+0x22>
        handler();
 23fe39e:	e000      	b.n	23fe3a2 <_Z15serialEventRun2v+0x22>
 23fe3a0:	bf00      	nop
}
 23fe3a2:	bd10      	pop	{r4, pc}
 23fe3a4:	00000000 	.word	0x00000000

023fe3a8 <_Z22__fetch_global_Serial3v>:
#endif

#if Wiring_Serial3
USARTSerial& __fetch_global_Serial3()
{
 23fe3a8:	b510      	push	{r4, lr}
	static USARTSerial serial3(HAL_USART_SERIAL3, acquireSerial3Buffer());
 23fe3aa:	4c0d      	ldr	r4, [pc, #52]	; (23fe3e0 <_Z22__fetch_global_Serial3v+0x38>)
{
 23fe3ac:	b086      	sub	sp, #24
	static USARTSerial serial3(HAL_USART_SERIAL3, acquireSerial3Buffer());
 23fe3ae:	e8d4 3f8f 	ldab	r3, [r4]
 23fe3b2:	07db      	lsls	r3, r3, #31
 23fe3b4:	d411      	bmi.n	23fe3da <_Z22__fetch_global_Serial3v+0x32>
 23fe3b6:	4620      	mov	r0, r4
 23fe3b8:	f7fa fb8e 	bl	23f8ad8 <__cxa_guard_acquire>
 23fe3bc:	b168      	cbz	r0, 23fe3da <_Z22__fetch_global_Serial3v+0x32>
 23fe3be:	a801      	add	r0, sp, #4
 23fe3c0:	f7ff ff92 	bl	23fe2e8 <_Z20acquireSerial3Bufferv>
 23fe3c4:	2102      	movs	r1, #2
 23fe3c6:	aa01      	add	r2, sp, #4
 23fe3c8:	4806      	ldr	r0, [pc, #24]	; (23fe3e4 <_Z22__fetch_global_Serial3v+0x3c>)
 23fe3ca:	f7ff fb79 	bl	23fdac0 <_ZN11USARTSerialC1E21hal_usart_interface_tRK25hal_usart_buffer_config_t>
 23fe3ce:	4620      	mov	r0, r4
 23fe3d0:	f7fa fb87 	bl	23f8ae2 <__cxa_guard_release>
 23fe3d4:	4804      	ldr	r0, [pc, #16]	; (23fe3e8 <_Z22__fetch_global_Serial3v+0x40>)
 23fe3d6:	f000 f979 	bl	23fe6cc <atexit>
	return serial3;
}
 23fe3da:	4802      	ldr	r0, [pc, #8]	; (23fe3e4 <_Z22__fetch_global_Serial3v+0x3c>)
 23fe3dc:	b006      	add	sp, #24
 23fe3de:	bd10      	pop	{r4, pc}
 23fe3e0:	1007aef4 	.word	0x1007aef4
 23fe3e4:	1007af20 	.word	0x1007af20
 23fe3e8:	023fe2cd 	.word	0x023fe2cd

023fe3ec <_Z15serialEventRun3v>:

void serialEventRun3()
{
 23fe3ec:	b510      	push	{r4, lr}
    __handleSerialEvent(Serial3, serialEvent3);
 23fe3ee:	f7ff ffdb 	bl	23fe3a8 <_Z22__fetch_global_Serial3v>
    if (handler && serial.isEnabled() && serial.available()>0)
 23fe3f2:	4b07      	ldr	r3, [pc, #28]	; (23fe410 <_Z15serialEventRun3v+0x24>)
 23fe3f4:	4604      	mov	r4, r0
 23fe3f6:	b153      	cbz	r3, 23fe40e <_Z15serialEventRun3v+0x22>
 23fe3f8:	f7ff fb80 	bl	23fdafc <_ZN11USARTSerial9isEnabledEv>
 23fe3fc:	b138      	cbz	r0, 23fe40e <_Z15serialEventRun3v+0x22>
 23fe3fe:	6823      	ldr	r3, [r4, #0]
 23fe400:	4620      	mov	r0, r4
 23fe402:	691b      	ldr	r3, [r3, #16]
 23fe404:	4798      	blx	r3
 23fe406:	2800      	cmp	r0, #0
 23fe408:	dd01      	ble.n	23fe40e <_Z15serialEventRun3v+0x22>
        handler();
 23fe40a:	e000      	b.n	23fe40e <_Z15serialEventRun3v+0x22>
 23fe40c:	bf00      	nop
}
 23fe40e:	bd10      	pop	{r4, pc}
 23fe410:	00000000 	.word	0x00000000

023fe414 <__tcf_0>:
}
#endif

TwoWire& __fetch_global_Wire()
{
	static TwoWire wire(HAL_I2C_INTERFACE1, acquireWireBuffer());
 23fe414:	4770      	bx	lr
	...

023fe418 <_Z17acquireWireBufferv>:
{
 23fe418:	b538      	push	{r3, r4, r5, lr}
	hal_i2c_config_t config = {
 23fe41a:	4b0a      	ldr	r3, [pc, #40]	; (23fe444 <_Z17acquireWireBufferv+0x2c>)
{
 23fe41c:	4604      	mov	r4, r0
	hal_i2c_config_t config = {
 23fe41e:	6003      	str	r3, [r0, #0]
 23fe420:	2301      	movs	r3, #1
		.rx_buffer = new (std::nothrow) uint8_t[i2c_buffer_size],
 23fe422:	4909      	ldr	r1, [pc, #36]	; (23fe448 <_Z17acquireWireBufferv+0x30>)
	hal_i2c_config_t config = {
 23fe424:	6143      	str	r3, [r0, #20]
		.rx_buffer = new (std::nothrow) uint8_t[i2c_buffer_size],
 23fe426:	2020      	movs	r0, #32
 23fe428:	f000 f836 	bl	23fe498 <_ZnajRKSt9nothrow_t>
	};
 23fe42c:	2520      	movs	r5, #32
 23fe42e:	6060      	str	r0, [r4, #4]
		.tx_buffer = new (std::nothrow) uint8_t[i2c_buffer_size],
 23fe430:	4905      	ldr	r1, [pc, #20]	; (23fe448 <_Z17acquireWireBufferv+0x30>)
 23fe432:	4628      	mov	r0, r5
	};
 23fe434:	60a5      	str	r5, [r4, #8]
		.tx_buffer = new (std::nothrow) uint8_t[i2c_buffer_size],
 23fe436:	f000 f82f 	bl	23fe498 <_ZnajRKSt9nothrow_t>
	};
 23fe43a:	e9c4 0503 	strd	r0, r5, [r4, #12]
}
 23fe43e:	4620      	mov	r0, r4
 23fe440:	bd38      	pop	{r3, r4, r5, pc}
 23fe442:	bf00      	nop
 23fe444:	00010018 	.word	0x00010018
 23fe448:	023ffd45 	.word	0x023ffd45

023fe44c <_Z19__fetch_global_Wirev>:
{
 23fe44c:	b530      	push	{r4, r5, lr}
	static TwoWire wire(HAL_I2C_INTERFACE1, acquireWireBuffer());
 23fe44e:	4d0e      	ldr	r5, [pc, #56]	; (23fe488 <_Z19__fetch_global_Wirev+0x3c>)
{
 23fe450:	b087      	sub	sp, #28
	static TwoWire wire(HAL_I2C_INTERFACE1, acquireWireBuffer());
 23fe452:	e8d5 1f8f 	ldab	r1, [r5]
 23fe456:	f011 0401 	ands.w	r4, r1, #1
 23fe45a:	d111      	bne.n	23fe480 <_Z19__fetch_global_Wirev+0x34>
 23fe45c:	4628      	mov	r0, r5
 23fe45e:	f7fa fb3b 	bl	23f8ad8 <__cxa_guard_acquire>
 23fe462:	b168      	cbz	r0, 23fe480 <_Z19__fetch_global_Wirev+0x34>
 23fe464:	4668      	mov	r0, sp
 23fe466:	f7ff ffd7 	bl	23fe418 <_Z17acquireWireBufferv>
 23fe46a:	466a      	mov	r2, sp
 23fe46c:	4621      	mov	r1, r4
 23fe46e:	4807      	ldr	r0, [pc, #28]	; (23fe48c <_Z19__fetch_global_Wirev+0x40>)
 23fe470:	f7ff fb88 	bl	23fdb84 <_ZN7TwoWireC1E19hal_i2c_interface_tRK16hal_i2c_config_t>
 23fe474:	4628      	mov	r0, r5
 23fe476:	f7fa fb34 	bl	23f8ae2 <__cxa_guard_release>
 23fe47a:	4805      	ldr	r0, [pc, #20]	; (23fe490 <_Z19__fetch_global_Wirev+0x44>)
 23fe47c:	f000 f926 	bl	23fe6cc <atexit>
	return wire;
}
 23fe480:	4802      	ldr	r0, [pc, #8]	; (23fe48c <_Z19__fetch_global_Wirev+0x40>)
 23fe482:	b007      	add	sp, #28
 23fe484:	bd30      	pop	{r4, r5, pc}
 23fe486:	bf00      	nop
 23fe488:	1007af38 	.word	0x1007af38
 23fe48c:	1007af3c 	.word	0x1007af3c
 23fe490:	023fe415 	.word	0x023fe415

023fe494 <_ZnwjRKSt9nothrow_t>:
 23fe494:	f7fa bb0b 	b.w	23f8aae <_Znwj>

023fe498 <_ZnajRKSt9nothrow_t>:
 23fe498:	f7fa bb0b 	b.w	23f8ab2 <_Znaj>

023fe49c <_ZSt20__throw_length_errorPKc>:
 23fe49c:	b508      	push	{r3, lr}
 23fe49e:	f7fd f8dd 	bl	23fb65c <abort>

023fe4a2 <_ZSt25__throw_bad_function_callv>:
 23fe4a2:	b508      	push	{r3, lr}
 23fe4a4:	f7fd f8da 	bl	23fb65c <abort>

023fe4a8 <_ZNSt19_Sp_make_shared_tag5_S_eqERKSt9type_info>:
 23fe4a8:	4901      	ldr	r1, [pc, #4]	; (23fe4b0 <_ZNSt19_Sp_make_shared_tag5_S_eqERKSt9type_info+0x8>)
 23fe4aa:	f000 b8f9 	b.w	23fe6a0 <_ZNKSt9type_infoeqERKS_>
 23fe4ae:	bf00      	nop
 23fe4b0:	023ffd60 	.word	0x023ffd60

023fe4b4 <_ZNK10__cxxabiv117__class_type_info11__do_upcastEPKS0_PPv>:
 23fe4b4:	b57f      	push	{r0, r1, r2, r3, r4, r5, r6, lr}
 23fe4b6:	2400      	movs	r4, #0
 23fe4b8:	2310      	movs	r3, #16
 23fe4ba:	4615      	mov	r5, r2
 23fe4bc:	6812      	ldr	r2, [r2, #0]
 23fe4be:	e9cd 3402 	strd	r3, r4, [sp, #8]
 23fe4c2:	6803      	ldr	r3, [r0, #0]
 23fe4c4:	e9cd 4400 	strd	r4, r4, [sp]
 23fe4c8:	699e      	ldr	r6, [r3, #24]
 23fe4ca:	466b      	mov	r3, sp
 23fe4cc:	47b0      	blx	r6
 23fe4ce:	f89d 3004 	ldrb.w	r3, [sp, #4]
 23fe4d2:	f003 0306 	and.w	r3, r3, #6
 23fe4d6:	2b06      	cmp	r3, #6
 23fe4d8:	bf05      	ittet	eq
 23fe4da:	9b00      	ldreq	r3, [sp, #0]
 23fe4dc:	2001      	moveq	r0, #1
 23fe4de:	4620      	movne	r0, r4
 23fe4e0:	602b      	streq	r3, [r5, #0]
 23fe4e2:	b004      	add	sp, #16
 23fe4e4:	bd70      	pop	{r4, r5, r6, pc}

023fe4e6 <_ZNK10__cxxabiv117__class_type_info20__do_find_public_srcEiPKvPKS0_S2_>:
 23fe4e6:	9800      	ldr	r0, [sp, #0]
 23fe4e8:	4290      	cmp	r0, r2
 23fe4ea:	bf14      	ite	ne
 23fe4ec:	2001      	movne	r0, #1
 23fe4ee:	2006      	moveq	r0, #6
 23fe4f0:	4770      	bx	lr
	...

023fe4f4 <_ZN10__cxxabiv117__class_type_infoD1Ev>:
 23fe4f4:	4b03      	ldr	r3, [pc, #12]	; (23fe504 <_ZN10__cxxabiv117__class_type_infoD1Ev+0x10>)
 23fe4f6:	b510      	push	{r4, lr}
 23fe4f8:	4604      	mov	r4, r0
 23fe4fa:	6003      	str	r3, [r0, #0]
 23fe4fc:	f000 f8cd 	bl	23fe69a <_ZNSt9type_infoD1Ev>
 23fe500:	4620      	mov	r0, r4
 23fe502:	bd10      	pop	{r4, pc}
 23fe504:	023ffda0 	.word	0x023ffda0

023fe508 <_ZN10__cxxabiv117__class_type_infoD0Ev>:
 23fe508:	b510      	push	{r4, lr}
 23fe50a:	4604      	mov	r4, r0
 23fe50c:	f7ff fff2 	bl	23fe4f4 <_ZN10__cxxabiv117__class_type_infoD1Ev>
 23fe510:	2108      	movs	r1, #8
 23fe512:	4620      	mov	r0, r4
 23fe514:	f7fa fad1 	bl	23f8aba <_ZdlPvj>
 23fe518:	4620      	mov	r0, r4
 23fe51a:	bd10      	pop	{r4, pc}

023fe51c <_ZNK10__cxxabiv117__class_type_info12__do_dyncastEiNS0_10__sub_kindEPKS0_PKvS3_S5_RNS0_16__dyncast_resultE>:
 23fe51c:	e92d 41f0 	stmdb	sp!, {r4, r5, r6, r7, r8, lr}
 23fe520:	f8dd 8018 	ldr.w	r8, [sp, #24]
 23fe524:	461f      	mov	r7, r3
 23fe526:	4606      	mov	r6, r0
 23fe528:	4615      	mov	r5, r2
 23fe52a:	e9dd 3408 	ldrd	r3, r4, [sp, #32]
 23fe52e:	4598      	cmp	r8, r3
 23fe530:	d107      	bne.n	23fe542 <_ZNK10__cxxabiv117__class_type_info12__do_dyncastEiNS0_10__sub_kindEPKS0_PKvS3_S5_RNS0_16__dyncast_resultE+0x26>
 23fe532:	9907      	ldr	r1, [sp, #28]
 23fe534:	f000 f8b4 	bl	23fe6a0 <_ZNKSt9type_infoeqERKS_>
 23fe538:	b118      	cbz	r0, 23fe542 <_ZNK10__cxxabiv117__class_type_info12__do_dyncastEiNS0_10__sub_kindEPKS0_PKvS3_S5_RNS0_16__dyncast_resultE+0x26>
 23fe53a:	7165      	strb	r5, [r4, #5]
 23fe53c:	2000      	movs	r0, #0
 23fe53e:	e8bd 81f0 	ldmia.w	sp!, {r4, r5, r6, r7, r8, pc}
 23fe542:	4639      	mov	r1, r7
 23fe544:	4630      	mov	r0, r6
 23fe546:	f000 f8ab 	bl	23fe6a0 <_ZNKSt9type_infoeqERKS_>
 23fe54a:	2800      	cmp	r0, #0
 23fe54c:	d0f6      	beq.n	23fe53c <_ZNK10__cxxabiv117__class_type_info12__do_dyncastEiNS0_10__sub_kindEPKS0_PKvS3_S5_RNS0_16__dyncast_resultE+0x20>
 23fe54e:	2301      	movs	r3, #1
 23fe550:	f8c4 8000 	str.w	r8, [r4]
 23fe554:	7125      	strb	r5, [r4, #4]
 23fe556:	71a3      	strb	r3, [r4, #6]
 23fe558:	e7f0      	b.n	23fe53c <_ZNK10__cxxabiv117__class_type_info12__do_dyncastEiNS0_10__sub_kindEPKS0_PKvS3_S5_RNS0_16__dyncast_resultE+0x20>

023fe55a <_ZNK10__cxxabiv117__class_type_info11__do_upcastEPKS0_PKvRNS0_15__upcast_resultE>:
 23fe55a:	b538      	push	{r3, r4, r5, lr}
 23fe55c:	4615      	mov	r5, r2
 23fe55e:	461c      	mov	r4, r3
 23fe560:	f000 f89e 	bl	23fe6a0 <_ZNKSt9type_infoeqERKS_>
 23fe564:	b120      	cbz	r0, 23fe570 <_ZNK10__cxxabiv117__class_type_info11__do_upcastEPKS0_PKvRNS0_15__upcast_resultE+0x16>
 23fe566:	2308      	movs	r3, #8
 23fe568:	6025      	str	r5, [r4, #0]
 23fe56a:	60e3      	str	r3, [r4, #12]
 23fe56c:	2306      	movs	r3, #6
 23fe56e:	7123      	strb	r3, [r4, #4]
 23fe570:	bd38      	pop	{r3, r4, r5, pc}

023fe572 <_ZNK10__cxxabiv117__class_type_info10__do_catchEPKSt9type_infoPPvj>:
 23fe572:	b573      	push	{r0, r1, r4, r5, r6, lr}
 23fe574:	4605      	mov	r5, r0
 23fe576:	460c      	mov	r4, r1
 23fe578:	461e      	mov	r6, r3
 23fe57a:	9201      	str	r2, [sp, #4]
 23fe57c:	f000 f890 	bl	23fe6a0 <_ZNKSt9type_infoeqERKS_>
 23fe580:	b950      	cbnz	r0, 23fe598 <_ZNK10__cxxabiv117__class_type_info10__do_catchEPKSt9type_infoPPvj+0x26>
 23fe582:	2e03      	cmp	r6, #3
 23fe584:	d808      	bhi.n	23fe598 <_ZNK10__cxxabiv117__class_type_info10__do_catchEPKSt9type_infoPPvj+0x26>
 23fe586:	6823      	ldr	r3, [r4, #0]
 23fe588:	4629      	mov	r1, r5
 23fe58a:	9a01      	ldr	r2, [sp, #4]
 23fe58c:	4620      	mov	r0, r4
 23fe58e:	695b      	ldr	r3, [r3, #20]
 23fe590:	b002      	add	sp, #8
 23fe592:	e8bd 4070 	ldmia.w	sp!, {r4, r5, r6, lr}
 23fe596:	4718      	bx	r3
 23fe598:	b002      	add	sp, #8
 23fe59a:	bd70      	pop	{r4, r5, r6, pc}

023fe59c <_ZN10__cxxabiv120__si_class_type_infoD1Ev>:
 23fe59c:	4b03      	ldr	r3, [pc, #12]	; (23fe5ac <_ZN10__cxxabiv120__si_class_type_infoD1Ev+0x10>)
 23fe59e:	b510      	push	{r4, lr}
 23fe5a0:	4604      	mov	r4, r0
 23fe5a2:	6003      	str	r3, [r0, #0]
 23fe5a4:	f7ff ffa6 	bl	23fe4f4 <_ZN10__cxxabiv117__class_type_infoD1Ev>
 23fe5a8:	4620      	mov	r0, r4
 23fe5aa:	bd10      	pop	{r4, pc}
 23fe5ac:	023ffe00 	.word	0x023ffe00

023fe5b0 <_ZN10__cxxabiv120__si_class_type_infoD0Ev>:
 23fe5b0:	b510      	push	{r4, lr}
 23fe5b2:	4604      	mov	r4, r0
 23fe5b4:	f7ff fff2 	bl	23fe59c <_ZN10__cxxabiv120__si_class_type_infoD1Ev>
 23fe5b8:	210c      	movs	r1, #12
 23fe5ba:	4620      	mov	r0, r4
 23fe5bc:	f7fa fa7d 	bl	23f8aba <_ZdlPvj>
 23fe5c0:	4620      	mov	r0, r4
 23fe5c2:	bd10      	pop	{r4, pc}

023fe5c4 <_ZNK10__cxxabiv120__si_class_type_info20__do_find_public_srcEiPKvPKNS_17__class_type_infoES2_>:
 23fe5c4:	b5f7      	push	{r0, r1, r2, r4, r5, r6, r7, lr}
 23fe5c6:	9f08      	ldr	r7, [sp, #32]
 23fe5c8:	4605      	mov	r5, r0
 23fe5ca:	460e      	mov	r6, r1
 23fe5cc:	4614      	mov	r4, r2
 23fe5ce:	4297      	cmp	r7, r2
 23fe5d0:	d00a      	beq.n	23fe5e8 <_ZNK10__cxxabiv120__si_class_type_info20__do_find_public_srcEiPKvPKNS_17__class_type_infoES2_+0x24>
 23fe5d2:	68a8      	ldr	r0, [r5, #8]
 23fe5d4:	4631      	mov	r1, r6
 23fe5d6:	6802      	ldr	r2, [r0, #0]
 23fe5d8:	9708      	str	r7, [sp, #32]
 23fe5da:	6a15      	ldr	r5, [r2, #32]
 23fe5dc:	4622      	mov	r2, r4
 23fe5de:	46ac      	mov	ip, r5
 23fe5e0:	b003      	add	sp, #12
 23fe5e2:	e8bd 40f0 	ldmia.w	sp!, {r4, r5, r6, r7, lr}
 23fe5e6:	4760      	bx	ip
 23fe5e8:	4619      	mov	r1, r3
 23fe5ea:	9301      	str	r3, [sp, #4]
 23fe5ec:	f000 f858 	bl	23fe6a0 <_ZNKSt9type_infoeqERKS_>
 23fe5f0:	9b01      	ldr	r3, [sp, #4]
 23fe5f2:	2800      	cmp	r0, #0
 23fe5f4:	d0ed      	beq.n	23fe5d2 <_ZNK10__cxxabiv120__si_class_type_info20__do_find_public_srcEiPKvPKNS_17__class_type_infoES2_+0xe>
 23fe5f6:	2006      	movs	r0, #6
 23fe5f8:	b003      	add	sp, #12
 23fe5fa:	bdf0      	pop	{r4, r5, r6, r7, pc}

023fe5fc <_ZNK10__cxxabiv120__si_class_type_info12__do_dyncastEiNS_17__class_type_info10__sub_kindEPKS1_PKvS4_S6_RNS1_16__dyncast_resultE>:
 23fe5fc:	e92d 4ff1 	stmdb	sp!, {r0, r4, r5, r6, r7, r8, r9, sl, fp, lr}
 23fe600:	460d      	mov	r5, r1
 23fe602:	4619      	mov	r1, r3
 23fe604:	4681      	mov	r9, r0
 23fe606:	4617      	mov	r7, r2
 23fe608:	4698      	mov	r8, r3
 23fe60a:	e9dd 4b0a 	ldrd	r4, fp, [sp, #40]	; 0x28
 23fe60e:	e9dd a60c 	ldrd	sl, r6, [sp, #48]	; 0x30
 23fe612:	f000 f845 	bl	23fe6a0 <_ZNKSt9type_infoeqERKS_>
 23fe616:	b190      	cbz	r0, 23fe63e <_ZNK10__cxxabiv120__si_class_type_info12__do_dyncastEiNS_17__class_type_info10__sub_kindEPKS1_PKvS4_S6_RNS1_16__dyncast_resultE+0x42>
 23fe618:	2d00      	cmp	r5, #0
 23fe61a:	6034      	str	r4, [r6, #0]
 23fe61c:	7137      	strb	r7, [r6, #4]
 23fe61e:	db09      	blt.n	23fe634 <_ZNK10__cxxabiv120__si_class_type_info12__do_dyncastEiNS_17__class_type_info10__sub_kindEPKS1_PKvS4_S6_RNS1_16__dyncast_resultE+0x38>
 23fe620:	1961      	adds	r1, r4, r5
 23fe622:	458a      	cmp	sl, r1
 23fe624:	bf0c      	ite	eq
 23fe626:	2106      	moveq	r1, #6
 23fe628:	2101      	movne	r1, #1
 23fe62a:	71b1      	strb	r1, [r6, #6]
 23fe62c:	2000      	movs	r0, #0
 23fe62e:	b001      	add	sp, #4
 23fe630:	e8bd 8ff0 	ldmia.w	sp!, {r4, r5, r6, r7, r8, r9, sl, fp, pc}
 23fe634:	3502      	adds	r5, #2
 23fe636:	d1f9      	bne.n	23fe62c <_ZNK10__cxxabiv120__si_class_type_info12__do_dyncastEiNS_17__class_type_info10__sub_kindEPKS1_PKvS4_S6_RNS1_16__dyncast_resultE+0x30>
 23fe638:	2301      	movs	r3, #1
 23fe63a:	71b3      	strb	r3, [r6, #6]
 23fe63c:	e7f6      	b.n	23fe62c <_ZNK10__cxxabiv120__si_class_type_info12__do_dyncastEiNS_17__class_type_info10__sub_kindEPKS1_PKvS4_S6_RNS1_16__dyncast_resultE+0x30>
 23fe63e:	4554      	cmp	r4, sl
 23fe640:	d106      	bne.n	23fe650 <_ZNK10__cxxabiv120__si_class_type_info12__do_dyncastEiNS_17__class_type_info10__sub_kindEPKS1_PKvS4_S6_RNS1_16__dyncast_resultE+0x54>
 23fe642:	4659      	mov	r1, fp
 23fe644:	4648      	mov	r0, r9
 23fe646:	f000 f82b 	bl	23fe6a0 <_ZNKSt9type_infoeqERKS_>
 23fe64a:	b108      	cbz	r0, 23fe650 <_ZNK10__cxxabiv120__si_class_type_info12__do_dyncastEiNS_17__class_type_info10__sub_kindEPKS1_PKvS4_S6_RNS1_16__dyncast_resultE+0x54>
 23fe64c:	7177      	strb	r7, [r6, #5]
 23fe64e:	e7ed      	b.n	23fe62c <_ZNK10__cxxabiv120__si_class_type_info12__do_dyncastEiNS_17__class_type_info10__sub_kindEPKS1_PKvS4_S6_RNS1_16__dyncast_resultE+0x30>
 23fe650:	f8d9 0008 	ldr.w	r0, [r9, #8]
 23fe654:	463a      	mov	r2, r7
 23fe656:	4629      	mov	r1, r5
 23fe658:	6803      	ldr	r3, [r0, #0]
 23fe65a:	e9cd a60c 	strd	sl, r6, [sp, #48]	; 0x30
 23fe65e:	e9cd 4b0a 	strd	r4, fp, [sp, #40]	; 0x28
 23fe662:	69dc      	ldr	r4, [r3, #28]
 23fe664:	4643      	mov	r3, r8
 23fe666:	46a4      	mov	ip, r4
 23fe668:	b001      	add	sp, #4
 23fe66a:	e8bd 4ff0 	ldmia.w	sp!, {r4, r5, r6, r7, r8, r9, sl, fp, lr}
 23fe66e:	4760      	bx	ip

023fe670 <_ZNK10__cxxabiv120__si_class_type_info11__do_upcastEPKNS_17__class_type_infoEPKvRNS1_15__upcast_resultE>:
 23fe670:	e92d 41f0 	stmdb	sp!, {r4, r5, r6, r7, r8, lr}
 23fe674:	4607      	mov	r7, r0
 23fe676:	460c      	mov	r4, r1
 23fe678:	4615      	mov	r5, r2
 23fe67a:	461e      	mov	r6, r3
 23fe67c:	f7ff ff6d 	bl	23fe55a <_ZNK10__cxxabiv117__class_type_info11__do_upcastEPKS0_PKvRNS0_15__upcast_resultE>
 23fe680:	b948      	cbnz	r0, 23fe696 <_ZNK10__cxxabiv120__si_class_type_info11__do_upcastEPKNS_17__class_type_infoEPKvRNS1_15__upcast_resultE+0x26>
 23fe682:	68b8      	ldr	r0, [r7, #8]
 23fe684:	462a      	mov	r2, r5
 23fe686:	4621      	mov	r1, r4
 23fe688:	6803      	ldr	r3, [r0, #0]
 23fe68a:	699f      	ldr	r7, [r3, #24]
 23fe68c:	4633      	mov	r3, r6
 23fe68e:	46bc      	mov	ip, r7
 23fe690:	e8bd 41f0 	ldmia.w	sp!, {r4, r5, r6, r7, r8, lr}
 23fe694:	4760      	bx	ip
 23fe696:	e8bd 81f0 	ldmia.w	sp!, {r4, r5, r6, r7, r8, pc}

023fe69a <_ZNSt9type_infoD1Ev>:
 23fe69a:	4770      	bx	lr

023fe69c <_ZNKSt9type_info14__is_pointer_pEv>:
 23fe69c:	2000      	movs	r0, #0
 23fe69e:	4770      	bx	lr

023fe6a0 <_ZNKSt9type_infoeqERKS_>:
 23fe6a0:	4281      	cmp	r1, r0
 23fe6a2:	b508      	push	{r3, lr}
 23fe6a4:	d00e      	beq.n	23fe6c4 <_ZNKSt9type_infoeqERKS_+0x24>
 23fe6a6:	6840      	ldr	r0, [r0, #4]
 23fe6a8:	7803      	ldrb	r3, [r0, #0]
 23fe6aa:	2b2a      	cmp	r3, #42	; 0x2a
 23fe6ac:	d00c      	beq.n	23fe6c8 <_ZNKSt9type_infoeqERKS_+0x28>
 23fe6ae:	6849      	ldr	r1, [r1, #4]
 23fe6b0:	780b      	ldrb	r3, [r1, #0]
 23fe6b2:	2b2a      	cmp	r3, #42	; 0x2a
 23fe6b4:	bf08      	it	eq
 23fe6b6:	3101      	addeq	r1, #1
 23fe6b8:	f7fa f9ca 	bl	23f8a50 <strcmp>
 23fe6bc:	fab0 f080 	clz	r0, r0
 23fe6c0:	0940      	lsrs	r0, r0, #5
 23fe6c2:	bd08      	pop	{r3, pc}
 23fe6c4:	2001      	movs	r0, #1
 23fe6c6:	e7fc      	b.n	23fe6c2 <_ZNKSt9type_infoeqERKS_+0x22>
 23fe6c8:	2000      	movs	r0, #0
 23fe6ca:	e7fa      	b.n	23fe6c2 <_ZNKSt9type_infoeqERKS_+0x22>

023fe6cc <atexit>:
 23fe6cc:	2300      	movs	r3, #0
 23fe6ce:	4601      	mov	r1, r0
 23fe6d0:	461a      	mov	r2, r3
 23fe6d2:	4618      	mov	r0, r3
 23fe6d4:	f000 b9bc 	b.w	23fea50 <__register_exitproc>

023fe6d8 <isprint>:
 23fe6d8:	4b02      	ldr	r3, [pc, #8]	; (23fe6e4 <isprint+0xc>)
 23fe6da:	4418      	add	r0, r3
 23fe6dc:	7840      	ldrb	r0, [r0, #1]
 23fe6de:	f000 0097 	and.w	r0, r0, #151	; 0x97
 23fe6e2:	4770      	bx	lr
 23fe6e4:	023ffecd 	.word	0x023ffecd

023fe6e8 <memcpy>:
 23fe6e8:	440a      	add	r2, r1
 23fe6ea:	1e43      	subs	r3, r0, #1
 23fe6ec:	4291      	cmp	r1, r2
 23fe6ee:	d100      	bne.n	23fe6f2 <memcpy+0xa>
 23fe6f0:	4770      	bx	lr
 23fe6f2:	b510      	push	{r4, lr}
 23fe6f4:	f811 4b01 	ldrb.w	r4, [r1], #1
 23fe6f8:	4291      	cmp	r1, r2
 23fe6fa:	f803 4f01 	strb.w	r4, [r3, #1]!
 23fe6fe:	d1f9      	bne.n	23fe6f4 <memcpy+0xc>
 23fe700:	bd10      	pop	{r4, pc}

023fe702 <memmove>:
 23fe702:	4288      	cmp	r0, r1
 23fe704:	b510      	push	{r4, lr}
 23fe706:	eb01 0402 	add.w	r4, r1, r2
 23fe70a:	d902      	bls.n	23fe712 <memmove+0x10>
 23fe70c:	4284      	cmp	r4, r0
 23fe70e:	4623      	mov	r3, r4
 23fe710:	d807      	bhi.n	23fe722 <memmove+0x20>
 23fe712:	1e43      	subs	r3, r0, #1
 23fe714:	42a1      	cmp	r1, r4
 23fe716:	d008      	beq.n	23fe72a <memmove+0x28>
 23fe718:	f811 2b01 	ldrb.w	r2, [r1], #1
 23fe71c:	f803 2f01 	strb.w	r2, [r3, #1]!
 23fe720:	e7f8      	b.n	23fe714 <memmove+0x12>
 23fe722:	4402      	add	r2, r0
 23fe724:	4601      	mov	r1, r0
 23fe726:	428a      	cmp	r2, r1
 23fe728:	d100      	bne.n	23fe72c <memmove+0x2a>
 23fe72a:	bd10      	pop	{r4, pc}
 23fe72c:	f813 4d01 	ldrb.w	r4, [r3, #-1]!
 23fe730:	f802 4d01 	strb.w	r4, [r2, #-1]!
 23fe734:	e7f7      	b.n	23fe726 <memmove+0x24>

023fe736 <memset>:
 23fe736:	4402      	add	r2, r0
 23fe738:	4603      	mov	r3, r0
 23fe73a:	4293      	cmp	r3, r2
 23fe73c:	d100      	bne.n	23fe740 <memset+0xa>
 23fe73e:	4770      	bx	lr
 23fe740:	f803 1b01 	strb.w	r1, [r3], #1
 23fe744:	e7f9      	b.n	23fe73a <memset+0x4>
	...

023fe748 <srand>:
 23fe748:	b538      	push	{r3, r4, r5, lr}
 23fe74a:	4b10      	ldr	r3, [pc, #64]	; (23fe78c <srand+0x44>)
 23fe74c:	4604      	mov	r4, r0
 23fe74e:	681d      	ldr	r5, [r3, #0]
 23fe750:	6bab      	ldr	r3, [r5, #56]	; 0x38
 23fe752:	b9b3      	cbnz	r3, 23fe782 <srand+0x3a>
 23fe754:	2018      	movs	r0, #24
 23fe756:	f7fc ff49 	bl	23fb5ec <malloc>
 23fe75a:	4602      	mov	r2, r0
 23fe75c:	63a8      	str	r0, [r5, #56]	; 0x38
 23fe75e:	b920      	cbnz	r0, 23fe76a <srand+0x22>
 23fe760:	4b0b      	ldr	r3, [pc, #44]	; (23fe790 <srand+0x48>)
 23fe762:	2142      	movs	r1, #66	; 0x42
 23fe764:	480b      	ldr	r0, [pc, #44]	; (23fe794 <srand+0x4c>)
 23fe766:	f7fc ffa3 	bl	23fb6b0 <__assert_func>
 23fe76a:	490b      	ldr	r1, [pc, #44]	; (23fe798 <srand+0x50>)
 23fe76c:	4b0b      	ldr	r3, [pc, #44]	; (23fe79c <srand+0x54>)
 23fe76e:	e9c0 1300 	strd	r1, r3, [r0]
 23fe772:	4b0b      	ldr	r3, [pc, #44]	; (23fe7a0 <srand+0x58>)
 23fe774:	2100      	movs	r1, #0
 23fe776:	6083      	str	r3, [r0, #8]
 23fe778:	230b      	movs	r3, #11
 23fe77a:	8183      	strh	r3, [r0, #12]
 23fe77c:	2001      	movs	r0, #1
 23fe77e:	e9c2 0104 	strd	r0, r1, [r2, #16]
 23fe782:	6bab      	ldr	r3, [r5, #56]	; 0x38
 23fe784:	2200      	movs	r2, #0
 23fe786:	611c      	str	r4, [r3, #16]
 23fe788:	615a      	str	r2, [r3, #20]
 23fe78a:	bd38      	pop	{r3, r4, r5, pc}
 23fe78c:	1007ad4c 	.word	0x1007ad4c
 23fe790:	023ffe39 	.word	0x023ffe39
 23fe794:	023ffe50 	.word	0x023ffe50
 23fe798:	abcd330e 	.word	0xabcd330e
 23fe79c:	e66d1234 	.word	0xe66d1234
 23fe7a0:	0005deec 	.word	0x0005deec

023fe7a4 <strchr>:
 23fe7a4:	b2c9      	uxtb	r1, r1
 23fe7a6:	4603      	mov	r3, r0
 23fe7a8:	f810 2b01 	ldrb.w	r2, [r0], #1
 23fe7ac:	b11a      	cbz	r2, 23fe7b6 <strchr+0x12>
 23fe7ae:	428a      	cmp	r2, r1
 23fe7b0:	d1f9      	bne.n	23fe7a6 <strchr+0x2>
 23fe7b2:	4618      	mov	r0, r3
 23fe7b4:	4770      	bx	lr
 23fe7b6:	2900      	cmp	r1, #0
 23fe7b8:	bf18      	it	ne
 23fe7ba:	2300      	movne	r3, #0
 23fe7bc:	e7f9      	b.n	23fe7b2 <strchr+0xe>

023fe7be <strchrnul>:
 23fe7be:	b510      	push	{r4, lr}
 23fe7c0:	4604      	mov	r4, r0
 23fe7c2:	f7ff ffef 	bl	23fe7a4 <strchr>
 23fe7c6:	b918      	cbnz	r0, 23fe7d0 <strchrnul+0x12>
 23fe7c8:	4620      	mov	r0, r4
 23fe7ca:	f7fa f94b 	bl	23f8a64 <strlen>
 23fe7ce:	4420      	add	r0, r4
 23fe7d0:	bd10      	pop	{r4, pc}

023fe7d2 <strcpy>:
 23fe7d2:	4603      	mov	r3, r0
 23fe7d4:	f811 2b01 	ldrb.w	r2, [r1], #1
 23fe7d8:	f803 2b01 	strb.w	r2, [r3], #1
 23fe7dc:	2a00      	cmp	r2, #0
 23fe7de:	d1f9      	bne.n	23fe7d4 <strcpy+0x2>
 23fe7e0:	4770      	bx	lr
	...

023fe7e4 <strdup>:
 23fe7e4:	4b02      	ldr	r3, [pc, #8]	; (23fe7f0 <strdup+0xc>)
 23fe7e6:	4601      	mov	r1, r0
 23fe7e8:	6818      	ldr	r0, [r3, #0]
 23fe7ea:	f000 b803 	b.w	23fe7f4 <_strdup_r>
 23fe7ee:	bf00      	nop
 23fe7f0:	1007ad4c 	.word	0x1007ad4c

023fe7f4 <_strdup_r>:
 23fe7f4:	b537      	push	{r0, r1, r2, r4, r5, lr}
 23fe7f6:	4604      	mov	r4, r0
 23fe7f8:	4608      	mov	r0, r1
 23fe7fa:	460d      	mov	r5, r1
 23fe7fc:	f7fa f932 	bl	23f8a64 <strlen>
 23fe800:	1c42      	adds	r2, r0, #1
 23fe802:	4620      	mov	r0, r4
 23fe804:	4611      	mov	r1, r2
 23fe806:	9201      	str	r2, [sp, #4]
 23fe808:	f7fc ff36 	bl	23fb678 <_malloc_r>
 23fe80c:	4604      	mov	r4, r0
 23fe80e:	b118      	cbz	r0, 23fe818 <_strdup_r+0x24>
 23fe810:	9a01      	ldr	r2, [sp, #4]
 23fe812:	4629      	mov	r1, r5
 23fe814:	f7ff ff68 	bl	23fe6e8 <memcpy>
 23fe818:	4620      	mov	r0, r4
 23fe81a:	b003      	add	sp, #12
 23fe81c:	bd30      	pop	{r4, r5, pc}

023fe81e <strncmp>:
 23fe81e:	b510      	push	{r4, lr}
 23fe820:	b17a      	cbz	r2, 23fe842 <strncmp+0x24>
 23fe822:	4603      	mov	r3, r0
 23fe824:	3901      	subs	r1, #1
 23fe826:	1884      	adds	r4, r0, r2
 23fe828:	f813 0b01 	ldrb.w	r0, [r3], #1
 23fe82c:	f811 2f01 	ldrb.w	r2, [r1, #1]!
 23fe830:	4290      	cmp	r0, r2
 23fe832:	d101      	bne.n	23fe838 <strncmp+0x1a>
 23fe834:	42a3      	cmp	r3, r4
 23fe836:	d101      	bne.n	23fe83c <strncmp+0x1e>
 23fe838:	1a80      	subs	r0, r0, r2
 23fe83a:	bd10      	pop	{r4, pc}
 23fe83c:	2800      	cmp	r0, #0
 23fe83e:	d1f3      	bne.n	23fe828 <strncmp+0xa>
 23fe840:	e7fa      	b.n	23fe838 <strncmp+0x1a>
 23fe842:	4610      	mov	r0, r2
 23fe844:	e7f9      	b.n	23fe83a <strncmp+0x1c>

023fe846 <strrchr>:
 23fe846:	b538      	push	{r3, r4, r5, lr}
 23fe848:	4603      	mov	r3, r0
 23fe84a:	460c      	mov	r4, r1
 23fe84c:	b969      	cbnz	r1, 23fe86a <strrchr+0x24>
 23fe84e:	e8bd 4038 	ldmia.w	sp!, {r3, r4, r5, lr}
 23fe852:	f7ff bfa7 	b.w	23fe7a4 <strchr>
 23fe856:	1c43      	adds	r3, r0, #1
 23fe858:	4605      	mov	r5, r0
 23fe85a:	4621      	mov	r1, r4
 23fe85c:	4618      	mov	r0, r3
 23fe85e:	f7ff ffa1 	bl	23fe7a4 <strchr>
 23fe862:	2800      	cmp	r0, #0
 23fe864:	d1f7      	bne.n	23fe856 <strrchr+0x10>
 23fe866:	4628      	mov	r0, r5
 23fe868:	bd38      	pop	{r3, r4, r5, pc}
 23fe86a:	2500      	movs	r5, #0
 23fe86c:	e7f5      	b.n	23fe85a <strrchr+0x14>
	...

023fe870 <_strtol_l.constprop.0>:
 23fe870:	2b01      	cmp	r3, #1
 23fe872:	e92d 47f0 	stmdb	sp!, {r4, r5, r6, r7, r8, r9, sl, lr}
 23fe876:	d001      	beq.n	23fe87c <_strtol_l.constprop.0+0xc>
 23fe878:	2b24      	cmp	r3, #36	; 0x24
 23fe87a:	d906      	bls.n	23fe88a <_strtol_l.constprop.0+0x1a>
 23fe87c:	f7fc ff0a 	bl	23fb694 <__errno>
 23fe880:	2316      	movs	r3, #22
 23fe882:	6003      	str	r3, [r0, #0]
 23fe884:	2000      	movs	r0, #0
 23fe886:	e8bd 87f0 	ldmia.w	sp!, {r4, r5, r6, r7, r8, r9, sl, pc}
 23fe88a:	460d      	mov	r5, r1
 23fe88c:	f8df c0e0 	ldr.w	ip, [pc, #224]	; 23fe970 <_strtol_l.constprop.0+0x100>
 23fe890:	462e      	mov	r6, r5
 23fe892:	f815 4b01 	ldrb.w	r4, [r5], #1
 23fe896:	f814 700c 	ldrb.w	r7, [r4, ip]
 23fe89a:	f017 0708 	ands.w	r7, r7, #8
 23fe89e:	d1f7      	bne.n	23fe890 <_strtol_l.constprop.0+0x20>
 23fe8a0:	2c2d      	cmp	r4, #45	; 0x2d
 23fe8a2:	d132      	bne.n	23fe90a <_strtol_l.constprop.0+0x9a>
 23fe8a4:	782c      	ldrb	r4, [r5, #0]
 23fe8a6:	2701      	movs	r7, #1
 23fe8a8:	1cb5      	adds	r5, r6, #2
 23fe8aa:	2b00      	cmp	r3, #0
 23fe8ac:	d05b      	beq.n	23fe966 <_strtol_l.constprop.0+0xf6>
 23fe8ae:	2b10      	cmp	r3, #16
 23fe8b0:	d109      	bne.n	23fe8c6 <_strtol_l.constprop.0+0x56>
 23fe8b2:	2c30      	cmp	r4, #48	; 0x30
 23fe8b4:	d107      	bne.n	23fe8c6 <_strtol_l.constprop.0+0x56>
 23fe8b6:	782c      	ldrb	r4, [r5, #0]
 23fe8b8:	f004 04df 	and.w	r4, r4, #223	; 0xdf
 23fe8bc:	2c58      	cmp	r4, #88	; 0x58
 23fe8be:	d14d      	bne.n	23fe95c <_strtol_l.constprop.0+0xec>
 23fe8c0:	786c      	ldrb	r4, [r5, #1]
 23fe8c2:	2310      	movs	r3, #16
 23fe8c4:	3502      	adds	r5, #2
 23fe8c6:	f107 4800 	add.w	r8, r7, #2147483648	; 0x80000000
 23fe8ca:	f04f 0c00 	mov.w	ip, #0
 23fe8ce:	f108 38ff 	add.w	r8, r8, #4294967295
 23fe8d2:	4666      	mov	r6, ip
 23fe8d4:	fbb8 f9f3 	udiv	r9, r8, r3
 23fe8d8:	fb03 8a19 	mls	sl, r3, r9, r8
 23fe8dc:	f1a4 0e30 	sub.w	lr, r4, #48	; 0x30
 23fe8e0:	f1be 0f09 	cmp.w	lr, #9
 23fe8e4:	d816      	bhi.n	23fe914 <_strtol_l.constprop.0+0xa4>
 23fe8e6:	4674      	mov	r4, lr
 23fe8e8:	42a3      	cmp	r3, r4
 23fe8ea:	dd24      	ble.n	23fe936 <_strtol_l.constprop.0+0xc6>
 23fe8ec:	f1bc 0f00 	cmp.w	ip, #0
 23fe8f0:	db1e      	blt.n	23fe930 <_strtol_l.constprop.0+0xc0>
 23fe8f2:	45b1      	cmp	r9, r6
 23fe8f4:	d31c      	bcc.n	23fe930 <_strtol_l.constprop.0+0xc0>
 23fe8f6:	d101      	bne.n	23fe8fc <_strtol_l.constprop.0+0x8c>
 23fe8f8:	45a2      	cmp	sl, r4
 23fe8fa:	db19      	blt.n	23fe930 <_strtol_l.constprop.0+0xc0>
 23fe8fc:	fb06 4603 	mla	r6, r6, r3, r4
 23fe900:	f04f 0c01 	mov.w	ip, #1
 23fe904:	f815 4b01 	ldrb.w	r4, [r5], #1
 23fe908:	e7e8      	b.n	23fe8dc <_strtol_l.constprop.0+0x6c>
 23fe90a:	2c2b      	cmp	r4, #43	; 0x2b
 23fe90c:	bf04      	itt	eq
 23fe90e:	782c      	ldrbeq	r4, [r5, #0]
 23fe910:	1cb5      	addeq	r5, r6, #2
 23fe912:	e7ca      	b.n	23fe8aa <_strtol_l.constprop.0+0x3a>
 23fe914:	f1a4 0e41 	sub.w	lr, r4, #65	; 0x41
 23fe918:	f1be 0f19 	cmp.w	lr, #25
 23fe91c:	d801      	bhi.n	23fe922 <_strtol_l.constprop.0+0xb2>
 23fe91e:	3c37      	subs	r4, #55	; 0x37
 23fe920:	e7e2      	b.n	23fe8e8 <_strtol_l.constprop.0+0x78>
 23fe922:	f1a4 0e61 	sub.w	lr, r4, #97	; 0x61
 23fe926:	f1be 0f19 	cmp.w	lr, #25
 23fe92a:	d804      	bhi.n	23fe936 <_strtol_l.constprop.0+0xc6>
 23fe92c:	3c57      	subs	r4, #87	; 0x57
 23fe92e:	e7db      	b.n	23fe8e8 <_strtol_l.constprop.0+0x78>
 23fe930:	f04f 3cff 	mov.w	ip, #4294967295
 23fe934:	e7e6      	b.n	23fe904 <_strtol_l.constprop.0+0x94>
 23fe936:	f1bc 0f00 	cmp.w	ip, #0
 23fe93a:	da05      	bge.n	23fe948 <_strtol_l.constprop.0+0xd8>
 23fe93c:	2322      	movs	r3, #34	; 0x22
 23fe93e:	4646      	mov	r6, r8
 23fe940:	6003      	str	r3, [r0, #0]
 23fe942:	b942      	cbnz	r2, 23fe956 <_strtol_l.constprop.0+0xe6>
 23fe944:	4630      	mov	r0, r6
 23fe946:	e79e      	b.n	23fe886 <_strtol_l.constprop.0+0x16>
 23fe948:	b107      	cbz	r7, 23fe94c <_strtol_l.constprop.0+0xdc>
 23fe94a:	4276      	negs	r6, r6
 23fe94c:	2a00      	cmp	r2, #0
 23fe94e:	d0f9      	beq.n	23fe944 <_strtol_l.constprop.0+0xd4>
 23fe950:	f1bc 0f00 	cmp.w	ip, #0
 23fe954:	d000      	beq.n	23fe958 <_strtol_l.constprop.0+0xe8>
 23fe956:	1e69      	subs	r1, r5, #1
 23fe958:	6011      	str	r1, [r2, #0]
 23fe95a:	e7f3      	b.n	23fe944 <_strtol_l.constprop.0+0xd4>
 23fe95c:	2430      	movs	r4, #48	; 0x30
 23fe95e:	2b00      	cmp	r3, #0
 23fe960:	d1b1      	bne.n	23fe8c6 <_strtol_l.constprop.0+0x56>
 23fe962:	2308      	movs	r3, #8
 23fe964:	e7af      	b.n	23fe8c6 <_strtol_l.constprop.0+0x56>
 23fe966:	2c30      	cmp	r4, #48	; 0x30
 23fe968:	d0a5      	beq.n	23fe8b6 <_strtol_l.constprop.0+0x46>
 23fe96a:	230a      	movs	r3, #10
 23fe96c:	e7ab      	b.n	23fe8c6 <_strtol_l.constprop.0+0x56>
 23fe96e:	bf00      	nop
 23fe970:	023ffece 	.word	0x023ffece

023fe974 <strtol>:
 23fe974:	4613      	mov	r3, r2
 23fe976:	460a      	mov	r2, r1
 23fe978:	4601      	mov	r1, r0
 23fe97a:	4802      	ldr	r0, [pc, #8]	; (23fe984 <strtol+0x10>)
 23fe97c:	6800      	ldr	r0, [r0, #0]
 23fe97e:	f7ff bf77 	b.w	23fe870 <_strtol_l.constprop.0>
 23fe982:	bf00      	nop
 23fe984:	1007ad4c 	.word	0x1007ad4c

023fe988 <close>:
 23fe988:	4b02      	ldr	r3, [pc, #8]	; (23fe994 <close+0xc>)
 23fe98a:	4601      	mov	r1, r0
 23fe98c:	6818      	ldr	r0, [r3, #0]
 23fe98e:	f000 b8c3 	b.w	23feb18 <_close_r>
 23fe992:	bf00      	nop
 23fe994:	1007ad4c 	.word	0x1007ad4c

023fe998 <lseek>:
 23fe998:	4613      	mov	r3, r2
 23fe99a:	460a      	mov	r2, r1
 23fe99c:	4601      	mov	r1, r0
 23fe99e:	4802      	ldr	r0, [pc, #8]	; (23fe9a8 <lseek+0x10>)
 23fe9a0:	6800      	ldr	r0, [r0, #0]
 23fe9a2:	f000 b8cd 	b.w	23feb40 <_lseek_r>
 23fe9a6:	bf00      	nop
 23fe9a8:	1007ad4c 	.word	0x1007ad4c

023fe9ac <open>:
 23fe9ac:	b40e      	push	{r1, r2, r3}
 23fe9ae:	b503      	push	{r0, r1, lr}
 23fe9b0:	ab03      	add	r3, sp, #12
 23fe9b2:	4601      	mov	r1, r0
 23fe9b4:	4806      	ldr	r0, [pc, #24]	; (23fe9d0 <open+0x24>)
 23fe9b6:	f853 2b04 	ldr.w	r2, [r3], #4
 23fe9ba:	6800      	ldr	r0, [r0, #0]
 23fe9bc:	9301      	str	r3, [sp, #4]
 23fe9be:	9b04      	ldr	r3, [sp, #16]
 23fe9c0:	f000 f8d0 	bl	23feb64 <_open_r>
 23fe9c4:	b002      	add	sp, #8
 23fe9c6:	f85d eb04 	ldr.w	lr, [sp], #4
 23fe9ca:	b003      	add	sp, #12
 23fe9cc:	4770      	bx	lr
 23fe9ce:	bf00      	nop
 23fe9d0:	1007ad4c 	.word	0x1007ad4c

023fe9d4 <read>:
 23fe9d4:	4613      	mov	r3, r2
 23fe9d6:	460a      	mov	r2, r1
 23fe9d8:	4601      	mov	r1, r0
 23fe9da:	4802      	ldr	r0, [pc, #8]	; (23fe9e4 <read+0x10>)
 23fe9dc:	6800      	ldr	r0, [r0, #0]
 23fe9de:	f000 b8d3 	b.w	23feb88 <_read_r>
 23fe9e2:	bf00      	nop
 23fe9e4:	1007ad4c 	.word	0x1007ad4c

023fe9e8 <unlink>:
 23fe9e8:	4b02      	ldr	r3, [pc, #8]	; (23fe9f4 <unlink+0xc>)
 23fe9ea:	4601      	mov	r1, r0
 23fe9ec:	6818      	ldr	r0, [r3, #0]
 23fe9ee:	f000 b80d 	b.w	23fea0c <_unlink_r>
 23fe9f2:	bf00      	nop
 23fe9f4:	1007ad4c 	.word	0x1007ad4c

023fe9f8 <write>:
 23fe9f8:	4613      	mov	r3, r2
 23fe9fa:	460a      	mov	r2, r1
 23fe9fc:	4601      	mov	r1, r0
 23fe9fe:	4802      	ldr	r0, [pc, #8]	; (23fea08 <write+0x10>)
 23fea00:	6800      	ldr	r0, [r0, #0]
 23fea02:	f000 b813 	b.w	23fea2c <_write_r>
 23fea06:	bf00      	nop
 23fea08:	1007ad4c 	.word	0x1007ad4c

023fea0c <_unlink_r>:
 23fea0c:	b538      	push	{r3, r4, r5, lr}
 23fea0e:	2300      	movs	r3, #0
 23fea10:	4d05      	ldr	r5, [pc, #20]	; (23fea28 <_unlink_r+0x1c>)
 23fea12:	4604      	mov	r4, r0
 23fea14:	4608      	mov	r0, r1
 23fea16:	602b      	str	r3, [r5, #0]
 23fea18:	f7fc f95e 	bl	23facd8 <_unlink>
 23fea1c:	1c43      	adds	r3, r0, #1
 23fea1e:	d102      	bne.n	23fea26 <_unlink_r+0x1a>
 23fea20:	682b      	ldr	r3, [r5, #0]
 23fea22:	b103      	cbz	r3, 23fea26 <_unlink_r+0x1a>
 23fea24:	6023      	str	r3, [r4, #0]
 23fea26:	bd38      	pop	{r3, r4, r5, pc}
 23fea28:	1007afe4 	.word	0x1007afe4

023fea2c <_write_r>:
 23fea2c:	b538      	push	{r3, r4, r5, lr}
 23fea2e:	4604      	mov	r4, r0
 23fea30:	4d06      	ldr	r5, [pc, #24]	; (23fea4c <_write_r+0x20>)
 23fea32:	4608      	mov	r0, r1
 23fea34:	4611      	mov	r1, r2
 23fea36:	2200      	movs	r2, #0
 23fea38:	602a      	str	r2, [r5, #0]
 23fea3a:	461a      	mov	r2, r3
 23fea3c:	f7fc f914 	bl	23fac68 <_write>
 23fea40:	1c43      	adds	r3, r0, #1
 23fea42:	d102      	bne.n	23fea4a <_write_r+0x1e>
 23fea44:	682b      	ldr	r3, [r5, #0]
 23fea46:	b103      	cbz	r3, 23fea4a <_write_r+0x1e>
 23fea48:	6023      	str	r3, [r4, #0]
 23fea4a:	bd38      	pop	{r3, r4, r5, pc}
 23fea4c:	1007afe4 	.word	0x1007afe4

023fea50 <__register_exitproc>:
 23fea50:	e92d 43f8 	stmdb	sp!, {r3, r4, r5, r6, r7, r8, r9, lr}
 23fea54:	f8df 80bc 	ldr.w	r8, [pc, #188]	; 23feb14 <__register_exitproc+0xc4>
 23fea58:	4606      	mov	r6, r0
 23fea5a:	461f      	mov	r7, r3
 23fea5c:	460d      	mov	r5, r1
 23fea5e:	f8d8 0000 	ldr.w	r0, [r8]
 23fea62:	4691      	mov	r9, r2
 23fea64:	f000 f868 	bl	23feb38 <__retarget_lock_acquire_recursive>
 23fea68:	4b26      	ldr	r3, [pc, #152]	; (23feb04 <__register_exitproc+0xb4>)
 23fea6a:	681c      	ldr	r4, [r3, #0]
 23fea6c:	b934      	cbnz	r4, 23fea7c <__register_exitproc+0x2c>
 23fea6e:	4c26      	ldr	r4, [pc, #152]	; (23feb08 <__register_exitproc+0xb8>)
 23fea70:	601c      	str	r4, [r3, #0]
 23fea72:	4b26      	ldr	r3, [pc, #152]	; (23feb0c <__register_exitproc+0xbc>)
 23fea74:	b113      	cbz	r3, 23fea7c <__register_exitproc+0x2c>
 23fea76:	681b      	ldr	r3, [r3, #0]
 23fea78:	f8c4 3088 	str.w	r3, [r4, #136]	; 0x88
 23fea7c:	6863      	ldr	r3, [r4, #4]
 23fea7e:	2b1f      	cmp	r3, #31
 23fea80:	dd07      	ble.n	23fea92 <__register_exitproc+0x42>
 23fea82:	f8d8 0000 	ldr.w	r0, [r8]
 23fea86:	f000 f859 	bl	23feb3c <__retarget_lock_release_recursive>
 23fea8a:	f04f 30ff 	mov.w	r0, #4294967295
 23fea8e:	e8bd 83f8 	ldmia.w	sp!, {r3, r4, r5, r6, r7, r8, r9, pc}
 23fea92:	b35e      	cbz	r6, 23feaec <__register_exitproc+0x9c>
 23fea94:	f8d4 0088 	ldr.w	r0, [r4, #136]	; 0x88
 23fea98:	b988      	cbnz	r0, 23feabe <__register_exitproc+0x6e>
 23fea9a:	4b1d      	ldr	r3, [pc, #116]	; (23feb10 <__register_exitproc+0xc0>)
 23fea9c:	b923      	cbnz	r3, 23feaa8 <__register_exitproc+0x58>
 23fea9e:	f8d8 0000 	ldr.w	r0, [r8]
 23feaa2:	f000 f84a 	bl	23feb3a <__retarget_lock_release>
 23feaa6:	e7f0      	b.n	23fea8a <__register_exitproc+0x3a>
 23feaa8:	f44f 7084 	mov.w	r0, #264	; 0x108
 23feaac:	f7fc fd9e 	bl	23fb5ec <malloc>
 23feab0:	2800      	cmp	r0, #0
 23feab2:	d0f4      	beq.n	23fea9e <__register_exitproc+0x4e>
 23feab4:	2300      	movs	r3, #0
 23feab6:	e9c0 3340 	strd	r3, r3, [r0, #256]	; 0x100
 23feaba:	f8c4 0088 	str.w	r0, [r4, #136]	; 0x88
 23feabe:	6863      	ldr	r3, [r4, #4]
 23feac0:	2201      	movs	r2, #1
 23feac2:	2e02      	cmp	r6, #2
 23feac4:	f840 9023 	str.w	r9, [r0, r3, lsl #2]
 23feac8:	fa02 f203 	lsl.w	r2, r2, r3
 23feacc:	eb00 0183 	add.w	r1, r0, r3, lsl #2
 23fead0:	f8d0 3100 	ldr.w	r3, [r0, #256]	; 0x100
 23fead4:	ea43 0302 	orr.w	r3, r3, r2
 23fead8:	f8c0 3100 	str.w	r3, [r0, #256]	; 0x100
 23feadc:	f8c1 7080 	str.w	r7, [r1, #128]	; 0x80
 23feae0:	bf02      	ittt	eq
 23feae2:	f8d0 3104 	ldreq.w	r3, [r0, #260]	; 0x104
 23feae6:	4313      	orreq	r3, r2
 23feae8:	f8c0 3104 	streq.w	r3, [r0, #260]	; 0x104
 23feaec:	6863      	ldr	r3, [r4, #4]
 23feaee:	f8d8 0000 	ldr.w	r0, [r8]
 23feaf2:	1c5a      	adds	r2, r3, #1
 23feaf4:	3302      	adds	r3, #2
 23feaf6:	6062      	str	r2, [r4, #4]
 23feaf8:	f844 5023 	str.w	r5, [r4, r3, lsl #2]
 23feafc:	f000 f81e 	bl	23feb3c <__retarget_lock_release_recursive>
 23feb00:	2000      	movs	r0, #0
 23feb02:	e7c4      	b.n	23fea8e <__register_exitproc+0x3e>
 23feb04:	1007afdc 	.word	0x1007afdc
 23feb08:	1007af50 	.word	0x1007af50
 23feb0c:	00000000 	.word	0x00000000
 23feb10:	023fb5ed 	.word	0x023fb5ed
 23feb14:	1007adb0 	.word	0x1007adb0

023feb18 <_close_r>:
 23feb18:	b538      	push	{r3, r4, r5, lr}
 23feb1a:	2300      	movs	r3, #0
 23feb1c:	4d05      	ldr	r5, [pc, #20]	; (23feb34 <_close_r+0x1c>)
 23feb1e:	4604      	mov	r4, r0
 23feb20:	4608      	mov	r0, r1
 23feb22:	602b      	str	r3, [r5, #0]
 23feb24:	f7fc f8bc 	bl	23faca0 <_close>
 23feb28:	1c43      	adds	r3, r0, #1
 23feb2a:	d102      	bne.n	23feb32 <_close_r+0x1a>
 23feb2c:	682b      	ldr	r3, [r5, #0]
 23feb2e:	b103      	cbz	r3, 23feb32 <_close_r+0x1a>
 23feb30:	6023      	str	r3, [r4, #0]
 23feb32:	bd38      	pop	{r3, r4, r5, pc}
 23feb34:	1007afe4 	.word	0x1007afe4

023feb38 <__retarget_lock_acquire_recursive>:
 23feb38:	4770      	bx	lr

023feb3a <__retarget_lock_release>:
 23feb3a:	4770      	bx	lr

023feb3c <__retarget_lock_release_recursive>:
 23feb3c:	4770      	bx	lr
	...

023feb40 <_lseek_r>:
 23feb40:	b538      	push	{r3, r4, r5, lr}
 23feb42:	4604      	mov	r4, r0
 23feb44:	4d06      	ldr	r5, [pc, #24]	; (23feb60 <_lseek_r+0x20>)
 23feb46:	4608      	mov	r0, r1
 23feb48:	4611      	mov	r1, r2
 23feb4a:	2200      	movs	r2, #0
 23feb4c:	602a      	str	r2, [r5, #0]
 23feb4e:	461a      	mov	r2, r3
 23feb50:	f7fc f8b4 	bl	23facbc <_lseek>
 23feb54:	1c43      	adds	r3, r0, #1
 23feb56:	d102      	bne.n	23feb5e <_lseek_r+0x1e>
 23feb58:	682b      	ldr	r3, [r5, #0]
 23feb5a:	b103      	cbz	r3, 23feb5e <_lseek_r+0x1e>
 23feb5c:	6023      	str	r3, [r4, #0]
 23feb5e:	bd38      	pop	{r3, r4, r5, pc}
 23feb60:	1007afe4 	.word	0x1007afe4

023feb64 <_open_r>:
 23feb64:	b538      	push	{r3, r4, r5, lr}
 23feb66:	4604      	mov	r4, r0
 23feb68:	4d06      	ldr	r5, [pc, #24]	; (23feb84 <_open_r+0x20>)
 23feb6a:	4608      	mov	r0, r1
 23feb6c:	4611      	mov	r1, r2
 23feb6e:	2200      	movs	r2, #0
 23feb70:	602a      	str	r2, [r5, #0]
 23feb72:	461a      	mov	r2, r3
 23feb74:	f7fc f86a 	bl	23fac4c <_open>
 23feb78:	1c43      	adds	r3, r0, #1
 23feb7a:	d102      	bne.n	23feb82 <_open_r+0x1e>
 23feb7c:	682b      	ldr	r3, [r5, #0]
 23feb7e:	b103      	cbz	r3, 23feb82 <_open_r+0x1e>
 23feb80:	6023      	str	r3, [r4, #0]
 23feb82:	bd38      	pop	{r3, r4, r5, pc}
 23feb84:	1007afe4 	.word	0x1007afe4

023feb88 <_read_r>:
 23feb88:	b538      	push	{r3, r4, r5, lr}
 23feb8a:	4604      	mov	r4, r0
 23feb8c:	4d06      	ldr	r5, [pc, #24]	; (23feba8 <_read_r+0x20>)
 23feb8e:	4608      	mov	r0, r1
 23feb90:	4611      	mov	r1, r2
 23feb92:	2200      	movs	r2, #0
 23feb94:	602a      	str	r2, [r5, #0]
 23feb96:	461a      	mov	r2, r3
 23feb98:	f7fc f874 	bl	23fac84 <_read>
 23feb9c:	1c43      	adds	r3, r0, #1
 23feb9e:	d102      	bne.n	23feba6 <_read_r+0x1e>
 23feba0:	682b      	ldr	r3, [r5, #0]
 23feba2:	b103      	cbz	r3, 23feba6 <_read_r+0x1e>
 23feba4:	6023      	str	r3, [r4, #0]
 23feba6:	bd38      	pop	{r3, r4, r5, pc}
 23feba8:	1007afe4 	.word	0x1007afe4

023febac <dynalib_user>:
 23febac:	023f8a75 023f8a9d 023f8aa1 00000000     u.?...?...?.....
 23febbc:	6c6c6143 206e6f20 65727570 72697620     Call on pure vir
 23febcc:	6c617574 61726400 69622077 70616d74     tual.draw bitmap
 23febdc:	61747320 41007472 55425f44 4e4f5454      start.AD_BUTTON
 23febec:	4552505f 71005353 646f6372 6d622e65     _PRESS.qrcode.bm
 23febfc:	69440070 6e617473 28206563 20296d6d     p.Distance (mm) 
 23fec0c:	6425203d 5f444100 52504d49 49535345     = %d.AD_IMPRESSI
 23fec1c:	76004e4f 6f746365 5f3a3a72 65725f4d     ON.vector::_M_re
 23fec2c:	6f6c6c61 6e695f63 74726573 4f002f00     alloc_insert./.O
 23fec3c:	656e6570 69642064 64253d72 6f6c4300     pened dir=%d.Clo
 23fec4c:	20646573 00726964 66206461 20656c69     sed dir.ad file 
 23fec5c:	656d616e 656c2073 6874676e 25203d20     names length = %
 23fec6c:	6f460064 20646e75 65737361 73252074     d.Found asset %s
 23fec7c:	00646100 20746f47 253d6466 6c430064     .ad.Got fd=%d.Cl
 23fec8c:	6465736f 3d646620 53006425 74726174     osed fd=%d.Start
 23fec9c:	20676e69 65737361 61207374 6c696176     ing assets avail
 23fecac:	656c6261 0064253d 33354c56 2058314c     able=%d.VL53L1X 
 23fecbc:	6c696166 74206465 6e69206f 00007469     failed to init..

023feccc <_ZTVN5spark10LogHandlerE>:
	...
 23fecdc:	023f8ac1 023f8ae9                       ..?...?.

023fece4 <_ZTVN5spark16SerialLogHandlerE>:
	...
 23fecec:	023f8af9 023f8b2d 023fcdf9 023fcfa1     ..?.-.?...?...?.

023fecfc <_ZTV16Adafruit_SSD1351>:
 23fecfc:	0000000c 00000000 00000000 023f9c09     ..............?.
 23fed0c:	023f9981 023f98df 023f9793 023f9295     ..?...?...?...?.
 23fed1c:	023f92c9 00000000 00000000 fffffff4     ..?.............
	...
 23fed34:	fffffff4 fffffff4 00000000 fffffff4     ................
	...
 23fed4c:	fffffff4 fffffff4 00000000 023f92a9     ..............?.
 23fed5c:	023f92e9 023f9e7b 023fbd99 023f9cab     ..?.{.?...?...?.
 23fed6c:	023f9ccb 023f996f 023f9a11 023f9d89     ..?.o.?...?...?.
 23fed7c:	023f9e27 023f97a9 023f9e79 023fa253     '.?...?.y.?.S.?.

023fed8c <_ZTV12Adafruit_GFX>:
	...
 23fed9c:	023f9e7b 023fbd99 023f8ac1 023f9ccb     {.?...?...?...?.
 23fedac:	023f9df1 023f9e0d 023f9d89 023f9e27     ..?...?...?.'.?.
 23fedbc:	023f9e5d 023f9e79 023fa253              ].?.y.?.S.?.

023fedc8 <glcdfontBitmaps>:
 23fedc8:	0000ff00 00000000 f8700000 88d8f8a8     ..........p.....
 23fedd8:	f8700070 d888f8a8 50000070 70f8f8f8     p.p.....p..P...p
 23fede8:	20000020 70f8f870 50700020 20f8a8f8      .. p..p .pP... 
 23fedf8:	70200070 20f8f8f8 00000070 20707020     p. p... p... pp 
 23fee08:	f8f80000 d88888d8 0000f8f8 20505020     ............ PP 
 23fee18:	f8f80000 d8a8a8d8 3800f8f8 a0a06818     ...........8.h..
 23fee28:	88700040 f8207088 48780020 40404078     @.p..p . .xHx@@@
 23fee38:	487800c0 58484878 a82000c0 70d8d870     ..xHxHHX.. .p..p
 23fee48:	c08020a8 c0f0f8f0 18080080 1878f878     . ..........x.x.
 23fee58:	70200008 70a820a8 d8d80020 00d8d8d8     .. p. .p .......
 23fee68:	a87800d8 282868a8 48300028 48102850     ..x..h(((.0HP(.H
 23fee78:	00003048 f8000000 702000f8 70a820a8     H0........ p. .p
 23fee88:	2000f820 2020a870 20000020 70a82020      .. p.   ..   .p
 23fee98:	20000020 2010f810 20000000 2040f840      .. ... ... @.@ 
 23feea8:	80000000 00f88080 50000000 0050f8f8     ...........P..P.
 23feeb8:	20000000 f8f87020 f8000000 202070f8     ...  p.......p  
	...
 23feed0:	20200000 00202020 50500020 00000050     ..     . .PPP...
 23feee0:	50500000 50f850f8 78200050 f02870a0     ..PP.P.PP. x.p(.
 23feef0:	c8c00020 98402010 a0400018 90a840a0      .... @...@..@..
 23fef00:	30300068 00004020 20100000 20404040     h.00 @..... @@@ 
 23fef10:	20400010 20101010 a8200040 a870f870     ..@ ... @. .p.p.
 23fef20:	20000020 2020f820 00000000 30300000      ..  .  ......00
 23fef30:	00004020 0000f800 00000000 30000000      @.............0
 23fef40:	08000030 80402010 88700000 88c8a898     0.... @...p.....
 23fef50:	60200070 20202020 88700070 80807008     p. `    p.p..p..
 23fef60:	08f800f8 88083010 30100070 10f89050     .....0..p..0P...
 23fef70:	80f80010 880808f0 40380070 8888f080     ........p.8@....
 23fef80:	08f80070 40201008 88700080 88887088     p..... @..p..p..
 23fef90:	88700070 10087888 000000e0 00200020     p.p..x...... . .
 23fefa0:	00000000 20200020 10080040 10204020     .... .  @... @ .
 23fefb0:	00000008 00f800f8 20400000 20100810     ..........@ ... 
 23fefc0:	88700040 00203008 88700020 80b0b8a8     @.p..0 . .p.....
 23fefd0:	50200078 88f88888 88f00088 8888f088     x. P............
 23fefe0:	887000f0 88808080 88f00070 88888888     ..p.....p.......
 23feff0:	80f800f0 8080f080 80f800f8 8080f080     ................
 23ff000:	88780080 88988080 88880078 8888f888     ..x.....x.......
 23ff010:	20700088 20202020 10380070 90101010     ..p     p.8.....
 23ff020:	90880060 90a0c0a0 80800088 80808080     `...............
 23ff030:	d88800f8 88a8a8a8 88880088 8898a8c8     ................
 23ff040:	88700088 88888888 88f00070 8080f088     ..p.....p.......
 23ff050:	88700080 90a88888 88f00068 90a0f088     ..p.....h.......
 23ff060:	88700088 88087080 a8f80070 20202020     ..p..p..p...    
 23ff070:	88880020 88888888 88880070 50888888      .......p......P
 23ff080:	88880020 a8a8a888 88880050 88502050      .......P...P P.
 23ff090:	88880088 20202050 08f80020 80407010     ....P    ....p@.
 23ff0a0:	407800f8 40404040 80000078 08102040     ..x@@@@@x...@ ..
 23ff0b0:	08780000 08080808 50200078 00000088     ..x.....x. P....
	...
 23ff0c8:	606000f8 00001020 00000000 90701060     ..`` .......`.p.
 23ff0d8:	80800078 c888c8b0 000000b0 88808870     x...........p...
 23ff0e8:	08080070 98889868 00000068 80f88870     p...h...h...p...
 23ff0f8:	28100070 20207020 00000020 68989870     p..( p   ...p..h
 23ff108:	80807008 8888c8b0 00200088 20202060     .p........ .`   
 23ff118:	00100070 90101010 80800060 a0c0a090     p.......`.......
 23ff128:	20600090 20202020 00000070 a8a8a8d0     ..`     p.......
 23ff138:	000000a8 8888c8b0 00000088 88888870     ............p...
 23ff148:	00000070 b0c8c8b0 00008080 68989868     p...........h..h
 23ff158:	00000808 8080c8b0 00000080 08708078     ............x.p.
 23ff168:	202000f0 282020f8 00000010 98888888     ..  .  (........
 23ff178:	00000068 50888888 00000020 a8a88888     h......P .......
 23ff188:	00000050 50205088 00000088 08788888     P....P P......x.
 23ff198:	00007088 402010f8 201000f8 20204020     .p.... @...  @  
 23ff1a8:	20200010 20200020 20400020 20201020     ..   .   .@  .  
 23ff1b8:	a8400040 00000010 70200000 f88888d8     @.@....... p....
 23ff1c8:	88700000 70888080 88006010 98888800     ..p....p.`......
 23ff1d8:	00180068 80f88870 00f80078 90701060     h...p...x...`.p.
 23ff1e8:	00880078 90701060 00c00078 90701060     x...`.p.x...`.p.
 23ff1f8:	00300078 90701060 78000078 1078c0c0     x.0.`.p.x..x..x.
 23ff208:	00f80030 80f88870 00880078 80f88870     0...p...x...p...
 23ff218:	00c00078 80f88870 00280078 10101030     x...p...x.(.0...
 23ff228:	48300038 10101030 00600038 10101030     8.0H0...8.`.0...
 23ff238:	00500038 f8885020 00208888 f8885020     8.P. P.... . P..
 23ff248:	00308888 80e080f0 000000f0 90781078     ..0.........x.x.
 23ff258:	50380078 9090f890 88700098 88887000     x.8P......p..p..
 23ff268:	88000070 88887000 c0000070 88887000     p....p..p....p..
 23ff278:	88700070 98888800 c0000068 98888800     p.p.....h.......
 23ff288:	00480068 38484848 00887008 88888870     h.H.HHH8.p..p...
 23ff298:	00880070 88888888 20200070 f8a0a0f8     p.......p.  ....
 23ff2a8:	58302020 4840e048 d8d800f8 f820f870       0XH.@H....p. .
 23ff2b8:	90e02020 b890e090 28189090 20207020       .........( p  
 23ff2c8:	0018c0a0 90701060 00180078 10101030     ....`.p.x...0...
 23ff2d8:	18000038 88887000 18000070 98888800     8....p..p.......
 23ff2e8:	78000068 48487000 00f80048 98b8e8c8     h..x.pHHH.......
 23ff2f8:	90700088 f8007890 88700000 f8007088     ..p..x....p..p..
 23ff308:	00200000 88806020 00000070 8080f800     .. . `..p.......
 23ff318:	00000000 0808f800 88800000 9848b890     ..............H.
 23ff328:	88803820 b858a890 20200808 20202000      8....X...  .   
 23ff338:	28000020 2850a050 a0000000 a0502850      ..(P.P(....P(P.
 23ff348:	88200000 88208820 a8508820 a850a850     .. . . . .P.P.P.
 23ff358:	1010a850 10101010 10101010 10f01010     P...............
 23ff368:	10101010 10f010f0 28281010 28e82828     ..........((((.(
 23ff378:	00002828 28f80000 00002828 10f010f0     ((.....(((......
 23ff388:	28281010 28e808e8 28282828 28282828     ..((...(((((((((
 23ff398:	00002828 28e808f8 28282828 00f808e8     ((.....(((((....
 23ff3a8:	28280000 00f82828 10100000 00f010f0     ..((((..........
 23ff3b8:	00000000 10f00000 10101010 00181010     ................
 23ff3c8:	10100000 00f81010 00000000 10f80000     ................
 23ff3d8:	10101010 10181010 00001010 00f80000     ................
 23ff3e8:	10100000 10f81010 10101010 10181018     ................
 23ff3f8:	28281010 28282828 28282828 00382028     ..((((((((((( 8.
 23ff408:	00000000 28282038 28282828 00f800e8     ....8 ((((((....
 23ff418:	00000000 28e800f8 28282828 28282028     .......(((((( ((
 23ff428:	00002828 00f800f8 28280000 28e800e8     ((........((...(
 23ff438:	10102828 00f800f8 28280000 00f82828     ((........((((..
 23ff448:	00000000 10f800f8 00001010 28f80000     ...............(
 23ff458:	28282828 00382828 10100000 00181018     ((((((8.........
 23ff468:	00000000 10181018 00001010 28380000     ..............8(
 23ff478:	28282828 28f82828 10102828 10f810f8     ((((((.(((......
 23ff488:	10101010 00f01010 00000000 10180000     ................
 23ff498:	f8f81010 f8f8f8f8 0000f8f8 f8f80000     ................
 23ff4a8:	e0e0f8f8 e0e0e0e0 1818e0e0 18181818     ................
 23ff4b8:	f8f81818 0000f8f8 00000000 90909068     ............h...
 23ff4c8:	70000068 f098f098 f8000080 80808098     h..p............
 23ff4d8:	f8000080 50505050 88f80050 88402040     ....PPPPP...@ @.
 23ff4e8:	000000f8 90909078 50000060 68505050     ....x...`..PPPPh
 23ff4f8:	f80000c0 202020a0 20f80020 70888870     .....    .. p..p
 23ff508:	5020f820 5088f888 50200020 50508888      . P...P . P..PP
 23ff518:	403000d8 88887030 00000070 a8a87000     ..0@0p..p....p..
 23ff528:	70080070 c8a8a898 80708070 8080f080     p..p....p.p.....
 23ff538:	88700070 88888888 f8000088 f800f800     p.p.............
 23ff548:	20200000 002020f8 204000f8 00402010     ..  .  ...@ . @.
 23ff558:	201000f8 00102040 283800f8 20202020     ... @ ....8(    
 23ff568:	20202020 a0202020 3030e0a0 3000f800            ...00...0
 23ff578:	e8000030 b8e800b8 d8700000 000070d8     0.........p..p..
 23ff588:	00000000 00303000 00000000 00300000     .....00.......0.
 23ff598:	20380000 a0a02020 48702060 00484848     ..8   ..` pHHHH.
 23ff5a8:	18700000 00786030 00000000 78787878     ..p.0`x.....xxxx
	...

023ff5c2 <glcdfontDescriptors>:
 23ff5c2:	00000805 00080805 00100805 00180805     ................
 23ff5d2:	00200805 00280805 00300805 00380805     .. ...(...0...8.
 23ff5e2:	00400805 00480805 00500805 00580805     ..@...H...P...X.
 23ff5f2:	00600805 00680805 00700805 00780805     ..`...h...p...x.
 23ff602:	00800805 00880805 00900805 00980805     ................
 23ff612:	00a00805 00a80805 00b00805 00b80805     ................
 23ff622:	00c00805 00c80805 00d00805 00d80805     ................
 23ff632:	00e00805 00e80805 00f00805 00f80805     ................
 23ff642:	01000805 01080805 01100805 01180805     ................
 23ff652:	01200805 01280805 01300805 01380805     .. ...(...0...8.
 23ff662:	01400805 01480805 01500805 01580805     ..@...H...P...X.
 23ff672:	01600805 01680805 01700805 01780805     ..`...h...p...x.
 23ff682:	01800805 01880805 01900805 01980805     ................
 23ff692:	01a00805 01a80805 01b00805 01b80805     ................
 23ff6a2:	01c00805 01c80805 01d00805 01d80805     ................
 23ff6b2:	01e00805 01e80805 01f00805 01f80805     ................
 23ff6c2:	02000805 02080805 02100805 02180805     ................
 23ff6d2:	02200805 02280805 02300805 02380805     .. ...(...0...8.
 23ff6e2:	02400805 02480805 02500805 02580805     ..@...H...P...X.
 23ff6f2:	02600805 02680805 02700805 02780805     ..`...h...p...x.
 23ff702:	02800805 02880805 02900805 02980805     ................
 23ff712:	02a00805 02a80805 02b00805 02b80805     ................
 23ff722:	02c00805 02c80805 02d00805 02d80805     ................
 23ff732:	02e00805 02e80805 02f00805 02f80805     ................
 23ff742:	03000805 03080805 03100805 03180805     ................
 23ff752:	03200805 03280805 03300805 03380805     .. ...(...0...8.
 23ff762:	03400805 03480805 03500805 03580805     ..@...H...P...X.
 23ff772:	03600805 03680805 03700805 03780805     ..`...h...p...x.
 23ff782:	03800805 03880805 03900805 03980805     ................
 23ff792:	03a00805 03a80805 03b00805 03b80805     ................
 23ff7a2:	03c00805 03c80805 03d00805 03d80805     ................
 23ff7b2:	03e00805 03e80805 03f00805 03f80805     ................
 23ff7c2:	04000805 04080805 04100805 04180805     ................
 23ff7d2:	04200805 04280805 04300805 04380805     .. ...(...0...8.
 23ff7e2:	04400805 04480805 04500805 04580805     ..@...H...P...X.
 23ff7f2:	04600805 04680805 04700805 04780805     ..`...h...p...x.
 23ff802:	04800805 04880805 04900805 04980805     ................
 23ff812:	04a00805 04a80805 04b00805 04b80805     ................
 23ff822:	04c00805 04c80805 04d00805 04d80805     ................
 23ff832:	04e00805 04e80805 04f00805 04f80805     ................
 23ff842:	05000805 05080805 05100805 05180805     ................
 23ff852:	05200805 05280805 05300805 05380805     .. ...(...0...8.
 23ff862:	05400805 05480805 05500805 05580805     ..@...H...P...X.
 23ff872:	05600805 05680805 05700805 05780805     ..`...h...p...x.
 23ff882:	05800805 05880805 05900805 05980805     ................
 23ff892:	05a00805 05a80805 05b00805 05b80805     ................
 23ff8a2:	05c00805 05c80805 05d00805 05d80805     ................
 23ff8b2:	05e00805 05e80805 05f00805 05f80805     ................
 23ff8c2:	06000805 06080805 06100805 06180805     ................
 23ff8d2:	06200805 06280805 06300805 06380805     .. ...(...0...8.
 23ff8e2:	06400805 06480805 06500805 06580805     ..@...H...P...X.
 23ff8f2:	06600805 06680805 06700805 06780805     ..`...h...p...x.
 23ff902:	06800805 06880805 06900805 06980805     ................
 23ff912:	06a00805 06a80805 06b00805 06b80805     ................
 23ff922:	06c00805 06c80805 06d00805 06d80805     ................
 23ff932:	06e00805 06e80805 06f00805 06f80805     ................
 23ff942:	07000805 07080805 07100805 07180805     ................
 23ff952:	07200805 07280805 07300805 07380805     .. ...(...0...8.
 23ff962:	07400805 07480805 07500805 07580805     ..@...H...P...X.
 23ff972:	07600805 07680805 07700805 07780805     ..`...h...p...x.
 23ff982:	07800805 07880805 07900805 07980805     ................
 23ff992:	07a00805 07a80805 07b00805 07b80805     ................
 23ff9a2:	07c00805 07c80805 07d00805 07d80805     ................
 23ff9b2:	07e00805 07e80805 07f00805 07f80805     ................
 23ff9c2:	656c6966 656d616e 25203d20 69660073     filename = %s.fi
 23ff9d2:	6f20656c 206e6570 6e727265 64253d6f     le open errno=%d
 23ff9e2:	52524500                                 .ERROR.

023ff9e9 <_ZL29VL51L1X_DEFAULT_CONFIGURATION>:
 23ff9e9:	01010100 08020002 01100800 00000001     ................
 23ff9f9:	0f00ff00 00000000 000b2000 210a0200     ......... .....!
 23ffa09:	00050000 c8000000 ff380000 00080001     ..........8.....
 23ffa19:	0fdb0100 010df101 08800068 000000b8     ........h.......
 23ffa29:	00890f00 00000000 0f010000 000e0e0d     ................
 23ffa39:	ffc70200 0000009b                        ...........

023ffa44 <_ZTV7VL53L1X>:
	...
 23ffa4c:	023faa17 023fa9f7 023fa9e1 023fa99d     ..?...?...?...?.
 23ffa5c:	023fa9d3 023fa9b9 023fa99f              ..?...?...?.

023ffa68 <_ZTVN5spark13EthernetClassE>:
	...
 23ffa70:	023fb747 023fb73d 023fb733 023fb729     G.?.=.?.3.?.).?.
 23ffa80:	023fb71d 023fb711 023fdcf1 023fdcf9     ..?...?...?...?.
 23ffa90:	023fb705 023fb6fd 023fb6f3 023fb6e9     ..?...?...?...?.
 23ffaa0:	023fdd29                                ).?.

023ffaa4 <_ZN12_GLOBAL__N_1L14clock_divisorsE>:
 23ffaa4:	18100800 38302820                       .... (08

023ffaac <_ZZNSt19_Sp_make_shared_tag5_S_tiEvE5__tag>:
	...

023ffab4 <_ZTVSt23_Sp_counted_ptr_inplaceIN8particle16ApplicationAsset4DataESaIS2_ELN9__gnu_cxx12_Lock_policyE0EE>:
	...
 23ffabc:	023fbe45 023fbe69 023fbebb 023fbe77     E.?.i.?...?.w.?.
 23ffacc:	023fbe49                                I.?.

023ffad0 <_ZTVN8particle16ApplicationAssetE>:
	...
 23ffad8:	023fba2d 023fbb29 023fbe41 023fbd99     -.?.).?.A.?...?.
 23ffae8:	023fc137 023fbe07 023fbe23 023fbe3f     7.?...?.#.?.?.?.
 23ffaf8:	023fc171 023fc0c9 023fc0f9 64756162     q.?...?...?.baud
 23ffb08:	72655300 006c6169 69726553 00316c61     .Serial.Serial1.
 23ffb18:	4e4f534a 65727453 6f4c6d61 6e614867     JSONStreamLogHan
 23ffb28:	72656c64 70706100 31302500 00207530     dler.app.%010u .
 23ffb38:	2c00205d 29280020 2000203a 6f63005b     ] ., .(): . [.co
 23ffb48:	3d206564 69250020 74656400 736c6961     de = .%i.details
 23ffb58:	00203d20 6d000a0d 6c006600 6e66006e      = ....m.f.ln.fn
 23ffb68:	646f6300 65640065 6c696174 00000000     .code.detail....

023ffb78 <_ZTVN5spark16JSONStreamWriterE>:
	...
 23ffb80:	023fc1f1 023fc217 023fc1d5 023fde43     ..?...?...?.C.?.

023ffb90 <_ZTVN5spark16StreamLogHandlerE>:
	...
 23ffb98:	023fc6a5 023fc6bd 023fcdf9 023fcfa1     ..?...?...?...?.

023ffba8 <_ZTVN5spark20JSONStreamLogHandlerE>:
	...
 23ffbb0:	023fc6d1 023fc6e5 023fcfd9 023fc1dd     ..?...?...?...?.

023ffbc0 <_ZTVN5spark24DefaultLogHandlerFactoryE>:
	...
 23ffbc8:	023fc1ef 023fc225 023fcd5d 023fc1df     ..?.%.?.].?...?.

023ffbd8 <_ZTVN5spark26DefaultOutputStreamFactoryE>:
	...
 23ffbe0:	023fc1ed 023fc233 023fc60d 023fc255     ..?.3.?...?.U.?.
 23ffbf0:	252d5925 64252d6d 3a482554 253a4d25     %Y-%m-%dT%H:%M:%
 23ffc00:	007a2553 74637361 00656d69              S%z.asctime.

023ffc0c <_ZTVSt15_Sp_counted_ptrIPN8particle6detail10FutureImplIbNS1_13FutureContextEEELN9__gnu_cxx12_Lock_policyE0EE>:
	...
 23ffc14:	023fd2c5 023fd2cb 023fd309 023fd2d9     ..?...?...?...?.
 23ffc24:	023fd2c7                                ..?.

023ffc28 <_ZTV9IPAddress>:
	...
 23ffc30:	023fd801 023fd7f1 023fd7f3              ..?...?...?.

023ffc3c <_ZTV9USBSerial>:
	...
 23ffc44:	023fd8e7 023fd94f 023fd925 023fbd99     ..?.O.?.%.?...?.
 23ffc54:	023fd917 023fd8e9 023fd8f9 023fd949     ..?...?...?.I.?.
 23ffc64:	023fd909 023fd8e1                       ..?...?.

023ffc6c <_ZTV11USARTSerial>:
	...
 23ffc74:	023fda45 023fdab1 023fda89 023fbd99     E.?...?...?...?.
 23ffc84:	023fda59 023fda75 023fda67 023fda83     Y.?.u.?.g.?...?.
 23ffc94:	023fda47 023fda4b                       G.?.K.?.

023ffc9c <_ZTV7TwoWire>:
	...
 23ffca4:	023fdb2b 023fdb75 023fdb4d 023fdb2d     +.?.u.?.M.?.-.?.
 23ffcb4:	023fdb55 023fdb5d 023fdb65 023fdb6d     U.?.].?.e.?.m.?.

023ffcc4 <_ZTVN5spark9WiFiClassE>:
	...
 23ffccc:	023fdc93 023fdc89 023fdc7f 023fdc35     ..?...?...?.5.?.
 23ffcdc:	023fdc73 023fdc67 023fdcf1 023fdcf9     s.?.g.?...?...?.
 23ffcec:	023fdc5b 023fdc53 023fdc49 023fdc3f     [.?.S.?.I.?.?.?.
 23ffcfc:	023fdd29                                ).?.

023ffd00 <_ZTVN5spark12NetworkClassE>:
	...
 23ffd08:	023fdcb1 023fdcbb 023fdcc5 023fdccf     ..?...?...?...?.
 23ffd18:	023fdcd9 023fdce5 023fdcf1 023fdcf9     ..?...?...?...?.
 23ffd28:	023fdd01 023fdd0d 023fdd15 023fdd1f     ..?...?...?...?.
 23ffd38:	023fdd29 75007525 78343025               ).?.%u.u%04x.

023ffd45 <_ZSt7nothrow>:
	...

023ffd46 <_ZTSSt19_Sp_make_shared_tag>:
 23ffd46:	39317453 5f70535f 656b616d 6168735f     St19_Sp_make_sha
 23ffd56:	5f646572 00676174                        red_tag...

023ffd60 <_ZTISt19_Sp_make_shared_tag>:
 23ffd60:	023ffda0 023ffd46                       ..?.F.?.

023ffd68 <_ZTIN10__cxxabiv117__class_type_infoE>:
 23ffd68:	023ffe00 023ffd74 023ffe24              ..?.t.?.$.?.

023ffd74 <_ZTSN10__cxxabiv117__class_type_infoE>:
 23ffd74:	5f30314e 7878635f 76696261 5f373131     N10__cxxabiv117_
 23ffd84:	616c635f 745f7373 5f657079 6f666e69     _class_type_info
 23ffd94:	00000045                                E...

023ffd98 <_ZTVN10__cxxabiv117__class_type_infoE>:
 23ffd98:	00000000 023ffd68 023fe4f5 023fe509     ....h.?...?...?.
 23ffda8:	023fe69d 023fe69d 023fe573 023fe4b5     ..?...?.s.?...?.
 23ffdb8:	023fe55b 023fe51d 023fe4e7              [.?...?...?.

023ffdc4 <_ZTIN10__cxxabiv120__si_class_type_infoE>:
 23ffdc4:	023ffe00 023ffdd0 023ffd68              ..?...?.h.?.

023ffdd0 <_ZTSN10__cxxabiv120__si_class_type_infoE>:
 23ffdd0:	5f30314e 7878635f 76696261 5f303231     N10__cxxabiv120_
 23ffde0:	5f69735f 73616c63 79745f73 695f6570     _si_class_type_i
 23ffdf0:	456f666e 00000000                       nfoE....

023ffdf8 <_ZTVN10__cxxabiv120__si_class_type_infoE>:
 23ffdf8:	00000000 023ffdc4 023fe59d 023fe5b1     ......?...?...?.
 23ffe08:	023fe69d 023fe69d 023fe573 023fe4b5     ..?...?.s.?...?.
 23ffe18:	023fe671 023fe5fd 023fe5c5              q.?...?...?.

023ffe24 <_ZTISt9type_info>:
 23ffe24:	023ffda0 023ffe2c                       ..?.,.?.

023ffe2c <_ZTSSt9type_info>:
 23ffe2c:	74397453 5f657079 6f666e69 45455200     St9type_info.REE
 23ffe3c:	6d20544e 6f6c6c61 75732063 65656363     NT malloc succee
 23ffe4c:	00646564 746e6d2f 726f772f 6170736b     ded./mnt/workspa
 23ffe5c:	772f6563 736b726f 65636170 4343472f     ce/workspace/GCC
 23ffe6c:	2d30312d 65706970 656e696c 6e656a2f     -10-pipeline/jen
 23ffe7c:	736e696b 4343472d 2d30312d 65706970     kins-GCC-10-pipe
 23ffe8c:	656e696c 5f38342d 30323032 34323131     line-48_20201124
 23ffe9c:	3036315f 30383136 2f313436 2f637273     _1606180641/src/
 23ffeac:	6c77656e 6e2f6269 696c7765 696c2f62     newlib/newlib/li
 23ffebc:	732f6362 696c6474 61722f62 632e646e     bc/stdlib/rand.c
	...

023ffecd <_ctype_>:
 23ffecd:	20202000 20202020 28282020 20282828     .         ((((( 
 23ffedd:	20202020 20202020 20202020 20202020                     
 23ffeed:	10108820 10101010 10101010 10101010      ...............
 23ffefd:	04040410 04040404 10040404 10101010     ................
 23fff0d:	41411010 41414141 01010101 01010101     ..AAAAAA........
 23fff1d:	01010101 01010101 01010101 10101010     ................
 23fff2d:	42421010 42424242 02020202 02020202     ..BBBBBB........
 23fff3d:	02020202 02020202 02020202 10101010     ................
 23fff4d:	00000020 00000000 00000000 00000000      ...............
	...

023fffce <link_const_data_end>:
	...

023fffd0 <link_constructors_location>:
 23fffd0:	023f91a1 	.word	0x023f91a1
 23fffd4:	023fb751 	.word	0x023fb751
 23fffd8:	023fbb3d 	.word	0x023fbb3d
 23fffdc:	023fbd89 	.word	0x023fbd89
 23fffe0:	023fcde9 	.word	0x023fcde9
 23fffe4:	023fd14d 	.word	0x023fd14d
 23fffe8:	023fd169 	.word	0x023fd169
 23fffec:	023fdc9d 	.word	0x023fdc9d
 23ffff0:	023fde01 	.word	0x023fde01
